 pm3lite

 Timestamp is 3a37d3c1 (Wed Dec 13 13:53:37 2000)

 Preferred load address is 00400000

 Start         Length     Name                   Class
 0001:00000000 0008c98eH .text                   CODE
 0002:00000000 00005e2cH .rdata                  DATA
 0002:00005e30 00006238H .xdata$x                DATA
 0002:0000c070 0000e6f2H .edata                  DATA
 0003:00000000 00000004H .CRT$XCA                DATA
 0003:00000004 00000004H .CRT$XCL                DATA
 0003:00000008 0000000cH .CRT$XCU                DATA
 0003:00000014 00000004H .CRT$XCZ                DATA
 0003:00000018 00000004H .CRT$XIA                DATA
 0003:0000001c 00000004H .CRT$XIZ                DATA
 0003:00000020 00006da4H .data                   DATA
 0003:00006dc8 00001e58H .bss                    DATA
 0004:00000000 00000118H .idata$2                DATA
 0004:00000118 00000028H .idata$3                DATA
 0004:00000140 00000f0cH .idata$4                DATA
 0004:0000104c 00000f0cH .idata$5                DATA
 0004:00001f58 00001830H .idata$6                DATA
 0005:00000000 00001db0H .rsrc$01                DATA
 0005:00001db0 0016ebfcH .rsrc$02                DATA

  Address         Publics by Value              Rva+Base   Lib:Object

 0001:00000000       ??4RDXDbAddr@@QAEAAV0@ABV0@@Z 00401000 f OpenGLSettings.obj
 0001:00000030       ??4RDXLockObj@@QAEAAV0@ABV0@@Z 00401030 f OpenGLSettings.obj
 0001:00000060       ??0DbAddr@@IAE@XZ          00401060 f OpenGLSettings.obj
 0001:00000090       ??0DbAddr@@QAE@J@Z         00401090 f OpenGLSettings.obj
 0001:000000c0       ?GetDba@DbAddr@@QBEKXZ     004010c0 f OpenGLSettings.obj
 0001:000000e0       ?SetDba@DbAddr@@QAEXK@Z    004010e0 f OpenGLSettings.obj
 0001:00000100       ??4DbAddr@@QAEAAV0@ABV0@@Z 00401100 f OpenGLSettings.obj
 0001:00000130       ??0VistaObj@@IAE@PAVVistaDb@@@Z 00401130 f OpenGLSettings.obj
 0001:00000180       ?SetStatus@VistaObj@@QAEXH@Z 00401180 f OpenGLSettings.obj
 0001:000001b0       ?GetStatus@VistaObj@@QAEHXZ 004011b0 f OpenGLSettings.obj
 0001:000001d0       ??1VistaObj@@UAE@XZ        004011d0 f OpenGLSettings.obj
 0001:000001f0       ?GetDb@VistaObj@@UAEPAVVistaDb@@XZ 004011f0 f OpenGLSettings.obj
 0001:00000230       ?SetDb@VistaObj@@UAEPAVVistaDb@@PAV2@@Z 00401230 f OpenGLSettings.obj
 0001:00000260       ?RecName@VistaObj@@UAEPADXZ 00401260 f OpenGLSettings.obj
 0001:00000280       ??0VistaObj@@QAE@ABV0@@Z   00401280 f OpenGLSettings.obj
 0001:00000310       ??4VistaObj@@QAEAAV0@ABV0@@Z 00401310 f OpenGLSettings.obj
 0001:000003a0       ??_FVistaObj@@QAEXXZ       004013a0 f OpenGLSettings.obj
 0001:000003c0       ??_GVistaObj@@UAEPAXI@Z    004013c0 f OpenGLSettings.obj
 0001:00000400       ??_EVistaObj@@UAEPAXI@Z    00401400 f OpenGLSettings.obj
 0001:00000470       ?SetDbdPath@ActivateTask@@IAEPADPAD@Z 00401470 f OpenGLSettings.obj
 0001:000004a0       ?DupStr@@YAPADPAPADQAD@Z   004014a0 f OpenGLSettings.obj
 0001:000004f0       ?SetDbfPath@ActivateTask@@IAEPADPAD@Z 004014f0 f OpenGLSettings.obj
 0001:00000520       ?SetTafPath@ActivateTask@@IAEPADPAD@Z 00401520 f OpenGLSettings.obj
 0001:00000550       ?SetLogPath@ActivateTask@@IAEPADPAD@Z 00401550 f OpenGLSettings.obj
 0001:00000580       ?SetUID@ActivateTask@@IAEPADPAD@Z 00401580 f OpenGLSettings.obj
 0001:000005b0       ?GetDbdPath@ActivateTask@@QAEPADXZ 004015b0 f OpenGLSettings.obj
 0001:000005d0       ?GetDbfPath@ActivateTask@@QAEPADXZ 004015d0 f OpenGLSettings.obj
 0001:000005f0       ?GetTafPath@ActivateTask@@QAEPADXZ 004015f0 f OpenGLSettings.obj
 0001:00000610       ?GetLogPath@ActivateTask@@QAEPADXZ 00401610 f OpenGLSettings.obj
 0001:00000630       ?GetUID@ActivateTask@@QAEPADXZ 00401630 f OpenGLSettings.obj
 0001:00000650       ??0ActivateTask@@QAE@PAD00@Z 00401650 f OpenGLSettings.obj
 0001:000006b0       ??1ActivateTask@@QAE@XZ    004016b0 f OpenGLSettings.obj
 0001:000006d0       ??4ActivateTask@@QAEAAV0@ABV0@@Z 004016d0 f OpenGLSettings.obj
 0001:00000700       ??_FActivateTask@@QAEXXZ   00401700 f OpenGLSettings.obj
 0001:00000730       ??_GActivateTask@@QAEPAXI@Z 00401730 f OpenGLSettings.obj
 0001:00000770       ??_EActivateTask@@QAEPAXI@Z 00401770 f OpenGLSettings.obj
 0001:000007e0       ?SetStatus@RDXTask@@IAEXH@Z 004017e0 f OpenGLSettings.obj
 0001:00000810       ?DbTask@RDXTask@@QAEPAUDB_TASK_S@@XZ 00401810 f OpenGLSettings.obj
 0001:00000830       ?Okay@RDXTask@@QAE?AW4T_F@@XZ 00401830 f OpenGLSettings.obj
 0001:00000860       ?GetStatus@RDXTask@@QAEHXZ 00401860 f OpenGLSettings.obj
 0001:00000880       ?dbdpath@RDXTask@@QAEHPAD@Z 00401880 f OpenGLSettings.obj
 0001:000008b0       ?dbfpath@RDXTask@@QAEHPAD@Z 004018b0 f OpenGLSettings.obj
 0001:000008e0       ?dblog@RDXTask@@QAEHPAD@Z  004018e0 f OpenGLSettings.obj
 0001:00000910       ?dbtaf@RDXTask@@QAEHPAD@Z  00401910 f OpenGLSettings.obj
 0001:00000940       ?dbuserid@RDXTask@@QAEHPAD@Z 00401940 f OpenGLSettings.obj
 0001:00000970       ?checkid@RDXTask@@QAEHPAD@Z 00401970 f OpenGLSettings.obj
 0001:000009a0       ?internals@RDXTask@@QAEHHHHPAXI@Z 004019a0 f OpenGLSettings.obj
 0001:000009e0       ?destroy@RDXTask@@QAEHPAD@Z 004019e0 f OpenGLSettings.obj
 0001:00000a10       ?freeall@RDXTask@@QAEHXZ   00401a10 f OpenGLSettings.obj
 0001:00000a40       ?lockcomm@RDXTask@@QAEHH@Z 00401a40 f OpenGLSettings.obj
 0001:00000a70       ?lockmgr@RDXTask@@QAEHPAD@Z 00401a70 f OpenGLSettings.obj
 0001:00000aa0       ?off_opt@RDXTask@@QAEHH@Z  00401aa0 f OpenGLSettings.obj
 0001:00000ad0       ?on_opt@RDXTask@@QAEHK@Z   00401ad0 f OpenGLSettings.obj
 0001:00000b00       ?recover@RDXTask@@QAEHPAD@Z 00401b00 f OpenGLSettings.obj
 0001:00000b30       ?renfile@RDXTask@@QAEHPADF0@Z 00401b30 f OpenGLSettings.obj
 0001:00000b60       ?renclean@RDXTask@@QAEHXZ  00401b60 f OpenGLSettings.obj
 0001:00000b90       ?setpages@RDXTask@@QAEHHH@Z 00401b90 f OpenGLSettings.obj
 0001:00000bc0       ?setfiles@RDXTask@@QAEHH@Z 00401bc0 f OpenGLSettings.obj
 0001:00000bf0       ?set_dberr@RDXTask@@QAEHP6GXHPAD@Z@Z 00401bf0 f OpenGLSettings.obj
 0001:00000c20       ?timeout@RDXTask@@QAEHH@Z  00401c20 f OpenGLSettings.obj
 0001:00000c50       ?trabort@RDXTask@@QAEHXZ   00401c50 f OpenGLSettings.obj
 0001:00000c80       ?trbegin@RDXTask@@QAEHQAD@Z 00401c80 f OpenGLSettings.obj
 0001:00000cb0       ?trend@RDXTask@@QAEHXZ     00401cb0 f OpenGLSettings.obj
 0001:00000ce0       ??4RDXTask@@QAEAAV0@ABV0@@Z 00401ce0 f OpenGLSettings.obj
 0001:00000d10       ??_GRDXTask@@QAEPAXI@Z     00401d10 f OpenGLSettings.obj
 0001:00000d50       ??_ERDXTask@@QAEPAXI@Z     00401d50 f OpenGLSettings.obj
 0001:00000dc0       ?SetTransact@VistaTask@@AAEXPAVTransAction@@@Z 00401dc0 f OpenGLSettings.obj
 0001:00000df0       ?GetOpenType@VistaTask@@IAEPADXZ 00401df0 f OpenGLSettings.obj
 0001:00000e10       ?GetTransact@VistaTask@@QAEPAVTransAction@@XZ 00401e10 f OpenGLSettings.obj
 0001:00000e30       ?GetDbTotNumber@VistaTask@@QAEHXZ 00401e30 f OpenGLSettings.obj
 0001:00000e60       ??0VistaTask@@QAE@ABV0@@Z  00401e60 f OpenGLSettings.obj
 0001:00000f60       ??4VistaTask@@QAEAAV0@ABV0@@Z 00401f60 f OpenGLSettings.obj
 0001:00001060       ??_GVistaTask@@QAEPAXI@Z   00402060 f OpenGLSettings.obj
 0001:000010a0       ??_EVistaTask@@QAEPAXI@Z   004020a0 f OpenGLSettings.obj
 0001:00001120       ?SetDbn@RDXDb@@IAEXH@Z     00402120 f OpenGLSettings.obj
 0001:00001150       ?GetDbn@RDXDb@@QAEHXZ      00402150 f OpenGLSettings.obj
 0001:00001170       ?GetDbStatus@RDXDb@@QAEHXZ 00402170 f OpenGLSettings.obj
 0001:00001190       ?recstat@RDXDb@@QAEHKK@Z   00402190 f OpenGLSettings.obj
 0001:000011d0       ?rlbclr@RDXDb@@QAEHXZ      004021d0 f OpenGLSettings.obj
 0001:00001210       ?rlbset@RDXDb@@QAEHXZ      00402210 f OpenGLSettings.obj
 0001:00001250       ?rlbtst@RDXDb@@QAEHXZ      00402250 f OpenGLSettings.obj
 0001:00001290       ?cmstat@RDXDb@@QAEHH@Z     00402290 f OpenGLSettings.obj
 0001:000012d0       ?cmtype@RDXDb@@QAEHHPAH@Z  004022d0 f OpenGLSettings.obj
 0001:00001310       ?connect@RDXDb@@QAEHH@Z    00402310 f OpenGLSettings.obj
 0001:00001350       ?costat@RDXDb@@QAEHH@Z     00402350 f OpenGLSettings.obj
 0001:00001390       ?cotype@RDXDb@@QAEHHPAH@Z  00402390 f OpenGLSettings.obj
 0001:000013d0       ?crget@RDXDb@@QAEHPAK@Z    004023d0 f OpenGLSettings.obj
 0001:00001410       ?crread@RDXDb@@QAEHJPAX@Z  00402410 f OpenGLSettings.obj
 0001:00001450       ?crset@RDXDb@@QAEHPAK@Z    00402450 f OpenGLSettings.obj
 0001:00001490       ?crstat@RDXDb@@QAEHXZ      00402490 f OpenGLSettings.obj
 0001:000014d0       ?crtype@RDXDb@@QAEHPAH@Z   004024d0 f OpenGLSettings.obj
 0001:00001510       ?crwrite@RDXDb@@QAEHJPAX@Z 00402510 f OpenGLSettings.obj
 0001:00001550       ?csmget@RDXDb@@QAEHHPAK@Z  00402550 f OpenGLSettings.obj
 0001:00001590       ?csmread@RDXDb@@QAEHHJPAX@Z 00402590 f OpenGLSettings.obj
 0001:000015e0       ?csmset@RDXDb@@QAEHHPAK@Z  004025e0 f OpenGLSettings.obj
 0001:00001620       ?csmwrite@RDXDb@@QAEHHJPAX@Z 00402620 f OpenGLSettings.obj
 0001:00001670       ?csoget@RDXDb@@QAEHHPAK@Z  00402670 f OpenGLSettings.obj
 0001:000016b0       ?csoread@RDXDb@@QAEHHJPAX@Z 004026b0 f OpenGLSettings.obj
 0001:00001700       ?csoset@RDXDb@@QAEHHPAK@Z  00402700 f OpenGLSettings.obj
 0001:00001740       ?csowrite@RDXDb@@QAEHHJPAX@Z 00402740 f OpenGLSettings.obj
 0001:00001790       ?csstat@RDXDb@@QAEHH@Z     00402790 f OpenGLSettings.obj
 0001:000017d0       ?ctbpath@RDXDb@@QAEHPAD@Z  004027d0 f OpenGLSettings.obj
 0001:00001810       ?ctscm@RDXDb@@QAEHHPAK@Z   00402810 f OpenGLSettings.obj
 0001:00001850       ?ctsco@RDXDb@@QAEHHPAK@Z   00402850 f OpenGLSettings.obj
 0001:00001890       ?ctscr@RDXDb@@QAEHPAK@Z    00402890 f OpenGLSettings.obj
 0001:000018d0       ?curkey@RDXDb@@QAEHXZ      004028d0 f OpenGLSettings.obj
 0001:00001910       ?d_delete@RDXDb@@QAEHXZ    00402910 f OpenGLSettings.obj
 0001:00001950       ?disdel@RDXDb@@QAEHXZ      00402950 f OpenGLSettings.obj
 0001:00001990       ?recnext@RDXDb@@QAEHXZ     00402990 f OpenGLSettings.obj
 0001:000019d0       ?recprev@RDXDb@@QAEHXZ     004029d0 f OpenGLSettings.obj
 0001:00001a10       ?discon@RDXDb@@QAEHH@Z     00402a10 f OpenGLSettings.obj
 0001:00001a50       ?fillnew@RDXDb@@QAEHHPAX@Z 00402a50 f OpenGLSettings.obj
 0001:00001a90       ?findco@RDXDb@@QAEHH@Z     00402a90 f OpenGLSettings.obj
 0001:00001ad0       ?findfm@RDXDb@@QAEHH@Z     00402ad0 f OpenGLSettings.obj
 0001:00001b10       ?findlm@RDXDb@@QAEHH@Z     00402b10 f OpenGLSettings.obj
 0001:00001b50       ?findnm@RDXDb@@QAEHH@Z     00402b50 f OpenGLSettings.obj
 0001:00001b90       ?findpm@RDXDb@@QAEHH@Z     00402b90 f OpenGLSettings.obj
 0001:00001bd0       ?gtscm@RDXDb@@QAEHHPAK@Z   00402bd0 f OpenGLSettings.obj
 0001:00001c10       ?gtsco@RDXDb@@QAEHHPAK@Z   00402c10 f OpenGLSettings.obj
 0001:00001c50       ?gtscr@RDXDb@@QAEHPAK@Z    00402c50 f OpenGLSettings.obj
 0001:00001c90       ?gtscs@RDXDb@@QAEHHPAK@Z   00402c90 f OpenGLSettings.obj
 0001:00001cd0       ?initialize@RDXDb@@QAEHXZ  00402cd0 f OpenGLSettings.obj
 0001:00001d10       ?initfile@RDXDb@@QAEHF@Z   00402d10 f OpenGLSettings.obj
 0001:00001d50       ?ismember@RDXDb@@QAEHH@Z   00402d50 f OpenGLSettings.obj
 0001:00001d90       ?isowner@RDXDb@@QAEHH@Z    00402d90 f OpenGLSettings.obj
 0001:00001dd0       ?keybuild@RDXDb@@QAEHXZ    00402dd0 f OpenGLSettings.obj
 0001:00001e10       ?keydel@RDXDb@@QAEHJ@Z     00402e10 f OpenGLSettings.obj
 0001:00001e50       ?keyexist@RDXDb@@QAEHJ@Z   00402e50 f OpenGLSettings.obj
 0001:00001e90       ?keyfind@RDXDb@@QAEHJPAX@Z 00402e90 f OpenGLSettings.obj
 0001:00001ed0       ?keyfree@RDXDb@@QAEHJ@Z    00402ed0 f OpenGLSettings.obj
 0001:00001f10       ?keyfrst@RDXDb@@QAEHJ@Z    00402f10 f OpenGLSettings.obj
 0001:00001f50       ?keylast@RDXDb@@QAEHJ@Z    00402f50 f OpenGLSettings.obj
 0001:00001f90       ?keylock@RDXDb@@QAEHJPAD@Z 00402f90 f OpenGLSettings.obj
 0001:00001fd0       ?keylstat@RDXDb@@QAEHJPAD@Z 00402fd0 f OpenGLSettings.obj
 0001:00002010       ?keynext@RDXDb@@QAEHJ@Z    00403010 f OpenGLSettings.obj
 0001:00002050       ?keyprev@RDXDb@@QAEHJ@Z    00403050 f OpenGLSettings.obj
 0001:00002090       ?keyread@RDXDb@@QAEHPAX@Z  00403090 f OpenGLSettings.obj
 0001:000020d0       ?keystore@RDXDb@@QAEHJ@Z   004030d0 f OpenGLSettings.obj
 0001:00002110       ?internals@RDXDb@@QAEHHHHPAXI@Z 00403110 f OpenGLSettings.obj
 0001:00002150       ?lock@RDXDb@@QAEHHPAUlock_request@@@Z 00403150 f OpenGLSettings.obj
 0001:00002190       ?makenew@RDXDb@@QAEHH@Z    00403190 f OpenGLSettings.obj
 0001:000021d0       ?members@RDXDb@@QAEHHPAJ@Z 004031d0 f OpenGLSettings.obj
 0001:00002210       ?recfree@RDXDb@@QAEHH@Z    00403210 f OpenGLSettings.obj
 0001:00002250       ?recfrst@RDXDb@@QAEHH@Z    00403250 f OpenGLSettings.obj
 0001:00002290       ?reclast@RDXDb@@QAEHH@Z    00403290 f OpenGLSettings.obj
 0001:000022d0       ?reclock@RDXDb@@QAEHHPAD@Z 004032d0 f OpenGLSettings.obj
 0001:00002310       ?reclstat@RDXDb@@QAEHHPAD@Z 00403310 f OpenGLSettings.obj
 0001:00002350       ?recread@RDXDb@@QAEHPAX@Z  00403350 f OpenGLSettings.obj
 0001:00002390       ?recset@RDXDb@@QAEHH@Z     00403390 f OpenGLSettings.obj
 0001:000023d0       ?recwrite@RDXDb@@QAEHPAX@Z 004033d0 f OpenGLSettings.obj
 0001:00002410       ?setfree@RDXDb@@QAEHH@Z    00403410 f OpenGLSettings.obj
 0001:00002450       ?setkey@RDXDb@@QAEHJPAX@Z  00403450 f OpenGLSettings.obj
 0001:00002490       ?setlock@RDXDb@@QAEHHPAX@Z 00403490 f OpenGLSettings.obj
 0001:000024d0       ?setlstat@RDXDb@@QAEHHPAX@Z 004034d0 f OpenGLSettings.obj
 0001:00002510       ?setmm@RDXDb@@QAEHHH@Z     00403510 f OpenGLSettings.obj
 0001:00002550       ?setmo@RDXDb@@QAEHHH@Z     00403550 f OpenGLSettings.obj
 0001:00002590       ?setmr@RDXDb@@QAEHH@Z      00403590 f OpenGLSettings.obj
 0001:000025d0       ?setom@RDXDb@@QAEHHH@Z     004035d0 f OpenGLSettings.obj
 0001:00002610       ?setoo@RDXDb@@QAEHHH@Z     00403610 f OpenGLSettings.obj
 0001:00002650       ?setor@RDXDb@@QAEHH@Z      00403650 f OpenGLSettings.obj
 0001:00002690       ?setrm@RDXDb@@QAEHH@Z      00403690 f OpenGLSettings.obj
 0001:000026d0       ?setro@RDXDb@@QAEHH@Z      004036d0 f OpenGLSettings.obj
 0001:00002710       ?stscm@RDXDb@@QAEHHK@Z     00403710 f OpenGLSettings.obj
 0001:00002750       ?stsco@RDXDb@@QAEHHK@Z     00403750 f OpenGLSettings.obj
 0001:00002790       ?stscr@RDXDb@@QAEHK@Z      00403790 f OpenGLSettings.obj
 0001:000027d0       ?stscs@RDXDb@@QAEHHK@Z     004037d0 f OpenGLSettings.obj
 0001:00002810       ?utscm@RDXDb@@QAEHHPAK@Z   00403810 f OpenGLSettings.obj
 0001:00002850       ?utsco@RDXDb@@QAEHHPAK@Z   00403850 f OpenGLSettings.obj
 0001:00002890       ?utscr@RDXDb@@QAEHPAK@Z    00403890 f OpenGLSettings.obj
 0001:000028d0       ?utscs@RDXDb@@QAEHHPAK@Z   004038d0 f OpenGLSettings.obj
 0001:00002910       ??0RDXDb@@QAE@XZ           00403910 f OpenGLSettings.obj
 0001:00002940       ??0RDXDb@@QAE@ABV0@@Z      00403940 f OpenGLSettings.obj
 0001:00002990       ??4RDXDb@@QAEAAV0@ABV0@@Z  00403990 f OpenGLSettings.obj
 0001:000029d0       ??_GRDXDb@@UAEPAXI@Z       004039d0 f OpenGLSettings.obj
 0001:00002a10       ??_ERDXDb@@UAEPAXI@Z       00403a10 f OpenGLSettings.obj
 0001:00002a80       ?GetName@VistaDb@@IAEPADXZ 00403a80 f OpenGLSettings.obj
 0001:00002aa0       ?SetOpenStat@VistaDb@@IAEXW4OpenStat@@@Z 00403aa0 f OpenGLSettings.obj
 0001:00002ad0       ?IsOpen@VistaDb@@QAE?AW4T_F@@XZ 00403ad0 f OpenGLSettings.obj
 0001:00002af0       ?MakeCurrent@VistaDb@@UAEXXZ 00403af0 f OpenGLSettings.obj
 0001:00002b10       ?GetTask@VistaDb@@QAEPAVVistaTask@@XZ 00403b10 f OpenGLSettings.obj
 0001:00002b30       ??0VistaDb@@QAE@ABV0@@Z    00403b30 f OpenGLSettings.obj
 0001:00002bf0       ??4VistaDb@@QAEAAV0@ABV0@@Z 00403bf0 f OpenGLSettings.obj
 0001:00002c80       ??_GVistaDb@@UAEPAXI@Z     00403c80 f OpenGLSettings.obj
 0001:00002cc0       ??_EVistaDb@@UAEPAXI@Z     00403cc0 f OpenGLSettings.obj
 0001:00002d40       ??0StoreDb@@QAE@ABV0@@Z    00403d40 f OpenGLSettings.obj
 0001:00002dc0       ??4StoreDb@@QAEAAV0@ABV0@@Z 00403dc0 f OpenGLSettings.obj
 0001:00002df0       ??1StoreDb@@UAE@XZ         00403df0 f OpenGLSettings.obj
 0001:00002e50       ??_GStoreDb@@UAEPAXI@Z     00403e50 f OpenGLSettings.obj
 0001:00002e90       ??_EStoreDb@@UAEPAXI@Z     00403e90 f OpenGLSettings.obj
 0001:00002f10       ??0StoreTask@@QAE@XZ       00403f10 f OpenGLSettings.obj
 0001:00002f90       ??0StoreTask@@QAE@PAD@Z    00403f90 f OpenGLSettings.obj
 0001:00003010       ??0StoreTask@@QAE@AAVActivateTask@@@Z 00404010 f OpenGLSettings.obj
 0001:00003090       ??0StoreTask@@QAE@PADAAVActivateTask@@@Z 00404090 f OpenGLSettings.obj
 0001:00003110       ??0StoreTask@@QAE@ABV0@@Z  00404110 f OpenGLSettings.obj
 0001:00003190       ??4StoreTask@@QAEAAV0@ABV0@@Z 00404190 f OpenGLSettings.obj
 0001:000031c0       ??1StoreTask@@QAE@XZ       004041c0 f OpenGLSettings.obj
 0001:00003220       ??_GStoreTask@@QAEPAXI@Z   00404220 f OpenGLSettings.obj
 0001:00003260       ??_EStoreTask@@QAEPAXI@Z   00404260 f OpenGLSettings.obj
 0001:000032e0       ??0SetObj@@QAE@H@Z         004042e0 f OpenGLSettings.obj
 0001:00003310       ?Num@SetObj@@QBEHXZ        00404310 f OpenGLSettings.obj
 0001:00003330       ??4SetObj@@QAEAAV0@ABV0@@Z 00404330 f OpenGLSettings.obj
 0001:00003360       ?NotRead@StoreObj@@IAE?AW4T_F@@XZ 00404360 f OpenGLSettings.obj
 0001:00003390       ?Okay@StoreObj@@QAE?AW4T_F@@XZ 00404390 f OpenGLSettings.obj
 0001:000033c0       ??AStoreObj@@QAEAAV0@AAVKeyObj@@@Z 004043c0 f OpenGLSettings.obj
 0001:000033f0       ??AStoreObj@@QAEAAV0@AAVDbAddr@@@Z 004043f0 f OpenGLSettings.obj
 0001:00003420       ?First@StoreObj@@QAEAAV1@XZ 00404420 f OpenGLSettings.obj
 0001:00003440       ?Last@StoreObj@@QAEAAV1@XZ 00404440 f OpenGLSettings.obj
 0001:00003460       ?Next@StoreObj@@QAEAAV1@XZ 00404460 f OpenGLSettings.obj
 0001:00003480       ?Prev@StoreObj@@QAEAAV1@XZ 00404480 f OpenGLSettings.obj
 0001:000034a0       ?First@StoreObj@@QAEAAV1@AAVKeyObj@@@Z 004044a0 f OpenGLSettings.obj
 0001:000034d0       ?Last@StoreObj@@QAEAAV1@AAVKeyObj@@@Z 004044d0 f OpenGLSettings.obj
 0001:00003500       ?Next@StoreObj@@QAEAAV1@AAVKeyObj@@@Z 00404500 f OpenGLSettings.obj
 0001:00003530       ?Prev@StoreObj@@QAEAAV1@AAVKeyObj@@@Z 00404530 f OpenGLSettings.obj
 0001:00003560       ?ReadLock@StoreObj@@QAE?AW4T_F@@XZ 00404560 f OpenGLSettings.obj
 0001:00003590       ?WriteLock@StoreObj@@QAE?AW4T_F@@XZ 00404590 f OpenGLSettings.obj
 0001:000035c0       ?ExclusiveLock@StoreObj@@QAE?AW4T_F@@XZ 004045c0 f OpenGLSettings.obj
 0001:000035f0       ?KeepLock@StoreObj@@QAE?AW4T_F@@XZ 004045f0 f OpenGLSettings.obj
 0001:00003620       ??_FStoreObj@@QAEXXZ       00404620 f OpenGLSettings.obj
 0001:00003640       ??_GStoreObj@@UAEPAXI@Z    00404640 f OpenGLSettings.obj
 0001:00003680       ??_EStoreObj@@UAEPAXI@Z    00404680 f OpenGLSettings.obj
 0001:000036f0       ??0KeyObj@@QAE@J@Z         004046f0 f OpenGLSettings.obj
 0001:00003720       ??0KeyObj@@QAE@JPAD@Z      00404720 f OpenGLSettings.obj
 0001:00003750       ??0KeyObj@@QAE@JAAH@Z      00404750 f OpenGLSettings.obj
 0001:00003780       ??0KeyObj@@QAE@JAAJ@Z      00404780 f OpenGLSettings.obj
 0001:000037b0       ??0KeyObj@@QAE@JAAN@Z      004047b0 f OpenGLSettings.obj
 0001:000037e0       ??0KeyObj@@QAE@JAAM@Z      004047e0 f OpenGLSettings.obj
 0001:00003810       ??0KeyObj@@QAE@JPAX@Z      00404810 f OpenGLSettings.obj
 0001:00003840       ?Set@KeyObj@@QAEAAV1@PAD@Z 00404840 f OpenGLSettings.obj
 0001:00003870       ?Set@KeyObj@@QAEAAV1@AAH@Z 00404870 f OpenGLSettings.obj
 0001:000038a0       ?Set@KeyObj@@QAEAAV1@AAJ@Z 004048a0 f OpenGLSettings.obj
 0001:000038d0       ?Set@KeyObj@@QAEAAV1@AAN@Z 004048d0 f OpenGLSettings.obj
 0001:00003900       ?Set@KeyObj@@QAEAAV1@AAM@Z 00404900 f OpenGLSettings.obj
 0001:00003930       ?Set@KeyObj@@QAEAAV1@PAX@Z 00404930 f OpenGLSettings.obj
 0001:00003960       ?Fld@KeyObj@@QBEJXZ        00404960 f OpenGLSettings.obj
 0001:00003980       ?HasValue@KeyObj@@QBE?AW4T_F@@XZ 00404980 f OpenGLSettings.obj
 0001:000039b0       ?Value@KeyObj@@QBEPAXXZ    004049b0 f OpenGLSettings.obj
 0001:000039d0       ??4KeyObj@@QAEAAV0@ABV0@@Z 004049d0 f OpenGLSettings.obj
 0001:00003a00       ??0ObjInfo@@IAE@XZ         00404a00 f OpenGLSettings.obj
 0001:00003a30       ?Set@ObjInfo@@QAEXAAVStoreObj@@@Z 00404a30 f OpenGLSettings.obj
 0001:00003a70       ?NotSet@ObjInfo@@QAE?AW4T_F@@XZ 00404a70 f OpenGLSettings.obj
 0001:00003aa0       ?RecType@ObjInfo@@QAEHXZ   00404aa0 f OpenGLSettings.obj
 0001:00003ac0       ?GetObj@ObjInfo@@QAEPAVStoreObj@@XZ 00404ac0 f OpenGLSettings.obj
 0001:00003ae0       ??4ObjInfo@@QAEAAV0@ABV0@@Z 00404ae0 f OpenGLSettings.obj
 0001:00003b10       ?GetInfo@Polymorph@@IAEPAVObjInfo@@XZ 00404b10 f OpenGLSettings.obj
 0001:00003b30       ??CPolymorph@@QAEPAVStoreObj@@XZ 00404b30 f OpenGLSettings.obj
 0001:00003b60       ?GetObj@Polymorph@@QAEPAVStoreObj@@XZ 00404b60 f OpenGLSettings.obj
 0001:00003b90       ?RecType@Polymorph@@UAEHXZ 00404b90 f OpenGLSettings.obj
 0001:00003bc0       ??0Polymorph@@QAE@AAV0@@Z  00404bc0 f OpenGLSettings.obj
 0001:00003c70       ??4Polymorph@@QAEAAV0@AAV0@@Z 00404c70 f OpenGLSettings.obj
 0001:00003cd0       ??_GPolymorph@@UAEPAXI@Z   00404cd0 f OpenGLSettings.obj
 0001:00003d10       ??_EPolymorph@@UAEPAXI@Z   00404d10 f OpenGLSettings.obj
 0001:00003d80       ??0triton@@QAE@XZ          00404d80 f OpenGLSettings.obj
 0001:00003e00       ?OpenMe@triton@@QAEXXZ     00404e00 f OpenGLSettings.obj
 0001:00003e20       ?MakeCurrent@triton@@UAEXXZ 00404e20 f OpenGLSettings.obj
 0001:00003e40       ??0triton@@QAE@ABV0@@Z     00404e40 f OpenGLSettings.obj
 0001:00003ec0       ??4triton@@QAEAAV0@ABV0@@Z 00404ec0 f OpenGLSettings.obj
 0001:00003ef0       ??1triton@@UAE@XZ          00404ef0 f OpenGLSettings.obj
 0001:00003f50       ??_Gtriton@@UAEPAXI@Z      00404f50 f OpenGLSettings.obj
 0001:00003f90       ??_Etriton@@UAEPAXI@Z      00404f90 f OpenGLSettings.obj
 0001:00004010       ??0TransformObj@@QAE@XZ    00405010 f OpenGLSettings.obj
 0001:00004090       ??1TransformObj@@UAE@XZ    00405090 f OpenGLSettings.obj
 0001:00004100       ?RecType@TransformObj@@UAEHXZ 00405100 f OpenGLSettings.obj
 0001:00004120       ?RecName@TransformObj@@UAEPADXZ 00405120 f OpenGLSettings.obj
 0001:00004140       ?RecData@TransformObj@@UAEPAXXZ 00405140 f OpenGLSettings.obj
 0001:00004160       ?RecDataSize@TransformObj@@QAEJXZ 00405160 f OpenGLSettings.obj
 0001:00004180       ?_GetDb@TransformObj@@UAEPAVVistaDb@@XZ 00405180 f OpenGLSettings.obj
 0001:000041a0       ??ATransformObj@@QAEAAV0@W4NavCtrl@@@Z 004051a0 f OpenGLSettings.obj
 0001:000041d0       ??ATransformObj@@QAEAAV0@AAVKeyObj@@@Z 004051d0 f OpenGLSettings.obj
 0001:00004200       ??ATransformObj@@QAEAAV0@AAVDbAddr@@@Z 00405200 f OpenGLSettings.obj
 0001:00004230       ??ETransformObj@@QAEAAV0@XZ 00405230 f OpenGLSettings.obj
 0001:00004250       ??FTransformObj@@QAEAAV0@XZ 00405250 f OpenGLSettings.obj
 0001:00004270       ??ETransformObj@@QAEAAV0@H@Z 00405270 f OpenGLSettings.obj
 0001:00004290       ??FTransformObj@@QAEAAV0@H@Z 00405290 f OpenGLSettings.obj
 0001:000042b0       ??5TransformObj@@QAEAAVClassesObj@@AAV1@@Z 004052b0 f OpenGLSettings.obj
 0001:000042e0       ?OwnerUsingSet@TransformObj@@QAEAAVClassesObj@@AAV2@H@Z 004052e0 f OpenGLSettings.obj
 0001:00004310       ?Members@TransformObj@@QAEJAAVClassesObj@@H@Z 00405310 f OpenGLSettings.obj
 0001:00004340       ??0TransformObj@@QAE@AAV0@@Z 00405340 f OpenGLSettings.obj
 0001:000043f0       ??4TransformObj@@QAEAAV0@AAV0@@Z 004053f0 f OpenGLSettings.obj
 0001:00004450       ??_GTransformObj@@UAEPAXI@Z 00405450 f OpenGLSettings.obj
 0001:00004490       ??_ETransformObj@@UAEPAXI@Z 00405490 f OpenGLSettings.obj
 0001:00004510       ??0ClassesObj@@QAE@XZ      00405510 f OpenGLSettings.obj
 0001:00004590       ??0ClassesObj@@QAE@AAVSetObj@@@Z 00405590 f OpenGLSettings.obj
 0001:00004610       ??0ClassesObj@@QAE@AAVKeyObj@@@Z 00405610 f OpenGLSettings.obj
 0001:00004690       ??0ClassesObj@@QAE@AAVSystemObj@@@Z 00405690 f OpenGLSettings.obj
 0001:00004720       ??0ClassesObj@@QAE@AAV0@@Z 00405720 f OpenGLSettings.obj
 0001:000047b0       ??0ClassesObj@@QAE@AAVTransformObj@@@Z 004057b0 f OpenGLSettings.obj
 0001:00004840       ??0ClassesObj@@QAE@AAVGroupsObj@@@Z 00405840 f OpenGLSettings.obj
 0001:000048d0       ??0ClassesObj@@QAE@AAVPropertiesObj@@@Z 004058d0 f OpenGLSettings.obj
 0001:00004960       ??1ClassesObj@@UAE@XZ      00405960 f OpenGLSettings.obj
 0001:000049d0       ?RecType@ClassesObj@@UAEHXZ 004059d0 f OpenGLSettings.obj
 0001:000049f0       ?RecName@ClassesObj@@UAEPADXZ 004059f0 f OpenGLSettings.obj
 0001:00004a10       ?RecData@ClassesObj@@UAEPAXXZ 00405a10 f OpenGLSettings.obj
 0001:00004a30       ?RecDataSize@ClassesObj@@QAEJXZ 00405a30 f OpenGLSettings.obj
 0001:00004a50       ?_GetDb@ClassesObj@@UAEPAVVistaDb@@XZ 00405a50 f OpenGLSettings.obj
 0001:00004a70       ??AClassesObj@@QAEAAV0@W4NavCtrl@@@Z 00405a70 f OpenGLSettings.obj
 0001:00004aa0       ??AClassesObj@@QAEAAV0@AAVKeyObj@@@Z 00405aa0 f OpenGLSettings.obj
 0001:00004ad0       ??AClassesObj@@QAEAAV0@AAVDbAddr@@@Z 00405ad0 f OpenGLSettings.obj
 0001:00004b00       ??EClassesObj@@QAEAAV0@XZ  00405b00 f OpenGLSettings.obj
 0001:00004b20       ??FClassesObj@@QAEAAV0@XZ  00405b20 f OpenGLSettings.obj
 0001:00004b40       ??EClassesObj@@QAEAAV0@H@Z 00405b40 f OpenGLSettings.obj
 0001:00004b60       ??FClassesObj@@QAEAAV0@H@Z 00405b60 f OpenGLSettings.obj
 0001:00004b80       ??5ClassesObj@@QAEAAV0@AAV0@@Z 00405b80 f OpenGLSettings.obj
 0001:00004bb0       ?OwnerUsingSet@ClassesObj@@QAEAAV1@AAV1@H@Z 00405bb0 f OpenGLSettings.obj
 0001:00004be0       ?Members@ClassesObj@@QAEJAAV1@H@Z 00405be0 f OpenGLSettings.obj
 0001:00004c10       ??5ClassesObj@@QAEAAVConeObj@@AAV1@@Z 00405c10 f OpenGLSettings.obj
 0001:00004c40       ?OwnerUsingSet@ClassesObj@@QAEAAVConeObj@@AAV2@H@Z 00405c40 f OpenGLSettings.obj
 0001:00004c70       ?Members@ClassesObj@@QAEJAAVConeObj@@H@Z 00405c70 f OpenGLSettings.obj
 0001:00004ca0       ??5ClassesObj@@QAEAAVCylinderObj@@AAV1@@Z 00405ca0 f OpenGLSettings.obj
 0001:00004cd0       ?OwnerUsingSet@ClassesObj@@QAEAAVCylinderObj@@AAV2@H@Z 00405cd0 f OpenGLSettings.obj
 0001:00004d00       ?Members@ClassesObj@@QAEJAAVCylinderObj@@H@Z 00405d00 f OpenGLSettings.obj
 0001:00004d30       ??5ClassesObj@@QAEAAVSphereObj@@AAV1@@Z 00405d30 f OpenGLSettings.obj
 0001:00004d60       ?OwnerUsingSet@ClassesObj@@QAEAAVSphereObj@@AAV2@H@Z 00405d60 f OpenGLSettings.obj
 0001:00004d90       ?Members@ClassesObj@@QAEJAAVSphereObj@@H@Z 00405d90 f OpenGLSettings.obj
 0001:00004dc0       ??5ClassesObj@@QAEAAVBoxObj@@AAV1@@Z 00405dc0 f OpenGLSettings.obj
 0001:00004df0       ?OwnerUsingSet@ClassesObj@@QAEAAVBoxObj@@AAV2@H@Z 00405df0 f OpenGLSettings.obj
 0001:00004e20       ?Members@ClassesObj@@QAEJAAVBoxObj@@H@Z 00405e20 f OpenGLSettings.obj
 0001:00004e50       ??5ClassesObj@@QAEAAVComplexObj@@AAV1@@Z 00405e50 f OpenGLSettings.obj
 0001:00004e80       ?OwnerUsingSet@ClassesObj@@QAEAAVComplexObj@@AAV2@H@Z 00405e80 f OpenGLSettings.obj
 0001:00004eb0       ?Members@ClassesObj@@QAEJAAVComplexObj@@H@Z 00405eb0 f OpenGLSettings.obj
 0001:00004ee0       ??5ClassesObj@@QAEAAVCirTorusObj@@AAV1@@Z 00405ee0 f OpenGLSettings.obj
 0001:00004f10       ?OwnerUsingSet@ClassesObj@@QAEAAVCirTorusObj@@AAV2@H@Z 00405f10 f OpenGLSettings.obj
 0001:00004f40       ?Members@ClassesObj@@QAEJAAVCirTorusObj@@H@Z 00405f40 f OpenGLSettings.obj
 0001:00004f70       ??5ClassesObj@@QAEAAVRectTorusObj@@AAV1@@Z 00405f70 f OpenGLSettings.obj
 0001:00004fa0       ?OwnerUsingSet@ClassesObj@@QAEAAVRectTorusObj@@AAV2@H@Z 00405fa0 f OpenGLSettings.obj
 0001:00004fd0       ?Members@ClassesObj@@QAEJAAVRectTorusObj@@H@Z 00405fd0 f OpenGLSettings.obj
 0001:00005000       ??5ClassesObj@@QAEAAVPyramidObj@@AAV1@@Z 00406000 f OpenGLSettings.obj
 0001:00005030       ?OwnerUsingSet@ClassesObj@@QAEAAVPyramidObj@@AAV2@H@Z 00406030 f OpenGLSettings.obj
 0001:00005060       ?Members@ClassesObj@@QAEJAAVPyramidObj@@H@Z 00406060 f OpenGLSettings.obj
 0001:00005090       ??5ClassesObj@@QAEAAVLineObj@@AAV1@@Z 00406090 f OpenGLSettings.obj
 0001:000050c0       ?OwnerUsingSet@ClassesObj@@QAEAAVLineObj@@AAV2@H@Z 004060c0 f OpenGLSettings.obj
 0001:000050f0       ?Members@ClassesObj@@QAEJAAVLineObj@@H@Z 004060f0 f OpenGLSettings.obj
 0001:00005120       ??5ClassesObj@@QAEAAVPointObj@@AAV1@@Z 00406120 f OpenGLSettings.obj
 0001:00005150       ?OwnerUsingSet@ClassesObj@@QAEAAVPointObj@@AAV2@H@Z 00406150 f OpenGLSettings.obj
 0001:00005180       ?Members@ClassesObj@@QAEJAAVPointObj@@H@Z 00406180 f OpenGLSettings.obj
 0001:000051b0       ?Connect@ClassesObj@@QAE?AW4T_F@@AAVSystemObj@@H@Z 004061b0 f OpenGLSettings.obj
 0001:000051e0       ?GotoSet@ClassesObj@@QAEAAVStoreObj@@AAVSystemObj@@W4NavCtrl@@H@Z 004061e0 f OpenGLSettings.obj
 0001:00005210       ?DisConnect@ClassesObj@@QAE?AW4T_F@@AAVSystemObj@@H@Z 00406210 f OpenGLSettings.obj
 0001:00005240       ?Set@ClassesObj@@QAEHAAVSystemObj@@@Z 00406240 f OpenGLSettings.obj
 0001:00005260       ??6ClassesObj@@QAEAAVSystemObj@@AAV1@@Z 00406260 f OpenGLSettings.obj
 0001:00005290       ?MemberUsingSet@ClassesObj@@QAEAAVSystemObj@@AAV2@H@Z 00406290 f OpenGLSettings.obj
 0001:000052c0       ?Connect@ClassesObj@@QAE?AW4T_F@@AAV1@H@Z 004062c0 f OpenGLSettings.obj
 0001:000052f0       ?GotoSet@ClassesObj@@QAEAAVStoreObj@@AAV1@W4NavCtrl@@H@Z 004062f0 f OpenGLSettings.obj
 0001:00005320       ?DisConnect@ClassesObj@@QAE?AW4T_F@@AAV1@H@Z 00406320 f OpenGLSettings.obj
 0001:00005350       ?Set@ClassesObj@@QAEHAAV1@@Z 00406350 f OpenGLSettings.obj
 0001:00005370       ??6ClassesObj@@QAEAAV0@AAV0@@Z 00406370 f OpenGLSettings.obj
 0001:000053a0       ?MemberUsingSet@ClassesObj@@QAEAAV1@AAV1@H@Z 004063a0 f OpenGLSettings.obj
 0001:000053d0       ?Connect@ClassesObj@@QAE?AW4T_F@@AAVTransformObj@@H@Z 004063d0 f OpenGLSettings.obj
 0001:00005400       ?GotoSet@ClassesObj@@QAEAAVStoreObj@@AAVTransformObj@@W4NavCtrl@@H@Z 00406400 f OpenGLSettings.obj
 0001:00005430       ?DisConnect@ClassesObj@@QAE?AW4T_F@@AAVTransformObj@@H@Z 00406430 f OpenGLSettings.obj
 0001:00005460       ?Set@ClassesObj@@QAEHAAVTransformObj@@@Z 00406460 f OpenGLSettings.obj
 0001:00005480       ??6ClassesObj@@QAEAAVTransformObj@@AAV1@@Z 00406480 f OpenGLSettings.obj
 0001:000054b0       ?MemberUsingSet@ClassesObj@@QAEAAVTransformObj@@AAV2@H@Z 004064b0 f OpenGLSettings.obj
 0001:000054e0       ?Connect@ClassesObj@@QAE?AW4T_F@@AAVGroupsObj@@H@Z 004064e0 f OpenGLSettings.obj
 0001:00005510       ?GotoSet@ClassesObj@@QAEAAVStoreObj@@AAVGroupsObj@@W4NavCtrl@@H@Z 00406510 f OpenGLSettings.obj
 0001:00005540       ?DisConnect@ClassesObj@@QAE?AW4T_F@@AAVGroupsObj@@H@Z 00406540 f OpenGLSettings.obj
 0001:00005570       ?Set@ClassesObj@@QAEHAAVGroupsObj@@@Z 00406570 f OpenGLSettings.obj
 0001:00005590       ??6ClassesObj@@QAEAAVGroupsObj@@AAV1@@Z 00406590 f OpenGLSettings.obj
 0001:000055c0       ?MemberUsingSet@ClassesObj@@QAEAAVGroupsObj@@AAV2@H@Z 004065c0 f OpenGLSettings.obj
 0001:000055f0       ?Connect@ClassesObj@@QAE?AW4T_F@@AAVPropertiesObj@@H@Z 004065f0 f OpenGLSettings.obj
 0001:00005620       ?GotoSet@ClassesObj@@QAEAAVStoreObj@@AAVPropertiesObj@@W4NavCtrl@@H@Z 00406620 f OpenGLSettings.obj
 0001:00005650       ?DisConnect@ClassesObj@@QAE?AW4T_F@@AAVPropertiesObj@@H@Z 00406650 f OpenGLSettings.obj
 0001:00005680       ?Set@ClassesObj@@QAEHAAVPropertiesObj@@@Z 00406680 f OpenGLSettings.obj
 0001:000056a0       ??6ClassesObj@@QAEAAVPropertiesObj@@AAV1@@Z 004066a0 f OpenGLSettings.obj
 0001:000056d0       ?MemberUsingSet@ClassesObj@@QAEAAVPropertiesObj@@AAV2@H@Z 004066d0 f OpenGLSettings.obj
 0001:00005700       ??4ClassesObj@@QAEAAV0@AAV0@@Z 00406700 f OpenGLSettings.obj
 0001:00005760       ??_GClassesObj@@UAEPAXI@Z  00406760 f OpenGLSettings.obj
 0001:000057a0       ??_EClassesObj@@UAEPAXI@Z  004067a0 f OpenGLSettings.obj
 0001:00005820       ??0GroupsObj@@QAE@XZ       00406820 f OpenGLSettings.obj
 0001:000058a0       ??0GroupsObj@@QAE@AAVKeyObj@@@Z 004068a0 f OpenGLSettings.obj
 0001:00005920       ??1GroupsObj@@UAE@XZ       00406920 f OpenGLSettings.obj
 0001:00005990       ?RecType@GroupsObj@@UAEHXZ 00406990 f OpenGLSettings.obj
 0001:000059b0       ?RecName@GroupsObj@@UAEPADXZ 004069b0 f OpenGLSettings.obj
 0001:000059d0       ?RecData@GroupsObj@@UAEPAXXZ 004069d0 f OpenGLSettings.obj
 0001:000059f0       ?RecDataSize@GroupsObj@@QAEJXZ 004069f0 f OpenGLSettings.obj
 0001:00005a10       ?_GetDb@GroupsObj@@UAEPAVVistaDb@@XZ 00406a10 f OpenGLSettings.obj
 0001:00005a30       ??AGroupsObj@@QAEAAV0@W4NavCtrl@@@Z 00406a30 f OpenGLSettings.obj
 0001:00005a60       ??AGroupsObj@@QAEAAV0@AAVKeyObj@@@Z 00406a60 f OpenGLSettings.obj
 0001:00005a90       ??AGroupsObj@@QAEAAV0@AAVDbAddr@@@Z 00406a90 f OpenGLSettings.obj
 0001:00005ac0       ??EGroupsObj@@QAEAAV0@XZ   00406ac0 f OpenGLSettings.obj
 0001:00005ae0       ??FGroupsObj@@QAEAAV0@XZ   00406ae0 f OpenGLSettings.obj
 0001:00005b00       ??EGroupsObj@@QAEAAV0@H@Z  00406b00 f OpenGLSettings.obj
 0001:00005b20       ??FGroupsObj@@QAEAAV0@H@Z  00406b20 f OpenGLSettings.obj
 0001:00005b40       ??5GroupsObj@@QAEAAVClassesObj@@AAV1@@Z 00406b40 f OpenGLSettings.obj
 0001:00005b70       ?OwnerUsingSet@GroupsObj@@QAEAAVClassesObj@@AAV2@H@Z 00406b70 f OpenGLSettings.obj
 0001:00005ba0       ?Members@GroupsObj@@QAEJAAVClassesObj@@H@Z 00406ba0 f OpenGLSettings.obj
 0001:00005bd0       ??0GroupsObj@@QAE@AAV0@@Z  00406bd0 f OpenGLSettings.obj
 0001:00005c80       ??4GroupsObj@@QAEAAV0@AAV0@@Z 00406c80 f OpenGLSettings.obj
 0001:00005ce0       ??_GGroupsObj@@UAEPAXI@Z   00406ce0 f OpenGLSettings.obj
 0001:00005d20       ??_EGroupsObj@@UAEPAXI@Z   00406d20 f OpenGLSettings.obj
 0001:00005d90       ??0PropertiesObj@@QAE@XZ   00406d90 f OpenGLSettings.obj
 0001:00005e10       ??1PropertiesObj@@UAE@XZ   00406e10 f OpenGLSettings.obj
 0001:00005e80       ?RecType@PropertiesObj@@UAEHXZ 00406e80 f OpenGLSettings.obj
 0001:00005ea0       ?RecName@PropertiesObj@@UAEPADXZ 00406ea0 f OpenGLSettings.obj
 0001:00005ec0       ?RecData@PropertiesObj@@UAEPAXXZ 00406ec0 f OpenGLSettings.obj
 0001:00005ee0       ?RecDataSize@PropertiesObj@@QAEJXZ 00406ee0 f OpenGLSettings.obj
 0001:00005f00       ?_GetDb@PropertiesObj@@UAEPAVVistaDb@@XZ 00406f00 f OpenGLSettings.obj
 0001:00005f20       ??APropertiesObj@@QAEAAV0@W4NavCtrl@@@Z 00406f20 f OpenGLSettings.obj
 0001:00005f50       ??APropertiesObj@@QAEAAV0@AAVKeyObj@@@Z 00406f50 f OpenGLSettings.obj
 0001:00005f80       ??APropertiesObj@@QAEAAV0@AAVDbAddr@@@Z 00406f80 f OpenGLSettings.obj
 0001:00005fb0       ??EPropertiesObj@@QAEAAV0@XZ 00406fb0 f OpenGLSettings.obj
 0001:00005fd0       ??FPropertiesObj@@QAEAAV0@XZ 00406fd0 f OpenGLSettings.obj
 0001:00005ff0       ??EPropertiesObj@@QAEAAV0@H@Z 00406ff0 f OpenGLSettings.obj
 0001:00006010       ??FPropertiesObj@@QAEAAV0@H@Z 00407010 f OpenGLSettings.obj
 0001:00006030       ??5PropertiesObj@@QAEAAVClassesObj@@AAV1@@Z 00407030 f OpenGLSettings.obj
 0001:00006060       ?OwnerUsingSet@PropertiesObj@@QAEAAVClassesObj@@AAV2@H@Z 00407060 f OpenGLSettings.obj
 0001:00006090       ?Members@PropertiesObj@@QAEJAAVClassesObj@@H@Z 00407090 f OpenGLSettings.obj
 0001:000060c0       ??0PropertiesObj@@QAE@AAV0@@Z 004070c0 f OpenGLSettings.obj
 0001:00006170       ??4PropertiesObj@@QAEAAV0@AAV0@@Z 00407170 f OpenGLSettings.obj
 0001:000061d0       ??_GPropertiesObj@@UAEPAXI@Z 004071d0 f OpenGLSettings.obj
 0001:00006210       ??_EPropertiesObj@@UAEPAXI@Z 00407210 f OpenGLSettings.obj
 0001:00006280       ??0ElementObj@@QAE@XZ      00407280 f OpenGLSettings.obj
 0001:00006300       ?RecData@ElementObj@@UAEPAXXZ 00407300 f OpenGLSettings.obj
 0001:00006320       ?_GetDb@ElementObj@@UAEPAVVistaDb@@XZ 00407320 f OpenGLSettings.obj
 0001:00006340       ??0ElementObj@@QAE@AAV0@@Z 00407340 f OpenGLSettings.obj
 0001:000063e0       ??4ElementObj@@QAEAAV0@AAV0@@Z 004073e0 f OpenGLSettings.obj
 0001:00006450       ??1ElementObj@@UAE@XZ      00407450 f OpenGLSettings.obj
 0001:000064b0       ??_GElementObj@@UAEPAXI@Z  004074b0 f OpenGLSettings.obj
 0001:000064f0       ??_EElementObj@@UAEPAXI@Z  004074f0 f OpenGLSettings.obj
 0001:00006560       ??0BoxObj@@QAE@XZ          00407560 f OpenGLSettings.obj
 0001:000065d0       ??1BoxObj@@UAE@XZ          004075d0 f OpenGLSettings.obj
 0001:00006640       ?RecType@BoxObj@@UAEHXZ    00407640 f OpenGLSettings.obj
 0001:00006660       ?RecName@BoxObj@@UAEPADXZ  00407660 f OpenGLSettings.obj
 0001:00006680       ?RecDataSize@BoxObj@@UAEJXZ 00407680 f OpenGLSettings.obj
 0001:000066a0       ?_GetDb@BoxObj@@UAEPAVVistaDb@@XZ 004076a0 f OpenGLSettings.obj
 0001:000066c0       ??ABoxObj@@QAEAAV0@W4NavCtrl@@@Z 004076c0 f OpenGLSettings.obj
 0001:000066f0       ??ABoxObj@@QAEAAV0@AAVKeyObj@@@Z 004076f0 f OpenGLSettings.obj
 0001:00006720       ??ABoxObj@@QAEAAV0@AAVDbAddr@@@Z 00407720 f OpenGLSettings.obj
 0001:00006750       ??EBoxObj@@QAEAAV0@XZ      00407750 f OpenGLSettings.obj
 0001:00006770       ??FBoxObj@@QAEAAV0@XZ      00407770 f OpenGLSettings.obj
 0001:00006790       ??EBoxObj@@QAEAAV0@H@Z     00407790 f OpenGLSettings.obj
 0001:000067b0       ??FBoxObj@@QAEAAV0@H@Z     004077b0 f OpenGLSettings.obj
 0001:000067d0       ?Connect@BoxObj@@QAE?AW4T_F@@AAVClassesObj@@H@Z 004077d0 f OpenGLSettings.obj
 0001:00006800       ?GotoSet@BoxObj@@QAEAAVStoreObj@@AAVClassesObj@@W4NavCtrl@@H@Z 00407800 f OpenGLSettings.obj
 0001:00006830       ?DisConnect@BoxObj@@QAE?AW4T_F@@AAVClassesObj@@H@Z 00407830 f OpenGLSettings.obj
 0001:00006860       ?Set@BoxObj@@QAEHAAVClassesObj@@@Z 00407860 f OpenGLSettings.obj
 0001:00006880       ??6BoxObj@@QAEAAVClassesObj@@AAV1@@Z 00407880 f OpenGLSettings.obj
 0001:000068b0       ?MemberUsingSet@BoxObj@@QAEAAVClassesObj@@AAV2@H@Z 004078b0 f OpenGLSettings.obj
 0001:000068e0       ??0BoxObj@@QAE@AAV0@@Z     004078e0 f OpenGLSettings.obj
 0001:00006990       ??4BoxObj@@QAEAAV0@AAV0@@Z 00407990 f OpenGLSettings.obj
 0001:000069f0       ??_GBoxObj@@UAEPAXI@Z      004079f0 f OpenGLSettings.obj
 0001:00006a30       ??_EBoxObj@@UAEPAXI@Z      00407a30 f OpenGLSettings.obj
 0001:00006aa0       ??0CirTorusObj@@QAE@XZ     00407aa0 f OpenGLSettings.obj
 0001:00006b10       ??1CirTorusObj@@UAE@XZ     00407b10 f OpenGLSettings.obj
 0001:00006b80       ?RecType@CirTorusObj@@UAEHXZ 00407b80 f OpenGLSettings.obj
 0001:00006ba0       ?RecName@CirTorusObj@@UAEPADXZ 00407ba0 f OpenGLSettings.obj
 0001:00006bc0       ?RecDataSize@CirTorusObj@@UAEJXZ 00407bc0 f OpenGLSettings.obj
 0001:00006be0       ?_GetDb@CirTorusObj@@UAEPAVVistaDb@@XZ 00407be0 f OpenGLSettings.obj
 0001:00006c00       ??ACirTorusObj@@QAEAAV0@W4NavCtrl@@@Z 00407c00 f OpenGLSettings.obj
 0001:00006c30       ??ACirTorusObj@@QAEAAV0@AAVKeyObj@@@Z 00407c30 f OpenGLSettings.obj
 0001:00006c60       ??ACirTorusObj@@QAEAAV0@AAVDbAddr@@@Z 00407c60 f OpenGLSettings.obj
 0001:00006c90       ??ECirTorusObj@@QAEAAV0@XZ 00407c90 f OpenGLSettings.obj
 0001:00006cb0       ??FCirTorusObj@@QAEAAV0@XZ 00407cb0 f OpenGLSettings.obj
 0001:00006cd0       ??ECirTorusObj@@QAEAAV0@H@Z 00407cd0 f OpenGLSettings.obj
 0001:00006cf0       ??FCirTorusObj@@QAEAAV0@H@Z 00407cf0 f OpenGLSettings.obj
 0001:00006d10       ?Connect@CirTorusObj@@QAE?AW4T_F@@AAVClassesObj@@H@Z 00407d10 f OpenGLSettings.obj
 0001:00006d40       ?GotoSet@CirTorusObj@@QAEAAVStoreObj@@AAVClassesObj@@W4NavCtrl@@H@Z 00407d40 f OpenGLSettings.obj
 0001:00006d70       ?DisConnect@CirTorusObj@@QAE?AW4T_F@@AAVClassesObj@@H@Z 00407d70 f OpenGLSettings.obj
 0001:00006da0       ?Set@CirTorusObj@@QAEHAAVClassesObj@@@Z 00407da0 f OpenGLSettings.obj
 0001:00006dc0       ??6CirTorusObj@@QAEAAVClassesObj@@AAV1@@Z 00407dc0 f OpenGLSettings.obj
 0001:00006df0       ?MemberUsingSet@CirTorusObj@@QAEAAVClassesObj@@AAV2@H@Z 00407df0 f OpenGLSettings.obj
 0001:00006e20       ??0CirTorusObj@@QAE@AAV0@@Z 00407e20 f OpenGLSettings.obj
 0001:00006ed0       ??4CirTorusObj@@QAEAAV0@AAV0@@Z 00407ed0 f OpenGLSettings.obj
 0001:00006f30       ??_GCirTorusObj@@UAEPAXI@Z 00407f30 f OpenGLSettings.obj
 0001:00006f70       ??_ECirTorusObj@@UAEPAXI@Z 00407f70 f OpenGLSettings.obj
 0001:00006fe0       ??0ConeObj@@QAE@XZ         00407fe0 f OpenGLSettings.obj
 0001:00007050       ??1ConeObj@@UAE@XZ         00408050 f OpenGLSettings.obj
 0001:000070c0       ?RecType@ConeObj@@UAEHXZ   004080c0 f OpenGLSettings.obj
 0001:000070e0       ?RecName@ConeObj@@UAEPADXZ 004080e0 f OpenGLSettings.obj
 0001:00007100       ?RecDataSize@ConeObj@@UAEJXZ 00408100 f OpenGLSettings.obj
 0001:00007120       ?_GetDb@ConeObj@@UAEPAVVistaDb@@XZ 00408120 f OpenGLSettings.obj
 0001:00007140       ??AConeObj@@QAEAAV0@W4NavCtrl@@@Z 00408140 f OpenGLSettings.obj
 0001:00007170       ??AConeObj@@QAEAAV0@AAVKeyObj@@@Z 00408170 f OpenGLSettings.obj
 0001:000071a0       ??AConeObj@@QAEAAV0@AAVDbAddr@@@Z 004081a0 f OpenGLSettings.obj
 0001:000071d0       ??EConeObj@@QAEAAV0@XZ     004081d0 f OpenGLSettings.obj
 0001:000071f0       ??FConeObj@@QAEAAV0@XZ     004081f0 f OpenGLSettings.obj
 0001:00007210       ??EConeObj@@QAEAAV0@H@Z    00408210 f OpenGLSettings.obj
 0001:00007230       ??FConeObj@@QAEAAV0@H@Z    00408230 f OpenGLSettings.obj
 0001:00007250       ?Connect@ConeObj@@QAE?AW4T_F@@AAVClassesObj@@H@Z 00408250 f OpenGLSettings.obj
 0001:00007280       ?GotoSet@ConeObj@@QAEAAVStoreObj@@AAVClassesObj@@W4NavCtrl@@H@Z 00408280 f OpenGLSettings.obj
 0001:000072b0       ?DisConnect@ConeObj@@QAE?AW4T_F@@AAVClassesObj@@H@Z 004082b0 f OpenGLSettings.obj
 0001:000072e0       ?Set@ConeObj@@QAEHAAVClassesObj@@@Z 004082e0 f OpenGLSettings.obj
 0001:00007300       ??6ConeObj@@QAEAAVClassesObj@@AAV1@@Z 00408300 f OpenGLSettings.obj
 0001:00007330       ?MemberUsingSet@ConeObj@@QAEAAVClassesObj@@AAV2@H@Z 00408330 f OpenGLSettings.obj
 0001:00007360       ??0ConeObj@@QAE@AAV0@@Z    00408360 f OpenGLSettings.obj
 0001:00007410       ??4ConeObj@@QAEAAV0@AAV0@@Z 00408410 f OpenGLSettings.obj
 0001:00007470       ??_GConeObj@@UAEPAXI@Z     00408470 f OpenGLSettings.obj
 0001:000074b0       ??_EConeObj@@UAEPAXI@Z     004084b0 f OpenGLSettings.obj
 0001:00007520       ??0CylinderObj@@QAE@XZ     00408520 f OpenGLSettings.obj
 0001:00007590       ??1CylinderObj@@UAE@XZ     00408590 f OpenGLSettings.obj
 0001:00007600       ?RecType@CylinderObj@@UAEHXZ 00408600 f OpenGLSettings.obj
 0001:00007620       ?RecName@CylinderObj@@UAEPADXZ 00408620 f OpenGLSettings.obj
 0001:00007640       ?RecDataSize@CylinderObj@@UAEJXZ 00408640 f OpenGLSettings.obj
 0001:00007660       ?_GetDb@CylinderObj@@UAEPAVVistaDb@@XZ 00408660 f OpenGLSettings.obj
 0001:00007680       ??ACylinderObj@@QAEAAV0@W4NavCtrl@@@Z 00408680 f OpenGLSettings.obj
 0001:000076b0       ??ACylinderObj@@QAEAAV0@AAVKeyObj@@@Z 004086b0 f OpenGLSettings.obj
 0001:000076e0       ??ACylinderObj@@QAEAAV0@AAVDbAddr@@@Z 004086e0 f OpenGLSettings.obj
 0001:00007710       ??ECylinderObj@@QAEAAV0@XZ 00408710 f OpenGLSettings.obj
 0001:00007730       ??FCylinderObj@@QAEAAV0@XZ 00408730 f OpenGLSettings.obj
 0001:00007750       ??ECylinderObj@@QAEAAV0@H@Z 00408750 f OpenGLSettings.obj
 0001:00007770       ??FCylinderObj@@QAEAAV0@H@Z 00408770 f OpenGLSettings.obj
 0001:00007790       ?Connect@CylinderObj@@QAE?AW4T_F@@AAVClassesObj@@H@Z 00408790 f OpenGLSettings.obj
 0001:000077c0       ?GotoSet@CylinderObj@@QAEAAVStoreObj@@AAVClassesObj@@W4NavCtrl@@H@Z 004087c0 f OpenGLSettings.obj
 0001:000077f0       ?DisConnect@CylinderObj@@QAE?AW4T_F@@AAVClassesObj@@H@Z 004087f0 f OpenGLSettings.obj
 0001:00007820       ?Set@CylinderObj@@QAEHAAVClassesObj@@@Z 00408820 f OpenGLSettings.obj
 0001:00007840       ??6CylinderObj@@QAEAAVClassesObj@@AAV1@@Z 00408840 f OpenGLSettings.obj
 0001:00007870       ?MemberUsingSet@CylinderObj@@QAEAAVClassesObj@@AAV2@H@Z 00408870 f OpenGLSettings.obj
 0001:000078a0       ??0CylinderObj@@QAE@AAV0@@Z 004088a0 f OpenGLSettings.obj
 0001:00007950       ??4CylinderObj@@QAEAAV0@AAV0@@Z 00408950 f OpenGLSettings.obj
 0001:000079b0       ??_GCylinderObj@@UAEPAXI@Z 004089b0 f OpenGLSettings.obj
 0001:000079f0       ??_ECylinderObj@@UAEPAXI@Z 004089f0 f OpenGLSettings.obj
 0001:00007a60       ??0RectTorusObj@@QAE@XZ    00408a60 f OpenGLSettings.obj
 0001:00007ad0       ??1RectTorusObj@@UAE@XZ    00408ad0 f OpenGLSettings.obj
 0001:00007b40       ?RecType@RectTorusObj@@UAEHXZ 00408b40 f OpenGLSettings.obj
 0001:00007b60       ?RecName@RectTorusObj@@UAEPADXZ 00408b60 f OpenGLSettings.obj
 0001:00007b80       ?RecDataSize@RectTorusObj@@UAEJXZ 00408b80 f OpenGLSettings.obj
 0001:00007ba0       ?_GetDb@RectTorusObj@@UAEPAVVistaDb@@XZ 00408ba0 f OpenGLSettings.obj
 0001:00007bc0       ??ARectTorusObj@@QAEAAV0@W4NavCtrl@@@Z 00408bc0 f OpenGLSettings.obj
 0001:00007bf0       ??ARectTorusObj@@QAEAAV0@AAVKeyObj@@@Z 00408bf0 f OpenGLSettings.obj
 0001:00007c20       ??ARectTorusObj@@QAEAAV0@AAVDbAddr@@@Z 00408c20 f OpenGLSettings.obj
 0001:00007c50       ??ERectTorusObj@@QAEAAV0@XZ 00408c50 f OpenGLSettings.obj
 0001:00007c70       ??FRectTorusObj@@QAEAAV0@XZ 00408c70 f OpenGLSettings.obj
 0001:00007c90       ??ERectTorusObj@@QAEAAV0@H@Z 00408c90 f OpenGLSettings.obj
 0001:00007cb0       ??FRectTorusObj@@QAEAAV0@H@Z 00408cb0 f OpenGLSettings.obj
 0001:00007cd0       ?Connect@RectTorusObj@@QAE?AW4T_F@@AAVClassesObj@@H@Z 00408cd0 f OpenGLSettings.obj
 0001:00007d00       ?GotoSet@RectTorusObj@@QAEAAVStoreObj@@AAVClassesObj@@W4NavCtrl@@H@Z 00408d00 f OpenGLSettings.obj
 0001:00007d30       ?DisConnect@RectTorusObj@@QAE?AW4T_F@@AAVClassesObj@@H@Z 00408d30 f OpenGLSettings.obj
 0001:00007d60       ?Set@RectTorusObj@@QAEHAAVClassesObj@@@Z 00408d60 f OpenGLSettings.obj
 0001:00007d80       ??6RectTorusObj@@QAEAAVClassesObj@@AAV1@@Z 00408d80 f OpenGLSettings.obj
 0001:00007db0       ?MemberUsingSet@RectTorusObj@@QAEAAVClassesObj@@AAV2@H@Z 00408db0 f OpenGLSettings.obj
 0001:00007de0       ??0RectTorusObj@@QAE@AAV0@@Z 00408de0 f OpenGLSettings.obj
 0001:00007e90       ??4RectTorusObj@@QAEAAV0@AAV0@@Z 00408e90 f OpenGLSettings.obj
 0001:00007ef0       ??_GRectTorusObj@@UAEPAXI@Z 00408ef0 f OpenGLSettings.obj
 0001:00007f30       ??_ERectTorusObj@@UAEPAXI@Z 00408f30 f OpenGLSettings.obj
 0001:00007fa0       ??0SphereObj@@QAE@XZ       00408fa0 f OpenGLSettings.obj
 0001:00008010       ??1SphereObj@@UAE@XZ       00409010 f OpenGLSettings.obj
 0001:00008080       ?RecType@SphereObj@@UAEHXZ 00409080 f OpenGLSettings.obj
 0001:000080a0       ?RecName@SphereObj@@UAEPADXZ 004090a0 f OpenGLSettings.obj
 0001:000080c0       ?RecDataSize@SphereObj@@UAEJXZ 004090c0 f OpenGLSettings.obj
 0001:000080e0       ?_GetDb@SphereObj@@UAEPAVVistaDb@@XZ 004090e0 f OpenGLSettings.obj
 0001:00008100       ??ASphereObj@@QAEAAV0@W4NavCtrl@@@Z 00409100 f OpenGLSettings.obj
 0001:00008130       ??ASphereObj@@QAEAAV0@AAVKeyObj@@@Z 00409130 f OpenGLSettings.obj
 0001:00008160       ??ASphereObj@@QAEAAV0@AAVDbAddr@@@Z 00409160 f OpenGLSettings.obj
 0001:00008190       ??ESphereObj@@QAEAAV0@XZ   00409190 f OpenGLSettings.obj
 0001:000081b0       ??FSphereObj@@QAEAAV0@XZ   004091b0 f OpenGLSettings.obj
 0001:000081d0       ??ESphereObj@@QAEAAV0@H@Z  004091d0 f OpenGLSettings.obj
 0001:000081f0       ??FSphereObj@@QAEAAV0@H@Z  004091f0 f OpenGLSettings.obj
 0001:00008210       ?Connect@SphereObj@@QAE?AW4T_F@@AAVClassesObj@@H@Z 00409210 f OpenGLSettings.obj
 0001:00008240       ?GotoSet@SphereObj@@QAEAAVStoreObj@@AAVClassesObj@@W4NavCtrl@@H@Z 00409240 f OpenGLSettings.obj
 0001:00008270       ?DisConnect@SphereObj@@QAE?AW4T_F@@AAVClassesObj@@H@Z 00409270 f OpenGLSettings.obj
 0001:000082a0       ?Set@SphereObj@@QAEHAAVClassesObj@@@Z 004092a0 f OpenGLSettings.obj
 0001:000082c0       ??6SphereObj@@QAEAAVClassesObj@@AAV1@@Z 004092c0 f OpenGLSettings.obj
 0001:000082f0       ?MemberUsingSet@SphereObj@@QAEAAVClassesObj@@AAV2@H@Z 004092f0 f OpenGLSettings.obj
 0001:00008320       ??0SphereObj@@QAE@AAV0@@Z  00409320 f OpenGLSettings.obj
 0001:000083d0       ??4SphereObj@@QAEAAV0@AAV0@@Z 004093d0 f OpenGLSettings.obj
 0001:00008430       ??_GSphereObj@@UAEPAXI@Z   00409430 f OpenGLSettings.obj
 0001:00008470       ??_ESphereObj@@UAEPAXI@Z   00409470 f OpenGLSettings.obj
 0001:000084e0       ??0PyramidObj@@QAE@XZ      004094e0 f OpenGLSettings.obj
 0001:00008550       ??1PyramidObj@@UAE@XZ      00409550 f OpenGLSettings.obj
 0001:000085c0       ?RecType@PyramidObj@@UAEHXZ 004095c0 f OpenGLSettings.obj
 0001:000085e0       ?RecName@PyramidObj@@UAEPADXZ 004095e0 f OpenGLSettings.obj
 0001:00008600       ?RecDataSize@PyramidObj@@UAEJXZ 00409600 f OpenGLSettings.obj
 0001:00008620       ?_GetDb@PyramidObj@@UAEPAVVistaDb@@XZ 00409620 f OpenGLSettings.obj
 0001:00008640       ??APyramidObj@@QAEAAV0@W4NavCtrl@@@Z 00409640 f OpenGLSettings.obj
 0001:00008670       ??APyramidObj@@QAEAAV0@AAVKeyObj@@@Z 00409670 f OpenGLSettings.obj
 0001:000086a0       ??APyramidObj@@QAEAAV0@AAVDbAddr@@@Z 004096a0 f OpenGLSettings.obj
 0001:000086d0       ??EPyramidObj@@QAEAAV0@XZ  004096d0 f OpenGLSettings.obj
 0001:000086f0       ??FPyramidObj@@QAEAAV0@XZ  004096f0 f OpenGLSettings.obj
 0001:00008710       ??EPyramidObj@@QAEAAV0@H@Z 00409710 f OpenGLSettings.obj
 0001:00008730       ??FPyramidObj@@QAEAAV0@H@Z 00409730 f OpenGLSettings.obj
 0001:00008750       ?Connect@PyramidObj@@QAE?AW4T_F@@AAVClassesObj@@H@Z 00409750 f OpenGLSettings.obj
 0001:00008780       ?GotoSet@PyramidObj@@QAEAAVStoreObj@@AAVClassesObj@@W4NavCtrl@@H@Z 00409780 f OpenGLSettings.obj
 0001:000087b0       ?DisConnect@PyramidObj@@QAE?AW4T_F@@AAVClassesObj@@H@Z 004097b0 f OpenGLSettings.obj
 0001:000087e0       ?Set@PyramidObj@@QAEHAAVClassesObj@@@Z 004097e0 f OpenGLSettings.obj
 0001:00008800       ??6PyramidObj@@QAEAAVClassesObj@@AAV1@@Z 00409800 f OpenGLSettings.obj
 0001:00008830       ?MemberUsingSet@PyramidObj@@QAEAAVClassesObj@@AAV2@H@Z 00409830 f OpenGLSettings.obj
 0001:00008860       ??0PyramidObj@@QAE@AAV0@@Z 00409860 f OpenGLSettings.obj
 0001:00008910       ??4PyramidObj@@QAEAAV0@AAV0@@Z 00409910 f OpenGLSettings.obj
 0001:00008970       ??_GPyramidObj@@UAEPAXI@Z  00409970 f OpenGLSettings.obj
 0001:000089b0       ??_EPyramidObj@@UAEPAXI@Z  004099b0 f OpenGLSettings.obj
 0001:00008a20       ??0ComplexObj@@QAE@XZ      00409a20 f OpenGLSettings.obj
 0001:00008a90       ??1ComplexObj@@UAE@XZ      00409a90 f OpenGLSettings.obj
 0001:00008b00       ?RecType@ComplexObj@@UAEHXZ 00409b00 f OpenGLSettings.obj
 0001:00008b20       ?RecName@ComplexObj@@UAEPADXZ 00409b20 f OpenGLSettings.obj
 0001:00008b40       ?RecDataSize@ComplexObj@@UAEJXZ 00409b40 f OpenGLSettings.obj
 0001:00008b60       ?_GetDb@ComplexObj@@UAEPAVVistaDb@@XZ 00409b60 f OpenGLSettings.obj
 0001:00008b80       ??AComplexObj@@QAEAAV0@W4NavCtrl@@@Z 00409b80 f OpenGLSettings.obj
 0001:00008bb0       ??AComplexObj@@QAEAAV0@AAVKeyObj@@@Z 00409bb0 f OpenGLSettings.obj
 0001:00008be0       ??AComplexObj@@QAEAAV0@AAVDbAddr@@@Z 00409be0 f OpenGLSettings.obj
 0001:00008c10       ??EComplexObj@@QAEAAV0@XZ  00409c10 f OpenGLSettings.obj
 0001:00008c30       ??FComplexObj@@QAEAAV0@XZ  00409c30 f OpenGLSettings.obj
 0001:00008c50       ??EComplexObj@@QAEAAV0@H@Z 00409c50 f OpenGLSettings.obj
 0001:00008c70       ??FComplexObj@@QAEAAV0@H@Z 00409c70 f OpenGLSettings.obj
 0001:00008c90       ??5ComplexObj@@QAEAAVFacesObj@@AAV1@@Z 00409c90 f OpenGLSettings.obj
 0001:00008cc0       ?OwnerUsingSet@ComplexObj@@QAEAAVFacesObj@@AAV2@H@Z 00409cc0 f OpenGLSettings.obj
 0001:00008cf0       ?Members@ComplexObj@@QAEJAAVFacesObj@@H@Z 00409cf0 f OpenGLSettings.obj
 0001:00008d20       ?Connect@ComplexObj@@QAE?AW4T_F@@AAVClassesObj@@H@Z 00409d20 f OpenGLSettings.obj
 0001:00008d50       ?GotoSet@ComplexObj@@QAEAAVStoreObj@@AAVClassesObj@@W4NavCtrl@@H@Z 00409d50 f OpenGLSettings.obj
 0001:00008d80       ?DisConnect@ComplexObj@@QAE?AW4T_F@@AAVClassesObj@@H@Z 00409d80 f OpenGLSettings.obj
 0001:00008db0       ?Set@ComplexObj@@QAEHAAVClassesObj@@@Z 00409db0 f OpenGLSettings.obj
 0001:00008dd0       ??6ComplexObj@@QAEAAVClassesObj@@AAV1@@Z 00409dd0 f OpenGLSettings.obj
 0001:00008e00       ?MemberUsingSet@ComplexObj@@QAEAAVClassesObj@@AAV2@H@Z 00409e00 f OpenGLSettings.obj
 0001:00008e30       ??0ComplexObj@@QAE@AAV0@@Z 00409e30 f OpenGLSettings.obj
 0001:00008ee0       ??4ComplexObj@@QAEAAV0@AAV0@@Z 00409ee0 f OpenGLSettings.obj
 0001:00008f40       ??_GComplexObj@@UAEPAXI@Z  00409f40 f OpenGLSettings.obj
 0001:00008f80       ??_EComplexObj@@UAEPAXI@Z  00409f80 f OpenGLSettings.obj
 0001:00008ff0       ??0FacesObj@@QAE@XZ        00409ff0 f OpenGLSettings.obj
 0001:00009060       ??1FacesObj@@UAE@XZ        0040a060 f OpenGLSettings.obj
 0001:000090d0       ?RecType@FacesObj@@UAEHXZ  0040a0d0 f OpenGLSettings.obj
 0001:000090f0       ?RecName@FacesObj@@UAEPADXZ 0040a0f0 f OpenGLSettings.obj
 0001:00009110       ?RecDataSize@FacesObj@@UAEJXZ 0040a110 f OpenGLSettings.obj
 0001:00009130       ?_GetDb@FacesObj@@UAEPAVVistaDb@@XZ 0040a130 f OpenGLSettings.obj
 0001:00009150       ??AFacesObj@@QAEAAV0@W4NavCtrl@@@Z 0040a150 f OpenGLSettings.obj
 0001:00009180       ??AFacesObj@@QAEAAV0@AAVKeyObj@@@Z 0040a180 f OpenGLSettings.obj
 0001:000091b0       ??AFacesObj@@QAEAAV0@AAVDbAddr@@@Z 0040a1b0 f OpenGLSettings.obj
 0001:000091e0       ??EFacesObj@@QAEAAV0@XZ    0040a1e0 f OpenGLSettings.obj
 0001:00009200       ??FFacesObj@@QAEAAV0@XZ    0040a200 f OpenGLSettings.obj
 0001:00009220       ??EFacesObj@@QAEAAV0@H@Z   0040a220 f OpenGLSettings.obj
 0001:00009240       ??FFacesObj@@QAEAAV0@H@Z   0040a240 f OpenGLSettings.obj
 0001:00009260       ??5FacesObj@@QAEAAVVerticesObj@@AAV1@@Z 0040a260 f OpenGLSettings.obj
 0001:00009290       ?OwnerUsingSet@FacesObj@@QAEAAVVerticesObj@@AAV2@H@Z 0040a290 f OpenGLSettings.obj
 0001:000092c0       ?Members@FacesObj@@QAEJAAVVerticesObj@@H@Z 0040a2c0 f OpenGLSettings.obj
 0001:000092f0       ?Connect@FacesObj@@QAE?AW4T_F@@AAVComplexObj@@H@Z 0040a2f0 f OpenGLSettings.obj
 0001:00009320       ?GotoSet@FacesObj@@QAEAAVStoreObj@@AAVComplexObj@@W4NavCtrl@@H@Z 0040a320 f OpenGLSettings.obj
 0001:00009350       ?DisConnect@FacesObj@@QAE?AW4T_F@@AAVComplexObj@@H@Z 0040a350 f OpenGLSettings.obj
 0001:00009380       ?Set@FacesObj@@QAEHAAVComplexObj@@@Z 0040a380 f OpenGLSettings.obj
 0001:000093a0       ??6FacesObj@@QAEAAVComplexObj@@AAV1@@Z 0040a3a0 f OpenGLSettings.obj
 0001:000093d0       ?MemberUsingSet@FacesObj@@QAEAAVComplexObj@@AAV2@H@Z 0040a3d0 f OpenGLSettings.obj
 0001:00009400       ??0FacesObj@@QAE@AAV0@@Z   0040a400 f OpenGLSettings.obj
 0001:000094a0       ??4FacesObj@@QAEAAV0@AAV0@@Z 0040a4a0 f OpenGLSettings.obj
 0001:00009500       ??_GFacesObj@@UAEPAXI@Z    0040a500 f OpenGLSettings.obj
 0001:00009540       ??_EFacesObj@@UAEPAXI@Z    0040a540 f OpenGLSettings.obj
 0001:000095b0       ??0VerticesObj@@QAE@XZ     0040a5b0 f OpenGLSettings.obj
 0001:00009620       ??1VerticesObj@@UAE@XZ     0040a620 f OpenGLSettings.obj
 0001:00009690       ?RecType@VerticesObj@@UAEHXZ 0040a690 f OpenGLSettings.obj
 0001:000096b0       ?RecName@VerticesObj@@UAEPADXZ 0040a6b0 f OpenGLSettings.obj
 0001:000096d0       ?RecDataSize@VerticesObj@@UAEJXZ 0040a6d0 f OpenGLSettings.obj
 0001:000096f0       ?_GetDb@VerticesObj@@UAEPAVVistaDb@@XZ 0040a6f0 f OpenGLSettings.obj
 0001:00009710       ??AVerticesObj@@QAEAAV0@W4NavCtrl@@@Z 0040a710 f OpenGLSettings.obj
 0001:00009740       ??AVerticesObj@@QAEAAV0@AAVKeyObj@@@Z 0040a740 f OpenGLSettings.obj
 0001:00009770       ??AVerticesObj@@QAEAAV0@AAVDbAddr@@@Z 0040a770 f OpenGLSettings.obj
 0001:000097a0       ??EVerticesObj@@QAEAAV0@XZ 0040a7a0 f OpenGLSettings.obj
 0001:000097c0       ??FVerticesObj@@QAEAAV0@XZ 0040a7c0 f OpenGLSettings.obj
 0001:000097e0       ??EVerticesObj@@QAEAAV0@H@Z 0040a7e0 f OpenGLSettings.obj
 0001:00009800       ??FVerticesObj@@QAEAAV0@H@Z 0040a800 f OpenGLSettings.obj
 0001:00009820       ?Connect@VerticesObj@@QAE?AW4T_F@@AAVFacesObj@@H@Z 0040a820 f OpenGLSettings.obj
 0001:00009850       ?GotoSet@VerticesObj@@QAEAAVStoreObj@@AAVFacesObj@@W4NavCtrl@@H@Z 0040a850 f OpenGLSettings.obj
 0001:00009880       ?DisConnect@VerticesObj@@QAE?AW4T_F@@AAVFacesObj@@H@Z 0040a880 f OpenGLSettings.obj
 0001:000098b0       ?Set@VerticesObj@@QAEHAAVFacesObj@@@Z 0040a8b0 f OpenGLSettings.obj
 0001:000098d0       ??6VerticesObj@@QAEAAVFacesObj@@AAV1@@Z 0040a8d0 f OpenGLSettings.obj
 0001:00009900       ?MemberUsingSet@VerticesObj@@QAEAAVFacesObj@@AAV2@H@Z 0040a900 f OpenGLSettings.obj
 0001:00009930       ??0VerticesObj@@QAE@AAV0@@Z 0040a930 f OpenGLSettings.obj
 0001:000099e0       ??4VerticesObj@@QAEAAV0@AAV0@@Z 0040a9e0 f OpenGLSettings.obj
 0001:00009a40       ??_GVerticesObj@@UAEPAXI@Z 0040aa40 f OpenGLSettings.obj
 0001:00009a80       ??_EVerticesObj@@UAEPAXI@Z 0040aa80 f OpenGLSettings.obj
 0001:00009af0       ??0PointObj@@QAE@XZ        0040aaf0 f OpenGLSettings.obj
 0001:00009b60       ??1PointObj@@UAE@XZ        0040ab60 f OpenGLSettings.obj
 0001:00009bd0       ?RecType@PointObj@@UAEHXZ  0040abd0 f OpenGLSettings.obj
 0001:00009bf0       ?RecName@PointObj@@UAEPADXZ 0040abf0 f OpenGLSettings.obj
 0001:00009c10       ?RecDataSize@PointObj@@UAEJXZ 0040ac10 f OpenGLSettings.obj
 0001:00009c30       ?_GetDb@PointObj@@UAEPAVVistaDb@@XZ 0040ac30 f OpenGLSettings.obj
 0001:00009c50       ??APointObj@@QAEAAV0@W4NavCtrl@@@Z 0040ac50 f OpenGLSettings.obj
 0001:00009c80       ??APointObj@@QAEAAV0@AAVKeyObj@@@Z 0040ac80 f OpenGLSettings.obj
 0001:00009cb0       ??APointObj@@QAEAAV0@AAVDbAddr@@@Z 0040acb0 f OpenGLSettings.obj
 0001:00009ce0       ??EPointObj@@QAEAAV0@XZ    0040ace0 f OpenGLSettings.obj
 0001:00009d00       ??FPointObj@@QAEAAV0@XZ    0040ad00 f OpenGLSettings.obj
 0001:00009d20       ??EPointObj@@QAEAAV0@H@Z   0040ad20 f OpenGLSettings.obj
 0001:00009d40       ??FPointObj@@QAEAAV0@H@Z   0040ad40 f OpenGLSettings.obj
 0001:00009d60       ?Connect@PointObj@@QAE?AW4T_F@@AAVClassesObj@@H@Z 0040ad60 f OpenGLSettings.obj
 0001:00009d90       ?GotoSet@PointObj@@QAEAAVStoreObj@@AAVClassesObj@@W4NavCtrl@@H@Z 0040ad90 f OpenGLSettings.obj
 0001:00009dc0       ?DisConnect@PointObj@@QAE?AW4T_F@@AAVClassesObj@@H@Z 0040adc0 f OpenGLSettings.obj
 0001:00009df0       ?Set@PointObj@@QAEHAAVClassesObj@@@Z 0040adf0 f OpenGLSettings.obj
 0001:00009e10       ??6PointObj@@QAEAAVClassesObj@@AAV1@@Z 0040ae10 f OpenGLSettings.obj
 0001:00009e40       ?MemberUsingSet@PointObj@@QAEAAVClassesObj@@AAV2@H@Z 0040ae40 f OpenGLSettings.obj
 0001:00009e70       ??0PointObj@@QAE@AAV0@@Z   0040ae70 f OpenGLSettings.obj
 0001:00009f20       ??4PointObj@@QAEAAV0@AAV0@@Z 0040af20 f OpenGLSettings.obj
 0001:00009f80       ??_GPointObj@@UAEPAXI@Z    0040af80 f OpenGLSettings.obj
 0001:00009fc0       ??_EPointObj@@UAEPAXI@Z    0040afc0 f OpenGLSettings.obj
 0001:0000a030       ??0LineObj@@QAE@XZ         0040b030 f OpenGLSettings.obj
 0001:0000a0a0       ??1LineObj@@UAE@XZ         0040b0a0 f OpenGLSettings.obj
 0001:0000a110       ?RecType@LineObj@@UAEHXZ   0040b110 f OpenGLSettings.obj
 0001:0000a130       ?RecName@LineObj@@UAEPADXZ 0040b130 f OpenGLSettings.obj
 0001:0000a150       ?RecDataSize@LineObj@@UAEJXZ 0040b150 f OpenGLSettings.obj
 0001:0000a170       ?_GetDb@LineObj@@UAEPAVVistaDb@@XZ 0040b170 f OpenGLSettings.obj
 0001:0000a190       ??ALineObj@@QAEAAV0@W4NavCtrl@@@Z 0040b190 f OpenGLSettings.obj
 0001:0000a1c0       ??ALineObj@@QAEAAV0@AAVKeyObj@@@Z 0040b1c0 f OpenGLSettings.obj
 0001:0000a1f0       ??ALineObj@@QAEAAV0@AAVDbAddr@@@Z 0040b1f0 f OpenGLSettings.obj
 0001:0000a220       ??ELineObj@@QAEAAV0@XZ     0040b220 f OpenGLSettings.obj
 0001:0000a240       ??FLineObj@@QAEAAV0@XZ     0040b240 f OpenGLSettings.obj
 0001:0000a260       ??ELineObj@@QAEAAV0@H@Z    0040b260 f OpenGLSettings.obj
 0001:0000a280       ??FLineObj@@QAEAAV0@H@Z    0040b280 f OpenGLSettings.obj
 0001:0000a2a0       ?Connect@LineObj@@QAE?AW4T_F@@AAVClassesObj@@H@Z 0040b2a0 f OpenGLSettings.obj
 0001:0000a2d0       ?GotoSet@LineObj@@QAEAAVStoreObj@@AAVClassesObj@@W4NavCtrl@@H@Z 0040b2d0 f OpenGLSettings.obj
 0001:0000a300       ?DisConnect@LineObj@@QAE?AW4T_F@@AAVClassesObj@@H@Z 0040b300 f OpenGLSettings.obj
 0001:0000a330       ?Set@LineObj@@QAEHAAVClassesObj@@@Z 0040b330 f OpenGLSettings.obj
 0001:0000a350       ??6LineObj@@QAEAAVClassesObj@@AAV1@@Z 0040b350 f OpenGLSettings.obj
 0001:0000a380       ?MemberUsingSet@LineObj@@QAEAAVClassesObj@@AAV2@H@Z 0040b380 f OpenGLSettings.obj
 0001:0000a3b0       ??0LineObj@@QAE@AAV0@@Z    0040b3b0 f OpenGLSettings.obj
 0001:0000a460       ??4LineObj@@QAEAAV0@AAV0@@Z 0040b460 f OpenGLSettings.obj
 0001:0000a4c0       ??_GLineObj@@UAEPAXI@Z     0040b4c0 f OpenGLSettings.obj
 0001:0000a500       ??_ELineObj@@UAEPAXI@Z     0040b500 f OpenGLSettings.obj
 0001:0000a570       ??0SystemObj@@QAE@XZ       0040b570 f OpenGLSettings.obj
 0001:0000a5f0       ?RecType@SystemObj@@UAEHXZ 0040b5f0 f OpenGLSettings.obj
 0001:0000a610       ?RecName@SystemObj@@UAEPADXZ 0040b610 f OpenGLSettings.obj
 0001:0000a630       ?_GetDb@SystemObj@@UAEPAVVistaDb@@XZ 0040b630 f OpenGLSettings.obj
 0001:0000a650       ??5SystemObj@@QAEAAVClassesObj@@AAV1@@Z 0040b650 f OpenGLSettings.obj
 0001:0000a680       ?OwnerUsingSet@SystemObj@@QAEAAVClassesObj@@AAV2@H@Z 0040b680 f OpenGLSettings.obj
 0001:0000a6b0       ?Members@SystemObj@@QAEJAAVClassesObj@@H@Z 0040b6b0 f OpenGLSettings.obj
 0001:0000a6e0       ??0SystemObj@@QAE@AAV0@@Z  0040b6e0 f OpenGLSettings.obj
 0001:0000a760       ??4SystemObj@@QAEAAV0@AAV0@@Z 0040b760 f OpenGLSettings.obj
 0001:0000a790       ??1SystemObj@@UAE@XZ       0040b790 f OpenGLSettings.obj
 0001:0000a7f0       ??_GSystemObj@@UAEPAXI@Z   0040b7f0 f OpenGLSettings.obj
 0001:0000a830       ??_ESystemObj@@UAEPAXI@Z   0040b830 f OpenGLSettings.obj
 0001:0000a8a0       ??0Classes_type_KeyObj@@QAE@XZ 0040b8a0 f OpenGLSettings.obj
 0001:0000a8e0       ??1Classes_type_KeyObj@@UAE@XZ 0040b8e0 f OpenGLSettings.obj
 0001:0000a900       ??0Classes_type_KeyObj@@QAE@ABV0@@Z 0040b900 f OpenGLSettings.obj
 0001:0000a970       ??4Classes_type_KeyObj@@QAEAAV0@ABV0@@Z 0040b970 f OpenGLSettings.obj
 0001:0000a9d0       ??_GClasses_type_KeyObj@@UAEPAXI@Z 0040b9d0 f OpenGLSettings.obj
 0001:0000aa10       ??_EClasses_type_KeyObj@@UAEPAXI@Z 0040ba10 f OpenGLSettings.obj
 0001:0000aa80       ??0Classes_name_KeyObj@@QAE@XZ 0040ba80 f OpenGLSettings.obj
 0001:0000aac0       ??1Classes_name_KeyObj@@UAE@XZ 0040bac0 f OpenGLSettings.obj
 0001:0000aae0       ??0Classes_name_KeyObj@@QAE@ABV0@@Z 0040bae0 f OpenGLSettings.obj
 0001:0000ab50       ??4Classes_name_KeyObj@@QAEAAV0@ABV0@@Z 0040bb50 f OpenGLSettings.obj
 0001:0000abd0       ??_GClasses_name_KeyObj@@UAEPAXI@Z 0040bbd0 f OpenGLSettings.obj
 0001:0000ac10       ??_EClasses_name_KeyObj@@UAEPAXI@Z 0040bc10 f OpenGLSettings.obj
 0001:0000ac80       ??0Groups_name_KeyObj@@QAE@XZ 0040bc80 f OpenGLSettings.obj
 0001:0000acc0       ??1Groups_name_KeyObj@@UAE@XZ 0040bcc0 f OpenGLSettings.obj
 0001:0000ace0       ??0Groups_name_KeyObj@@QAE@ABV0@@Z 0040bce0 f OpenGLSettings.obj
 0001:0000ad50       ??4Groups_name_KeyObj@@QAEAAV0@ABV0@@Z 0040bd50 f OpenGLSettings.obj
 0001:0000add0       ??_GGroups_name_KeyObj@@UAEPAXI@Z 0040bdd0 f OpenGLSettings.obj
 0001:0000ae10       ??_EGroups_name_KeyObj@@UAEPAXI@Z 0040be10 f OpenGLSettings.obj
 0001:0000ae80       ??0rvqLiteDb@@QAE@XZ       0040be80 f OpenGLSettings.obj
 0001:0000af00       ?MakeCurrent@rvqLiteDb@@UAEXXZ 0040bf00 f OpenGLSettings.obj
 0001:0000af20       ??0rvqLiteDb@@QAE@ABV0@@Z  0040bf20 f OpenGLSettings.obj
 0001:0000afa0       ??4rvqLiteDb@@QAEAAV0@ABV0@@Z 0040bfa0 f OpenGLSettings.obj
 0001:0000afd0       ??1rvqLiteDb@@UAE@XZ       0040bfd0 f OpenGLSettings.obj
 0001:0000b030       ??_GrvqLiteDb@@UAEPAXI@Z   0040c030 f OpenGLSettings.obj
 0001:0000b070       ??_ErvqLiteDb@@UAEPAXI@Z   0040c070 f OpenGLSettings.obj
 0001:0000b0f0       ??0equipObj@@QAE@XZ        0040c0f0 f OpenGLSettings.obj
 0001:0000b180       ??1equipObj@@UAE@XZ        0040c180 f OpenGLSettings.obj
 0001:0000b1f0       ?RecType@equipObj@@UAEHXZ  0040c1f0 f OpenGLSettings.obj
 0001:0000b210       ?RecName@equipObj@@UAEPADXZ 0040c210 f OpenGLSettings.obj
 0001:0000b230       ?TotalSize@equipObj@@UAEJXZ 0040c230 f OpenGLSettings.obj
 0001:0000b250       ?MakeEmpty@equipObj@@QAEXXZ 0040c250 f OpenGLSettings.obj
 0001:0000b290       ?RecData@equipObj@@UAEPAXXZ 0040c290 f OpenGLSettings.obj
 0001:0000b2b0       ?_GetDb@equipObj@@UAEPAVVistaDb@@XZ 0040c2b0 f OpenGLSettings.obj
 0001:0000b2d0       ??AequipObj@@QAEAAV0@W4NavCtrl@@@Z 0040c2d0 f OpenGLSettings.obj
 0001:0000b300       ??AequipObj@@QAEAAV0@AAVKeyObj@@@Z 0040c300 f OpenGLSettings.obj
 0001:0000b330       ??AequipObj@@QAEAAV0@AAVDbAddr@@@Z 0040c330 f OpenGLSettings.obj
 0001:0000b360       ??EequipObj@@QAEAAV0@XZ    0040c360 f OpenGLSettings.obj
 0001:0000b380       ??FequipObj@@QAEAAV0@XZ    0040c380 f OpenGLSettings.obj
 0001:0000b3a0       ??EequipObj@@QAEAAV0@H@Z   0040c3a0 f OpenGLSettings.obj
 0001:0000b3c0       ??FequipObj@@QAEAAV0@H@Z   0040c3c0 f OpenGLSettings.obj
 0001:0000b3e0       ??5equipObj@@QAEAAVeq_docs_intObj@@AAV1@@Z 0040c3e0 f OpenGLSettings.obj
 0001:0000b410       ?OwnerUsingSet@equipObj@@QAEAAVeq_docs_intObj@@AAV2@H@Z 0040c410 f OpenGLSettings.obj
 0001:0000b440       ?Members@equipObj@@QAEJAAVeq_docs_intObj@@H@Z 0040c440 f OpenGLSettings.obj
 0001:0000b470       ??5equipObj@@QAEAAVprogressObj@@AAV1@@Z 0040c470 f OpenGLSettings.obj
 0001:0000b4a0       ?OwnerUsingSet@equipObj@@QAEAAVprogressObj@@AAV2@H@Z 0040c4a0 f OpenGLSettings.obj
 0001:0000b4d0       ?Members@equipObj@@QAEJAAVprogressObj@@H@Z 0040c4d0 f OpenGLSettings.obj
 0001:0000b500       ??5equipObj@@QAEAAVeq_mproc_intObj@@AAV1@@Z 0040c500 f OpenGLSettings.obj
 0001:0000b530       ?OwnerUsingSet@equipObj@@QAEAAVeq_mproc_intObj@@AAV2@H@Z 0040c530 f OpenGLSettings.obj
 0001:0000b560       ?Members@equipObj@@QAEJAAVeq_mproc_intObj@@H@Z 0040c560 f OpenGLSettings.obj
 0001:0000b590       ??5equipObj@@QAEAAVmhistObj@@AAV1@@Z 0040c590 f OpenGLSettings.obj
 0001:0000b5c0       ?OwnerUsingSet@equipObj@@QAEAAVmhistObj@@AAV2@H@Z 0040c5c0 f OpenGLSettings.obj
 0001:0000b5f0       ?Members@equipObj@@QAEJAAVmhistObj@@H@Z 0040c5f0 f OpenGLSettings.obj
 0001:0000b620       ??5equipObj@@QAEAAVeq_parts_intObj@@AAV1@@Z 0040c620 f OpenGLSettings.obj
 0001:0000b650       ?OwnerUsingSet@equipObj@@QAEAAVeq_parts_intObj@@AAV2@H@Z 0040c650 f OpenGLSettings.obj
 0001:0000b680       ?Members@equipObj@@QAEJAAVeq_parts_intObj@@H@Z 0040c680 f OpenGLSettings.obj
 0001:0000b6b0       ??5equipObj@@QAEAAV0@AAV0@@Z 0040c6b0 f OpenGLSettings.obj
 0001:0000b6e0       ?OwnerUsingSet@equipObj@@QAEAAV1@AAV1@H@Z 0040c6e0 f OpenGLSettings.obj
 0001:0000b710       ?Members@equipObj@@QAEJAAV1@H@Z 0040c710 f OpenGLSettings.obj
 0001:0000b740       ??5equipObj@@QAEAAVimage_equip_boxObj@@AAV1@@Z 0040c740 f OpenGLSettings.obj
 0001:0000b770       ?OwnerUsingSet@equipObj@@QAEAAVimage_equip_boxObj@@AAV2@H@Z 0040c770 f OpenGLSettings.obj
 0001:0000b7a0       ?Members@equipObj@@QAEJAAVimage_equip_boxObj@@H@Z 0040c7a0 f OpenGLSettings.obj
 0001:0000b7d0       ?Connect@equipObj@@QAE?AW4T_F@@AAVcommsysObj@@H@Z 0040c7d0 f OpenGLSettings.obj
 0001:0000b800       ?GotoSet@equipObj@@QAEAAVStoreObj@@AAVcommsysObj@@W4NavCtrl@@H@Z 0040c800 f OpenGLSettings.obj
 0001:0000b830       ?DisConnect@equipObj@@QAE?AW4T_F@@AAVcommsysObj@@H@Z 0040c830 f OpenGLSettings.obj
 0001:0000b860       ?Set@equipObj@@QAEHAAVcommsysObj@@@Z 0040c860 f OpenGLSettings.obj
 0001:0000b880       ??6equipObj@@QAEAAVcommsysObj@@AAV1@@Z 0040c880 f OpenGLSettings.obj
 0001:0000b8b0       ?MemberUsingSet@equipObj@@QAEAAVcommsysObj@@AAV2@H@Z 0040c8b0 f OpenGLSettings.obj
 0001:0000b8e0       ?Connect@equipObj@@QAE?AW4T_F@@AAV1@H@Z 0040c8e0 f OpenGLSettings.obj
 0001:0000b910       ?GotoSet@equipObj@@QAEAAVStoreObj@@AAV1@W4NavCtrl@@H@Z 0040c910 f OpenGLSettings.obj
 0001:0000b940       ?DisConnect@equipObj@@QAE?AW4T_F@@AAV1@H@Z 0040c940 f OpenGLSettings.obj
 0001:0000b970       ?Set@equipObj@@QAEHAAV1@@Z 0040c970 f OpenGLSettings.obj
 0001:0000b990       ??6equipObj@@QAEAAV0@AAV0@@Z 0040c990 f OpenGLSettings.obj
 0001:0000b9c0       ?MemberUsingSet@equipObj@@QAEAAV1@AAV1@H@Z 0040c9c0 f OpenGLSettings.obj
 0001:0000b9f0       ?Connect@equipObj@@QAE?AW4T_F@@AAVvendorObj@@H@Z 0040c9f0 f OpenGLSettings.obj
 0001:0000ba20       ?GotoSet@equipObj@@QAEAAVStoreObj@@AAVvendorObj@@W4NavCtrl@@H@Z 0040ca20 f OpenGLSettings.obj
 0001:0000ba50       ?DisConnect@equipObj@@QAE?AW4T_F@@AAVvendorObj@@H@Z 0040ca50 f OpenGLSettings.obj
 0001:0000ba80       ?Set@equipObj@@QAEHAAVvendorObj@@@Z 0040ca80 f OpenGLSettings.obj
 0001:0000baa0       ??6equipObj@@QAEAAVvendorObj@@AAV1@@Z 0040caa0 f OpenGLSettings.obj
 0001:0000bad0       ?MemberUsingSet@equipObj@@QAEAAVvendorObj@@AAV2@H@Z 0040cad0 f OpenGLSettings.obj
 0001:0000bb00       ??0equipObj@@QAE@AAV0@@Z   0040cb00 f OpenGLSettings.obj
 0001:0000bbb0       ??4equipObj@@QAEAAV0@AAV0@@Z 0040cbb0 f OpenGLSettings.obj
 0001:0000bc10       ??_GequipObj@@UAEPAXI@Z    0040cc10 f OpenGLSettings.obj
 0001:0000bc50       ??_EequipObj@@UAEPAXI@Z    0040cc50 f OpenGLSettings.obj
 0001:0000bcd0       ??0engdocObj@@QAE@XZ       0040ccd0 f OpenGLSettings.obj
 0001:0000bd60       ??1engdocObj@@UAE@XZ       0040cd60 f OpenGLSettings.obj
 0001:0000bdd0       ?RecType@engdocObj@@UAEHXZ 0040cdd0 f OpenGLSettings.obj
 0001:0000bdf0       ?RecName@engdocObj@@UAEPADXZ 0040cdf0 f OpenGLSettings.obj
 0001:0000be10       ?TotalSize@engdocObj@@UAEJXZ 0040ce10 f OpenGLSettings.obj
 0001:0000be30       ?MakeEmpty@engdocObj@@QAEXXZ 0040ce30 f OpenGLSettings.obj
 0001:0000be70       ?RecData@engdocObj@@UAEPAXXZ 0040ce70 f OpenGLSettings.obj
 0001:0000be90       ?_GetDb@engdocObj@@UAEPAVVistaDb@@XZ 0040ce90 f OpenGLSettings.obj
 0001:0000beb0       ??AengdocObj@@QAEAAV0@W4NavCtrl@@@Z 0040ceb0 f OpenGLSettings.obj
 0001:0000bee0       ??AengdocObj@@QAEAAV0@AAVKeyObj@@@Z 0040cee0 f OpenGLSettings.obj
 0001:0000bf10       ??AengdocObj@@QAEAAV0@AAVDbAddr@@@Z 0040cf10 f OpenGLSettings.obj
 0001:0000bf40       ??EengdocObj@@QAEAAV0@XZ   0040cf40 f OpenGLSettings.obj
 0001:0000bf60       ??FengdocObj@@QAEAAV0@XZ   0040cf60 f OpenGLSettings.obj
 0001:0000bf80       ??EengdocObj@@QAEAAV0@H@Z  0040cf80 f OpenGLSettings.obj
 0001:0000bfa0       ??FengdocObj@@QAEAAV0@H@Z  0040cfa0 f OpenGLSettings.obj
 0001:0000bfc0       ??5engdocObj@@QAEAAVeq_docs_intObj@@AAV1@@Z 0040cfc0 f OpenGLSettings.obj
 0001:0000bff0       ?OwnerUsingSet@engdocObj@@QAEAAVeq_docs_intObj@@AAV2@H@Z 0040cff0 f OpenGLSettings.obj
 0001:0000c020       ?Members@engdocObj@@QAEJAAVeq_docs_intObj@@H@Z 0040d020 f OpenGLSettings.obj
 0001:0000c050       ??5engdocObj@@QAEAAVparts_docs_intObj@@AAV1@@Z 0040d050 f OpenGLSettings.obj
 0001:0000c080       ?OwnerUsingSet@engdocObj@@QAEAAVparts_docs_intObj@@AAV2@H@Z 0040d080 f OpenGLSettings.obj
 0001:0000c0b0       ?Members@engdocObj@@QAEJAAVparts_docs_intObj@@H@Z 0040d0b0 f OpenGLSettings.obj
 0001:0000c0e0       ??0engdocObj@@QAE@AAV0@@Z  0040d0e0 f OpenGLSettings.obj
 0001:0000c190       ??4engdocObj@@QAEAAV0@AAV0@@Z 0040d190 f OpenGLSettings.obj
 0001:0000c1f0       ??_GengdocObj@@UAEPAXI@Z   0040d1f0 f OpenGLSettings.obj
 0001:0000c230       ??_EengdocObj@@UAEPAXI@Z   0040d230 f OpenGLSettings.obj
 0001:0000c2b0       ??0progressObj@@QAE@XZ     0040d2b0 f OpenGLSettings.obj
 0001:0000c330       ??1progressObj@@UAE@XZ     0040d330 f OpenGLSettings.obj
 0001:0000c3a0       ?RecType@progressObj@@UAEHXZ 0040d3a0 f OpenGLSettings.obj
 0001:0000c3c0       ?RecName@progressObj@@UAEPADXZ 0040d3c0 f OpenGLSettings.obj
 0001:0000c3e0       ?TotalSize@progressObj@@UAEJXZ 0040d3e0 f OpenGLSettings.obj
 0001:0000c400       ?MakeEmpty@progressObj@@QAEXXZ 0040d400 f OpenGLSettings.obj
 0001:0000c440       ?RecData@progressObj@@UAEPAXXZ 0040d440 f OpenGLSettings.obj
 0001:0000c460       ?_GetDb@progressObj@@UAEPAVVistaDb@@XZ 0040d460 f OpenGLSettings.obj
 0001:0000c480       ??AprogressObj@@QAEAAV0@W4NavCtrl@@@Z 0040d480 f OpenGLSettings.obj
 0001:0000c4b0       ??AprogressObj@@QAEAAV0@AAVKeyObj@@@Z 0040d4b0 f OpenGLSettings.obj
 0001:0000c4e0       ??AprogressObj@@QAEAAV0@AAVDbAddr@@@Z 0040d4e0 f OpenGLSettings.obj
 0001:0000c510       ??EprogressObj@@QAEAAV0@XZ 0040d510 f OpenGLSettings.obj
 0001:0000c530       ??FprogressObj@@QAEAAV0@XZ 0040d530 f OpenGLSettings.obj
 0001:0000c550       ??EprogressObj@@QAEAAV0@H@Z 0040d550 f OpenGLSettings.obj
 0001:0000c570       ??FprogressObj@@QAEAAV0@H@Z 0040d570 f OpenGLSettings.obj
 0001:0000c590       ?Connect@progressObj@@QAE?AW4T_F@@AAVequipObj@@H@Z 0040d590 f OpenGLSettings.obj
 0001:0000c5c0       ?GotoSet@progressObj@@QAEAAVStoreObj@@AAVequipObj@@W4NavCtrl@@H@Z 0040d5c0 f OpenGLSettings.obj
 0001:0000c5f0       ?DisConnect@progressObj@@QAE?AW4T_F@@AAVequipObj@@H@Z 0040d5f0 f OpenGLSettings.obj
 0001:0000c620       ?Set@progressObj@@QAEHAAVequipObj@@@Z 0040d620 f OpenGLSettings.obj
 0001:0000c640       ??6progressObj@@QAEAAVequipObj@@AAV1@@Z 0040d640 f OpenGLSettings.obj
 0001:0000c670       ?MemberUsingSet@progressObj@@QAEAAVequipObj@@AAV2@H@Z 0040d670 f OpenGLSettings.obj
 0001:0000c6a0       ??0progressObj@@QAE@AAV0@@Z 0040d6a0 f OpenGLSettings.obj
 0001:0000c750       ??4progressObj@@QAEAAV0@AAV0@@Z 0040d750 f OpenGLSettings.obj
 0001:0000c7b0       ??_GprogressObj@@UAEPAXI@Z 0040d7b0 f OpenGLSettings.obj
 0001:0000c7f0       ??_EprogressObj@@UAEPAXI@Z 0040d7f0 f OpenGLSettings.obj
 0001:0000c860       ??0mprocObj@@QAE@XZ        0040d860 f OpenGLSettings.obj
 0001:0000c8f0       ??1mprocObj@@UAE@XZ        0040d8f0 f OpenGLSettings.obj
 0001:0000c960       ?RecType@mprocObj@@UAEHXZ  0040d960 f OpenGLSettings.obj
 0001:0000c980       ?RecName@mprocObj@@UAEPADXZ 0040d980 f OpenGLSettings.obj
 0001:0000c9a0       ?TotalSize@mprocObj@@UAEJXZ 0040d9a0 f OpenGLSettings.obj
 0001:0000c9c0       ?MakeEmpty@mprocObj@@QAEXXZ 0040d9c0 f OpenGLSettings.obj
 0001:0000ca00       ?RecData@mprocObj@@UAEPAXXZ 0040da00 f OpenGLSettings.obj
 0001:0000ca20       ?_GetDb@mprocObj@@UAEPAVVistaDb@@XZ 0040da20 f OpenGLSettings.obj
 0001:0000ca40       ??AmprocObj@@QAEAAV0@W4NavCtrl@@@Z 0040da40 f OpenGLSettings.obj
 0001:0000ca70       ??AmprocObj@@QAEAAV0@AAVKeyObj@@@Z 0040da70 f OpenGLSettings.obj
 0001:0000caa0       ??AmprocObj@@QAEAAV0@AAVDbAddr@@@Z 0040daa0 f OpenGLSettings.obj
 0001:0000cad0       ??EmprocObj@@QAEAAV0@XZ    0040dad0 f OpenGLSettings.obj
 0001:0000caf0       ??FmprocObj@@QAEAAV0@XZ    0040daf0 f OpenGLSettings.obj
 0001:0000cb10       ??EmprocObj@@QAEAAV0@H@Z   0040db10 f OpenGLSettings.obj
 0001:0000cb30       ??FmprocObj@@QAEAAV0@H@Z   0040db30 f OpenGLSettings.obj
 0001:0000cb50       ??5mprocObj@@QAEAAVeq_mproc_intObj@@AAV1@@Z 0040db50 f OpenGLSettings.obj
 0001:0000cb80       ?OwnerUsingSet@mprocObj@@QAEAAVeq_mproc_intObj@@AAV2@H@Z 0040db80 f OpenGLSettings.obj
 0001:0000cbb0       ?Members@mprocObj@@QAEJAAVeq_mproc_intObj@@H@Z 0040dbb0 f OpenGLSettings.obj
 0001:0000cbe0       ??5mprocObj@@QAEAAVmhist_mproc_intObj@@AAV1@@Z 0040dbe0 f OpenGLSettings.obj
 0001:0000cc10       ?OwnerUsingSet@mprocObj@@QAEAAVmhist_mproc_intObj@@AAV2@H@Z 0040dc10 f OpenGLSettings.obj
 0001:0000cc40       ?Members@mprocObj@@QAEJAAVmhist_mproc_intObj@@H@Z 0040dc40 f OpenGLSettings.obj
 0001:0000cc70       ??0mprocObj@@QAE@AAV0@@Z   0040dc70 f OpenGLSettings.obj
 0001:0000cd20       ??4mprocObj@@QAEAAV0@AAV0@@Z 0040dd20 f OpenGLSettings.obj
 0001:0000cd80       ??_GmprocObj@@UAEPAXI@Z    0040dd80 f OpenGLSettings.obj
 0001:0000cdc0       ??_EmprocObj@@UAEPAXI@Z    0040ddc0 f OpenGLSettings.obj
 0001:0000ce40       ??0mhistObj@@QAE@XZ        0040de40 f OpenGLSettings.obj
 0001:0000ced0       ??1mhistObj@@UAE@XZ        0040ded0 f OpenGLSettings.obj
 0001:0000cf40       ?RecType@mhistObj@@UAEHXZ  0040df40 f OpenGLSettings.obj
 0001:0000cf60       ?RecName@mhistObj@@UAEPADXZ 0040df60 f OpenGLSettings.obj
 0001:0000cf80       ?TotalSize@mhistObj@@UAEJXZ 0040df80 f OpenGLSettings.obj
 0001:0000cfa0       ?MakeEmpty@mhistObj@@QAEXXZ 0040dfa0 f OpenGLSettings.obj
 0001:0000cfe0       ?RecData@mhistObj@@UAEPAXXZ 0040dfe0 f OpenGLSettings.obj
 0001:0000d000       ?_GetDb@mhistObj@@UAEPAVVistaDb@@XZ 0040e000 f OpenGLSettings.obj
 0001:0000d020       ??AmhistObj@@QAEAAV0@W4NavCtrl@@@Z 0040e020 f OpenGLSettings.obj
 0001:0000d050       ??AmhistObj@@QAEAAV0@AAVKeyObj@@@Z 0040e050 f OpenGLSettings.obj
 0001:0000d080       ??AmhistObj@@QAEAAV0@AAVDbAddr@@@Z 0040e080 f OpenGLSettings.obj
 0001:0000d0b0       ??EmhistObj@@QAEAAV0@XZ    0040e0b0 f OpenGLSettings.obj
 0001:0000d0d0       ??FmhistObj@@QAEAAV0@XZ    0040e0d0 f OpenGLSettings.obj
 0001:0000d0f0       ??EmhistObj@@QAEAAV0@H@Z   0040e0f0 f OpenGLSettings.obj
 0001:0000d110       ??FmhistObj@@QAEAAV0@H@Z   0040e110 f OpenGLSettings.obj
 0001:0000d130       ??5mhistObj@@QAEAAVmhist_mproc_intObj@@AAV1@@Z 0040e130 f OpenGLSettings.obj
 0001:0000d160       ?OwnerUsingSet@mhistObj@@QAEAAVmhist_mproc_intObj@@AAV2@H@Z 0040e160 f OpenGLSettings.obj
 0001:0000d190       ?Members@mhistObj@@QAEJAAVmhist_mproc_intObj@@H@Z 0040e190 f OpenGLSettings.obj
 0001:0000d1c0       ?Connect@mhistObj@@QAE?AW4T_F@@AAVequipObj@@H@Z 0040e1c0 f OpenGLSettings.obj
 0001:0000d1f0       ?GotoSet@mhistObj@@QAEAAVStoreObj@@AAVequipObj@@W4NavCtrl@@H@Z 0040e1f0 f OpenGLSettings.obj
 0001:0000d220       ?DisConnect@mhistObj@@QAE?AW4T_F@@AAVequipObj@@H@Z 0040e220 f OpenGLSettings.obj
 0001:0000d250       ?Set@mhistObj@@QAEHAAVequipObj@@@Z 0040e250 f OpenGLSettings.obj
 0001:0000d270       ??6mhistObj@@QAEAAVequipObj@@AAV1@@Z 0040e270 f OpenGLSettings.obj
 0001:0000d2a0       ?MemberUsingSet@mhistObj@@QAEAAVequipObj@@AAV2@H@Z 0040e2a0 f OpenGLSettings.obj
 0001:0000d2d0       ??0mhistObj@@QAE@AAV0@@Z   0040e2d0 f OpenGLSettings.obj
 0001:0000d380       ??4mhistObj@@QAEAAV0@AAV0@@Z 0040e380 f OpenGLSettings.obj
 0001:0000d3e0       ??_GmhistObj@@UAEPAXI@Z    0040e3e0 f OpenGLSettings.obj
 0001:0000d420       ??_EmhistObj@@UAEPAXI@Z    0040e420 f OpenGLSettings.obj
 0001:0000d4a0       ??0mhist_mproc_intObj@@QAE@XZ 0040e4a0 f OpenGLSettings.obj
 0001:0000d520       ??0mhist_mproc_intObj@@QAE@AAVSetObj@@@Z 0040e520 f OpenGLSettings.obj
 0001:0000d5a0       ??0mhist_mproc_intObj@@QAE@AAVmprocObj@@@Z 0040e5a0 f OpenGLSettings.obj
 0001:0000d630       ??0mhist_mproc_intObj@@QAE@AAVmhistObj@@@Z 0040e630 f OpenGLSettings.obj
 0001:0000d6c0       ??1mhist_mproc_intObj@@UAE@XZ 0040e6c0 f OpenGLSettings.obj
 0001:0000d730       ?RecType@mhist_mproc_intObj@@UAEHXZ 0040e730 f OpenGLSettings.obj
 0001:0000d750       ?RecName@mhist_mproc_intObj@@UAEPADXZ 0040e750 f OpenGLSettings.obj
 0001:0000d770       ?_GetDb@mhist_mproc_intObj@@UAEPAVVistaDb@@XZ 0040e770 f OpenGLSettings.obj
 0001:0000d790       ??Amhist_mproc_intObj@@QAEAAV0@W4NavCtrl@@@Z 0040e790 f OpenGLSettings.obj
 0001:0000d7c0       ??Amhist_mproc_intObj@@QAEAAV0@AAVKeyObj@@@Z 0040e7c0 f OpenGLSettings.obj
 0001:0000d7f0       ??Amhist_mproc_intObj@@QAEAAV0@AAVDbAddr@@@Z 0040e7f0 f OpenGLSettings.obj
 0001:0000d820       ??Emhist_mproc_intObj@@QAEAAV0@XZ 0040e820 f OpenGLSettings.obj
 0001:0000d840       ??Fmhist_mproc_intObj@@QAEAAV0@XZ 0040e840 f OpenGLSettings.obj
 0001:0000d860       ??Emhist_mproc_intObj@@QAEAAV0@H@Z 0040e860 f OpenGLSettings.obj
 0001:0000d880       ??Fmhist_mproc_intObj@@QAEAAV0@H@Z 0040e880 f OpenGLSettings.obj
 0001:0000d8a0       ?Connect@mhist_mproc_intObj@@QAE?AW4T_F@@AAVmprocObj@@H@Z 0040e8a0 f OpenGLSettings.obj
 0001:0000d8d0       ?GotoSet@mhist_mproc_intObj@@QAEAAVStoreObj@@AAVmprocObj@@W4NavCtrl@@H@Z 0040e8d0 f OpenGLSettings.obj
 0001:0000d900       ?DisConnect@mhist_mproc_intObj@@QAE?AW4T_F@@AAVmprocObj@@H@Z 0040e900 f OpenGLSettings.obj
 0001:0000d930       ?Set@mhist_mproc_intObj@@QAEHAAVmprocObj@@@Z 0040e930 f OpenGLSettings.obj
 0001:0000d950       ??6mhist_mproc_intObj@@QAEAAVmprocObj@@AAV1@@Z 0040e950 f OpenGLSettings.obj
 0001:0000d980       ?MemberUsingSet@mhist_mproc_intObj@@QAEAAVmprocObj@@AAV2@H@Z 0040e980 f OpenGLSettings.obj
 0001:0000d9b0       ?Connect@mhist_mproc_intObj@@QAE?AW4T_F@@AAVmhistObj@@H@Z 0040e9b0 f OpenGLSettings.obj
 0001:0000d9e0       ?GotoSet@mhist_mproc_intObj@@QAEAAVStoreObj@@AAVmhistObj@@W4NavCtrl@@H@Z 0040e9e0 f OpenGLSettings.obj
 0001:0000da10       ?DisConnect@mhist_mproc_intObj@@QAE?AW4T_F@@AAVmhistObj@@H@Z 0040ea10 f OpenGLSettings.obj
 0001:0000da40       ?Set@mhist_mproc_intObj@@QAEHAAVmhistObj@@@Z 0040ea40 f OpenGLSettings.obj
 0001:0000da60       ??6mhist_mproc_intObj@@QAEAAVmhistObj@@AAV1@@Z 0040ea60 f OpenGLSettings.obj
 0001:0000da90       ?MemberUsingSet@mhist_mproc_intObj@@QAEAAVmhistObj@@AAV2@H@Z 0040ea90 f OpenGLSettings.obj
 0001:0000dac0       ??0mhist_mproc_intObj@@QAE@AAV0@@Z 0040eac0 f OpenGLSettings.obj
 0001:0000db40       ??4mhist_mproc_intObj@@QAEAAV0@AAV0@@Z 0040eb40 f OpenGLSettings.obj
 0001:0000db70       ??_Gmhist_mproc_intObj@@UAEPAXI@Z 0040eb70 f OpenGLSettings.obj
 0001:0000dbb0       ??_Emhist_mproc_intObj@@UAEPAXI@Z 0040ebb0 f OpenGLSettings.obj
 0001:0000dc20       ??0partsObj@@QAE@XZ        0040ec20 f OpenGLSettings.obj
 0001:0000dcb0       ??0partsObj@@QAE@AAVvendorObj@@@Z 0040ecb0 f OpenGLSettings.obj
 0001:0000dd40       ??1partsObj@@UAE@XZ        0040ed40 f OpenGLSettings.obj
 0001:0000ddb0       ?RecType@partsObj@@UAEHXZ  0040edb0 f OpenGLSettings.obj
 0001:0000ddd0       ?RecName@partsObj@@UAEPADXZ 0040edd0 f OpenGLSettings.obj
 0001:0000ddf0       ?TotalSize@partsObj@@UAEJXZ 0040edf0 f OpenGLSettings.obj
 0001:0000de10       ?MakeEmpty@partsObj@@QAEXXZ 0040ee10 f OpenGLSettings.obj
 0001:0000de50       ?RecData@partsObj@@UAEPAXXZ 0040ee50 f OpenGLSettings.obj
 0001:0000de70       ?_GetDb@partsObj@@UAEPAVVistaDb@@XZ 0040ee70 f OpenGLSettings.obj
 0001:0000de90       ??ApartsObj@@QAEAAV0@W4NavCtrl@@@Z 0040ee90 f OpenGLSettings.obj
 0001:0000dec0       ??ApartsObj@@QAEAAV0@AAVKeyObj@@@Z 0040eec0 f OpenGLSettings.obj
 0001:0000def0       ??ApartsObj@@QAEAAV0@AAVDbAddr@@@Z 0040eef0 f OpenGLSettings.obj
 0001:0000df20       ??EpartsObj@@QAEAAV0@XZ    0040ef20 f OpenGLSettings.obj
 0001:0000df40       ??FpartsObj@@QAEAAV0@XZ    0040ef40 f OpenGLSettings.obj
 0001:0000df60       ??EpartsObj@@QAEAAV0@H@Z   0040ef60 f OpenGLSettings.obj
 0001:0000df80       ??FpartsObj@@QAEAAV0@H@Z   0040ef80 f OpenGLSettings.obj
 0001:0000dfa0       ??5partsObj@@QAEAAVeq_parts_intObj@@AAV1@@Z 0040efa0 f OpenGLSettings.obj
 0001:0000dfd0       ?OwnerUsingSet@partsObj@@QAEAAVeq_parts_intObj@@AAV2@H@Z 0040efd0 f OpenGLSettings.obj
 0001:0000e000       ?Members@partsObj@@QAEJAAVeq_parts_intObj@@H@Z 0040f000 f OpenGLSettings.obj
 0001:0000e030       ??5partsObj@@QAEAAVparts_docs_intObj@@AAV1@@Z 0040f030 f OpenGLSettings.obj
 0001:0000e060       ?OwnerUsingSet@partsObj@@QAEAAVparts_docs_intObj@@AAV2@H@Z 0040f060 f OpenGLSettings.obj
 0001:0000e090       ?Members@partsObj@@QAEJAAVparts_docs_intObj@@H@Z 0040f090 f OpenGLSettings.obj
 0001:0000e0c0       ?Connect@partsObj@@QAE?AW4T_F@@AAVvendorObj@@H@Z 0040f0c0 f OpenGLSettings.obj
 0001:0000e0f0       ?GotoSet@partsObj@@QAEAAVStoreObj@@AAVvendorObj@@W4NavCtrl@@H@Z 0040f0f0 f OpenGLSettings.obj
 0001:0000e120       ?DisConnect@partsObj@@QAE?AW4T_F@@AAVvendorObj@@H@Z 0040f120 f OpenGLSettings.obj
 0001:0000e150       ?Set@partsObj@@QAEHAAVvendorObj@@@Z 0040f150 f OpenGLSettings.obj
 0001:0000e170       ??6partsObj@@QAEAAVvendorObj@@AAV1@@Z 0040f170 f OpenGLSettings.obj
 0001:0000e1a0       ?MemberUsingSet@partsObj@@QAEAAVvendorObj@@AAV2@H@Z 0040f1a0 f OpenGLSettings.obj
 0001:0000e1d0       ??0partsObj@@QAE@AAV0@@Z   0040f1d0 f OpenGLSettings.obj
 0001:0000e280       ??4partsObj@@QAEAAV0@AAV0@@Z 0040f280 f OpenGLSettings.obj
 0001:0000e2e0       ??_GpartsObj@@UAEPAXI@Z    0040f2e0 f OpenGLSettings.obj
 0001:0000e320       ??_EpartsObj@@UAEPAXI@Z    0040f320 f OpenGLSettings.obj
 0001:0000e3a0       ??0eq_parts_intObj@@QAE@XZ 0040f3a0 f OpenGLSettings.obj
 0001:0000e420       ??0eq_parts_intObj@@QAE@AAVSetObj@@@Z 0040f420 f OpenGLSettings.obj
 0001:0000e4a0       ??0eq_parts_intObj@@QAE@AAVequipObj@@@Z 0040f4a0 f OpenGLSettings.obj
 0001:0000e530       ??0eq_parts_intObj@@QAE@AAVpartsObj@@@Z 0040f530 f OpenGLSettings.obj
 0001:0000e5c0       ??1eq_parts_intObj@@UAE@XZ 0040f5c0 f OpenGLSettings.obj
 0001:0000e630       ?RecType@eq_parts_intObj@@UAEHXZ 0040f630 f OpenGLSettings.obj
 0001:0000e650       ?RecName@eq_parts_intObj@@UAEPADXZ 0040f650 f OpenGLSettings.obj
 0001:0000e670       ?_GetDb@eq_parts_intObj@@UAEPAVVistaDb@@XZ 0040f670 f OpenGLSettings.obj
 0001:0000e690       ??Aeq_parts_intObj@@QAEAAV0@W4NavCtrl@@@Z 0040f690 f OpenGLSettings.obj
 0001:0000e6c0       ??Aeq_parts_intObj@@QAEAAV0@AAVKeyObj@@@Z 0040f6c0 f OpenGLSettings.obj
 0001:0000e6f0       ??Aeq_parts_intObj@@QAEAAV0@AAVDbAddr@@@Z 0040f6f0 f OpenGLSettings.obj
 0001:0000e720       ??Eeq_parts_intObj@@QAEAAV0@XZ 0040f720 f OpenGLSettings.obj
 0001:0000e740       ??Feq_parts_intObj@@QAEAAV0@XZ 0040f740 f OpenGLSettings.obj
 0001:0000e760       ??Eeq_parts_intObj@@QAEAAV0@H@Z 0040f760 f OpenGLSettings.obj
 0001:0000e780       ??Feq_parts_intObj@@QAEAAV0@H@Z 0040f780 f OpenGLSettings.obj
 0001:0000e7a0       ?Connect@eq_parts_intObj@@QAE?AW4T_F@@AAVequipObj@@H@Z 0040f7a0 f OpenGLSettings.obj
 0001:0000e7d0       ?GotoSet@eq_parts_intObj@@QAEAAVStoreObj@@AAVequipObj@@W4NavCtrl@@H@Z 0040f7d0 f OpenGLSettings.obj
 0001:0000e800       ?DisConnect@eq_parts_intObj@@QAE?AW4T_F@@AAVequipObj@@H@Z 0040f800 f OpenGLSettings.obj
 0001:0000e830       ?Set@eq_parts_intObj@@QAEHAAVequipObj@@@Z 0040f830 f OpenGLSettings.obj
 0001:0000e850       ??6eq_parts_intObj@@QAEAAVequipObj@@AAV1@@Z 0040f850 f OpenGLSettings.obj
 0001:0000e880       ?MemberUsingSet@eq_parts_intObj@@QAEAAVequipObj@@AAV2@H@Z 0040f880 f OpenGLSettings.obj
 0001:0000e8b0       ?Connect@eq_parts_intObj@@QAE?AW4T_F@@AAVpartsObj@@H@Z 0040f8b0 f OpenGLSettings.obj
 0001:0000e8e0       ?GotoSet@eq_parts_intObj@@QAEAAVStoreObj@@AAVpartsObj@@W4NavCtrl@@H@Z 0040f8e0 f OpenGLSettings.obj
 0001:0000e910       ?DisConnect@eq_parts_intObj@@QAE?AW4T_F@@AAVpartsObj@@H@Z 0040f910 f OpenGLSettings.obj
 0001:0000e940       ?Set@eq_parts_intObj@@QAEHAAVpartsObj@@@Z 0040f940 f OpenGLSettings.obj
 0001:0000e960       ??6eq_parts_intObj@@QAEAAVpartsObj@@AAV1@@Z 0040f960 f OpenGLSettings.obj
 0001:0000e990       ?MemberUsingSet@eq_parts_intObj@@QAEAAVpartsObj@@AAV2@H@Z 0040f990 f OpenGLSettings.obj
 0001:0000e9c0       ??0eq_parts_intObj@@QAE@AAV0@@Z 0040f9c0 f OpenGLSettings.obj
 0001:0000ea40       ??4eq_parts_intObj@@QAEAAV0@AAV0@@Z 0040fa40 f OpenGLSettings.obj
 0001:0000ea70       ??_Geq_parts_intObj@@UAEPAXI@Z 0040fa70 f OpenGLSettings.obj
 0001:0000eab0       ??_Eeq_parts_intObj@@UAEPAXI@Z 0040fab0 f OpenGLSettings.obj
 0001:0000eb20       ??0parts_docs_intObj@@QAE@XZ 0040fb20 f OpenGLSettings.obj
 0001:0000eba0       ??0parts_docs_intObj@@QAE@AAVSetObj@@@Z 0040fba0 f OpenGLSettings.obj
 0001:0000ec20       ??0parts_docs_intObj@@QAE@AAVpartsObj@@@Z 0040fc20 f OpenGLSettings.obj
 0001:0000ecb0       ??0parts_docs_intObj@@QAE@AAVengdocObj@@@Z 0040fcb0 f OpenGLSettings.obj
 0001:0000ed40       ??1parts_docs_intObj@@UAE@XZ 0040fd40 f OpenGLSettings.obj
 0001:0000edb0       ?RecType@parts_docs_intObj@@UAEHXZ 0040fdb0 f OpenGLSettings.obj
 0001:0000edd0       ?RecName@parts_docs_intObj@@UAEPADXZ 0040fdd0 f OpenGLSettings.obj
 0001:0000edf0       ?_GetDb@parts_docs_intObj@@UAEPAVVistaDb@@XZ 0040fdf0 f OpenGLSettings.obj
 0001:0000ee10       ??Aparts_docs_intObj@@QAEAAV0@W4NavCtrl@@@Z 0040fe10 f OpenGLSettings.obj
 0001:0000ee40       ??Aparts_docs_intObj@@QAEAAV0@AAVKeyObj@@@Z 0040fe40 f OpenGLSettings.obj
 0001:0000ee70       ??Aparts_docs_intObj@@QAEAAV0@AAVDbAddr@@@Z 0040fe70 f OpenGLSettings.obj
 0001:0000eea0       ??Eparts_docs_intObj@@QAEAAV0@XZ 0040fea0 f OpenGLSettings.obj
 0001:0000eec0       ??Fparts_docs_intObj@@QAEAAV0@XZ 0040fec0 f OpenGLSettings.obj
 0001:0000eee0       ??Eparts_docs_intObj@@QAEAAV0@H@Z 0040fee0 f OpenGLSettings.obj
 0001:0000ef00       ??Fparts_docs_intObj@@QAEAAV0@H@Z 0040ff00 f OpenGLSettings.obj
 0001:0000ef20       ?Connect@parts_docs_intObj@@QAE?AW4T_F@@AAVpartsObj@@H@Z 0040ff20 f OpenGLSettings.obj
 0001:0000ef50       ?GotoSet@parts_docs_intObj@@QAEAAVStoreObj@@AAVpartsObj@@W4NavCtrl@@H@Z 0040ff50 f OpenGLSettings.obj
 0001:0000ef80       ?DisConnect@parts_docs_intObj@@QAE?AW4T_F@@AAVpartsObj@@H@Z 0040ff80 f OpenGLSettings.obj
 0001:0000efb0       ?Set@parts_docs_intObj@@QAEHAAVpartsObj@@@Z 0040ffb0 f OpenGLSettings.obj
 0001:0000efd0       ??6parts_docs_intObj@@QAEAAVpartsObj@@AAV1@@Z 0040ffd0 f OpenGLSettings.obj
 0001:0000f000       ?MemberUsingSet@parts_docs_intObj@@QAEAAVpartsObj@@AAV2@H@Z 00410000 f OpenGLSettings.obj
 0001:0000f030       ?Connect@parts_docs_intObj@@QAE?AW4T_F@@AAVengdocObj@@H@Z 00410030 f OpenGLSettings.obj
 0001:0000f060       ?GotoSet@parts_docs_intObj@@QAEAAVStoreObj@@AAVengdocObj@@W4NavCtrl@@H@Z 00410060 f OpenGLSettings.obj
 0001:0000f090       ?DisConnect@parts_docs_intObj@@QAE?AW4T_F@@AAVengdocObj@@H@Z 00410090 f OpenGLSettings.obj
 0001:0000f0c0       ?Set@parts_docs_intObj@@QAEHAAVengdocObj@@@Z 004100c0 f OpenGLSettings.obj
 0001:0000f0e0       ??6parts_docs_intObj@@QAEAAVengdocObj@@AAV1@@Z 004100e0 f OpenGLSettings.obj
 0001:0000f110       ?MemberUsingSet@parts_docs_intObj@@QAEAAVengdocObj@@AAV2@H@Z 00410110 f OpenGLSettings.obj
 0001:0000f140       ??0parts_docs_intObj@@QAE@AAV0@@Z 00410140 f OpenGLSettings.obj
 0001:0000f1c0       ??4parts_docs_intObj@@QAEAAV0@AAV0@@Z 004101c0 f OpenGLSettings.obj
 0001:0000f1f0       ??_Gparts_docs_intObj@@UAEPAXI@Z 004101f0 f OpenGLSettings.obj
 0001:0000f230       ??_Eparts_docs_intObj@@UAEPAXI@Z 00410230 f OpenGLSettings.obj
 0001:0000f2a0       ??0vendorObj@@QAE@XZ       004102a0 f OpenGLSettings.obj
 0001:0000f330       ??1vendorObj@@UAE@XZ       00410330 f OpenGLSettings.obj
 0001:0000f3a0       ?RecType@vendorObj@@UAEHXZ 004103a0 f OpenGLSettings.obj
 0001:0000f3c0       ?RecName@vendorObj@@UAEPADXZ 004103c0 f OpenGLSettings.obj
 0001:0000f3e0       ?TotalSize@vendorObj@@UAEJXZ 004103e0 f OpenGLSettings.obj
 0001:0000f400       ?MakeEmpty@vendorObj@@QAEXXZ 00410400 f OpenGLSettings.obj
 0001:0000f440       ?RecData@vendorObj@@UAEPAXXZ 00410440 f OpenGLSettings.obj
 0001:0000f460       ?_GetDb@vendorObj@@UAEPAVVistaDb@@XZ 00410460 f OpenGLSettings.obj
 0001:0000f480       ??AvendorObj@@QAEAAV0@W4NavCtrl@@@Z 00410480 f OpenGLSettings.obj
 0001:0000f4b0       ??AvendorObj@@QAEAAV0@AAVKeyObj@@@Z 004104b0 f OpenGLSettings.obj
 0001:0000f4e0       ??AvendorObj@@QAEAAV0@AAVDbAddr@@@Z 004104e0 f OpenGLSettings.obj
 0001:0000f510       ??EvendorObj@@QAEAAV0@XZ   00410510 f OpenGLSettings.obj
 0001:0000f530       ??FvendorObj@@QAEAAV0@XZ   00410530 f OpenGLSettings.obj
 0001:0000f550       ??EvendorObj@@QAEAAV0@H@Z  00410550 f OpenGLSettings.obj
 0001:0000f570       ??FvendorObj@@QAEAAV0@H@Z  00410570 f OpenGLSettings.obj
 0001:0000f590       ??5vendorObj@@QAEAAVpartsObj@@AAV1@@Z 00410590 f OpenGLSettings.obj
 0001:0000f5c0       ?OwnerUsingSet@vendorObj@@QAEAAVpartsObj@@AAV2@H@Z 004105c0 f OpenGLSettings.obj
 0001:0000f5f0       ?Members@vendorObj@@QAEJAAVpartsObj@@H@Z 004105f0 f OpenGLSettings.obj
 0001:0000f620       ??5vendorObj@@QAEAAVequipObj@@AAV1@@Z 00410620 f OpenGLSettings.obj
 0001:0000f650       ?OwnerUsingSet@vendorObj@@QAEAAVequipObj@@AAV2@H@Z 00410650 f OpenGLSettings.obj
 0001:0000f680       ?Members@vendorObj@@QAEJAAVequipObj@@H@Z 00410680 f OpenGLSettings.obj
 0001:0000f6b0       ??0vendorObj@@QAE@AAV0@@Z  004106b0 f OpenGLSettings.obj
 0001:0000f760       ??4vendorObj@@QAEAAV0@AAV0@@Z 00410760 f OpenGLSettings.obj
 0001:0000f7c0       ??_GvendorObj@@UAEPAXI@Z   004107c0 f OpenGLSettings.obj
 0001:0000f800       ??_EvendorObj@@UAEPAXI@Z   00410800 f OpenGLSettings.obj
 0001:0000f880       ??0commsysObj@@QAE@XZ      00410880 f OpenGLSettings.obj
 0001:0000f910       ??1commsysObj@@UAE@XZ      00410910 f OpenGLSettings.obj
 0001:0000f980       ?RecType@commsysObj@@UAEHXZ 00410980 f OpenGLSettings.obj
 0001:0000f9a0       ?RecName@commsysObj@@UAEPADXZ 004109a0 f OpenGLSettings.obj
 0001:0000f9c0       ?TotalSize@commsysObj@@UAEJXZ 004109c0 f OpenGLSettings.obj
 0001:0000f9e0       ?MakeEmpty@commsysObj@@QAEXXZ 004109e0 f OpenGLSettings.obj
 0001:0000fa20       ?RecData@commsysObj@@UAEPAXXZ 00410a20 f OpenGLSettings.obj
 0001:0000fa40       ?_GetDb@commsysObj@@UAEPAVVistaDb@@XZ 00410a40 f OpenGLSettings.obj
 0001:0000fa60       ??AcommsysObj@@QAEAAV0@W4NavCtrl@@@Z 00410a60 f OpenGLSettings.obj
 0001:0000fa90       ??AcommsysObj@@QAEAAV0@AAVKeyObj@@@Z 00410a90 f OpenGLSettings.obj
 0001:0000fac0       ??AcommsysObj@@QAEAAV0@AAVDbAddr@@@Z 00410ac0 f OpenGLSettings.obj
 0001:0000faf0       ??EcommsysObj@@QAEAAV0@XZ  00410af0 f OpenGLSettings.obj
 0001:0000fb10       ??FcommsysObj@@QAEAAV0@XZ  00410b10 f OpenGLSettings.obj
 0001:0000fb30       ??EcommsysObj@@QAEAAV0@H@Z 00410b30 f OpenGLSettings.obj
 0001:0000fb50       ??FcommsysObj@@QAEAAV0@H@Z 00410b50 f OpenGLSettings.obj
 0001:0000fb70       ??5commsysObj@@QAEAAVequipObj@@AAV1@@Z 00410b70 f OpenGLSettings.obj
 0001:0000fba0       ?OwnerUsingSet@commsysObj@@QAEAAVequipObj@@AAV2@H@Z 00410ba0 f OpenGLSettings.obj
 0001:0000fbd0       ?Members@commsysObj@@QAEJAAVequipObj@@H@Z 00410bd0 f OpenGLSettings.obj
 0001:0000fc00       ??0commsysObj@@QAE@AAV0@@Z 00410c00 f OpenGLSettings.obj
 0001:0000fcb0       ??4commsysObj@@QAEAAV0@AAV0@@Z 00410cb0 f OpenGLSettings.obj
 0001:0000fd10       ??_GcommsysObj@@UAEPAXI@Z  00410d10 f OpenGLSettings.obj
 0001:0000fd50       ??_EcommsysObj@@UAEPAXI@Z  00410d50 f OpenGLSettings.obj
 0001:0000fdc0       ??0eq_docs_intObj@@QAE@XZ  00410dc0 f OpenGLSettings.obj
 0001:0000fe40       ??0eq_docs_intObj@@QAE@AAVSetObj@@@Z 00410e40 f OpenGLSettings.obj
 0001:0000fec0       ??0eq_docs_intObj@@QAE@AAVequipObj@@@Z 00410ec0 f OpenGLSettings.obj
 0001:0000ff50       ??0eq_docs_intObj@@QAE@AAVengdocObj@@@Z 00410f50 f OpenGLSettings.obj
 0001:0000ffe0       ??1eq_docs_intObj@@UAE@XZ  00410fe0 f OpenGLSettings.obj
 0001:00010050       ?RecType@eq_docs_intObj@@UAEHXZ 00411050 f OpenGLSettings.obj
 0001:00010070       ?RecName@eq_docs_intObj@@UAEPADXZ 00411070 f OpenGLSettings.obj
 0001:00010090       ?_GetDb@eq_docs_intObj@@UAEPAVVistaDb@@XZ 00411090 f OpenGLSettings.obj
 0001:000100b0       ??Aeq_docs_intObj@@QAEAAV0@W4NavCtrl@@@Z 004110b0 f OpenGLSettings.obj
 0001:000100e0       ??Aeq_docs_intObj@@QAEAAV0@AAVKeyObj@@@Z 004110e0 f OpenGLSettings.obj
 0001:00010110       ??Aeq_docs_intObj@@QAEAAV0@AAVDbAddr@@@Z 00411110 f OpenGLSettings.obj
 0001:00010140       ??Eeq_docs_intObj@@QAEAAV0@XZ 00411140 f OpenGLSettings.obj
 0001:00010160       ??Feq_docs_intObj@@QAEAAV0@XZ 00411160 f OpenGLSettings.obj
 0001:00010180       ??Eeq_docs_intObj@@QAEAAV0@H@Z 00411180 f OpenGLSettings.obj
 0001:000101a0       ??Feq_docs_intObj@@QAEAAV0@H@Z 004111a0 f OpenGLSettings.obj
 0001:000101c0       ?Connect@eq_docs_intObj@@QAE?AW4T_F@@AAVequipObj@@H@Z 004111c0 f OpenGLSettings.obj
 0001:000101f0       ?GotoSet@eq_docs_intObj@@QAEAAVStoreObj@@AAVequipObj@@W4NavCtrl@@H@Z 004111f0 f OpenGLSettings.obj
 0001:00010220       ?DisConnect@eq_docs_intObj@@QAE?AW4T_F@@AAVequipObj@@H@Z 00411220 f OpenGLSettings.obj
 0001:00010250       ?Set@eq_docs_intObj@@QAEHAAVequipObj@@@Z 00411250 f OpenGLSettings.obj
 0001:00010270       ??6eq_docs_intObj@@QAEAAVequipObj@@AAV1@@Z 00411270 f OpenGLSettings.obj
 0001:000102a0       ?MemberUsingSet@eq_docs_intObj@@QAEAAVequipObj@@AAV2@H@Z 004112a0 f OpenGLSettings.obj
 0001:000102d0       ?Connect@eq_docs_intObj@@QAE?AW4T_F@@AAVengdocObj@@H@Z 004112d0 f OpenGLSettings.obj
 0001:00010300       ?GotoSet@eq_docs_intObj@@QAEAAVStoreObj@@AAVengdocObj@@W4NavCtrl@@H@Z 00411300 f OpenGLSettings.obj
 0001:00010330       ?DisConnect@eq_docs_intObj@@QAE?AW4T_F@@AAVengdocObj@@H@Z 00411330 f OpenGLSettings.obj
 0001:00010360       ?Set@eq_docs_intObj@@QAEHAAVengdocObj@@@Z 00411360 f OpenGLSettings.obj
 0001:00010380       ??6eq_docs_intObj@@QAEAAVengdocObj@@AAV1@@Z 00411380 f OpenGLSettings.obj
 0001:000103b0       ?MemberUsingSet@eq_docs_intObj@@QAEAAVengdocObj@@AAV2@H@Z 004113b0 f OpenGLSettings.obj
 0001:000103e0       ??0eq_docs_intObj@@QAE@AAV0@@Z 004113e0 f OpenGLSettings.obj
 0001:00010460       ??4eq_docs_intObj@@QAEAAV0@AAV0@@Z 00411460 f OpenGLSettings.obj
 0001:00010490       ??_Geq_docs_intObj@@UAEPAXI@Z 00411490 f OpenGLSettings.obj
 0001:000104d0       ??_Eeq_docs_intObj@@UAEPAXI@Z 004114d0 f OpenGLSettings.obj
 0001:00010540       ??0eq_mproc_intObj@@QAE@XZ 00411540 f OpenGLSettings.obj
 0001:000105c0       ??0eq_mproc_intObj@@QAE@AAVSetObj@@@Z 004115c0 f OpenGLSettings.obj
 0001:00010640       ??0eq_mproc_intObj@@QAE@AAVequipObj@@@Z 00411640 f OpenGLSettings.obj
 0001:000106d0       ??0eq_mproc_intObj@@QAE@AAVmprocObj@@@Z 004116d0 f OpenGLSettings.obj
 0001:00010760       ??1eq_mproc_intObj@@UAE@XZ 00411760 f OpenGLSettings.obj
 0001:000107d0       ?RecType@eq_mproc_intObj@@UAEHXZ 004117d0 f OpenGLSettings.obj
 0001:000107f0       ?RecName@eq_mproc_intObj@@UAEPADXZ 004117f0 f OpenGLSettings.obj
 0001:00010810       ?_GetDb@eq_mproc_intObj@@UAEPAVVistaDb@@XZ 00411810 f OpenGLSettings.obj
 0001:00010830       ??Aeq_mproc_intObj@@QAEAAV0@W4NavCtrl@@@Z 00411830 f OpenGLSettings.obj
 0001:00010860       ??Aeq_mproc_intObj@@QAEAAV0@AAVKeyObj@@@Z 00411860 f OpenGLSettings.obj
 0001:00010890       ??Aeq_mproc_intObj@@QAEAAV0@AAVDbAddr@@@Z 00411890 f OpenGLSettings.obj
 0001:000108c0       ??Eeq_mproc_intObj@@QAEAAV0@XZ 004118c0 f OpenGLSettings.obj
 0001:000108e0       ??Feq_mproc_intObj@@QAEAAV0@XZ 004118e0 f OpenGLSettings.obj
 0001:00010900       ??Eeq_mproc_intObj@@QAEAAV0@H@Z 00411900 f OpenGLSettings.obj
 0001:00010920       ??Feq_mproc_intObj@@QAEAAV0@H@Z 00411920 f OpenGLSettings.obj
 0001:00010940       ?Connect@eq_mproc_intObj@@QAE?AW4T_F@@AAVequipObj@@H@Z 00411940 f OpenGLSettings.obj
 0001:00010970       ?GotoSet@eq_mproc_intObj@@QAEAAVStoreObj@@AAVequipObj@@W4NavCtrl@@H@Z 00411970 f OpenGLSettings.obj
 0001:000109a0       ?DisConnect@eq_mproc_intObj@@QAE?AW4T_F@@AAVequipObj@@H@Z 004119a0 f OpenGLSettings.obj
 0001:000109d0       ?Set@eq_mproc_intObj@@QAEHAAVequipObj@@@Z 004119d0 f OpenGLSettings.obj
 0001:000109f0       ??6eq_mproc_intObj@@QAEAAVequipObj@@AAV1@@Z 004119f0 f OpenGLSettings.obj
 0001:00010a20       ?MemberUsingSet@eq_mproc_intObj@@QAEAAVequipObj@@AAV2@H@Z 00411a20 f OpenGLSettings.obj
 0001:00010a50       ?Connect@eq_mproc_intObj@@QAE?AW4T_F@@AAVmprocObj@@H@Z 00411a50 f OpenGLSettings.obj
 0001:00010a80       ?GotoSet@eq_mproc_intObj@@QAEAAVStoreObj@@AAVmprocObj@@W4NavCtrl@@H@Z 00411a80 f OpenGLSettings.obj
 0001:00010ab0       ?DisConnect@eq_mproc_intObj@@QAE?AW4T_F@@AAVmprocObj@@H@Z 00411ab0 f OpenGLSettings.obj
 0001:00010ae0       ?Set@eq_mproc_intObj@@QAEHAAVmprocObj@@@Z 00411ae0 f OpenGLSettings.obj
 0001:00010b00       ??6eq_mproc_intObj@@QAEAAVmprocObj@@AAV1@@Z 00411b00 f OpenGLSettings.obj
 0001:00010b30       ?MemberUsingSet@eq_mproc_intObj@@QAEAAVmprocObj@@AAV2@H@Z 00411b30 f OpenGLSettings.obj
 0001:00010b60       ??0eq_mproc_intObj@@QAE@AAV0@@Z 00411b60 f OpenGLSettings.obj
 0001:00010be0       ??4eq_mproc_intObj@@QAEAAV0@AAV0@@Z 00411be0 f OpenGLSettings.obj
 0001:00010c10       ??_Geq_mproc_intObj@@UAEPAXI@Z 00411c10 f OpenGLSettings.obj
 0001:00010c50       ??_Eeq_mproc_intObj@@UAEPAXI@Z 00411c50 f OpenGLSettings.obj
 0001:00010cc0       ??0image_ptrObj@@QAE@XZ    00411cc0 f OpenGLSettings.obj
 0001:00010d50       ??1image_ptrObj@@UAE@XZ    00411d50 f OpenGLSettings.obj
 0001:00010dc0       ?RecType@image_ptrObj@@UAEHXZ 00411dc0 f OpenGLSettings.obj
 0001:00010de0       ?TotalSize@image_ptrObj@@UAEJXZ 00411de0 f OpenGLSettings.obj
 0001:00010e00       ?MakeEmpty@image_ptrObj@@QAEXXZ 00411e00 f OpenGLSettings.obj
 0001:00010e40       ?RecData@image_ptrObj@@UAEPAXXZ 00411e40 f OpenGLSettings.obj
 0001:00010e60       ?_GetDb@image_ptrObj@@UAEPAVVistaDb@@XZ 00411e60 f OpenGLSettings.obj
 0001:00010e80       ??Aimage_ptrObj@@QAEAAV0@W4NavCtrl@@@Z 00411e80 f OpenGLSettings.obj
 0001:00010eb0       ??Aimage_ptrObj@@QAEAAV0@AAVKeyObj@@@Z 00411eb0 f OpenGLSettings.obj
 0001:00010ee0       ??Aimage_ptrObj@@QAEAAV0@AAVDbAddr@@@Z 00411ee0 f OpenGLSettings.obj
 0001:00010f10       ??Eimage_ptrObj@@QAEAAV0@XZ 00411f10 f OpenGLSettings.obj
 0001:00010f30       ??Fimage_ptrObj@@QAEAAV0@XZ 00411f30 f OpenGLSettings.obj
 0001:00010f50       ??Eimage_ptrObj@@QAEAAV0@H@Z 00411f50 f OpenGLSettings.obj
 0001:00010f70       ??Fimage_ptrObj@@QAEAAV0@H@Z 00411f70 f OpenGLSettings.obj
 0001:00010f90       ??5image_ptrObj@@QAEAAVimage_equip_boxObj@@AAV1@@Z 00411f90 f OpenGLSettings.obj
 0001:00010fc0       ?OwnerUsingSet@image_ptrObj@@QAEAAVimage_equip_boxObj@@AAV2@H@Z 00411fc0 f OpenGLSettings.obj
 0001:00010ff0       ?Members@image_ptrObj@@QAEJAAVimage_equip_boxObj@@H@Z 00411ff0 f OpenGLSettings.obj
 0001:00011020       ??0image_ptrObj@@QAE@AAV0@@Z 00412020 f OpenGLSettings.obj
 0001:000110c0       ??4image_ptrObj@@QAEAAV0@AAV0@@Z 004120c0 f OpenGLSettings.obj
 0001:00011120       ??_Gimage_ptrObj@@UAEPAXI@Z 00412120 f OpenGLSettings.obj
 0001:00011160       ??_Eimage_ptrObj@@UAEPAXI@Z 00412160 f OpenGLSettings.obj
 0001:000111d0       ??0image_equip_boxObj@@QAE@XZ 004121d0 f OpenGLSettings.obj
 0001:00011250       ??0image_equip_boxObj@@QAE@AAVSetObj@@@Z 00412250 f OpenGLSettings.obj
 0001:000112d0       ??1image_equip_boxObj@@UAE@XZ 004122d0 f OpenGLSettings.obj
 0001:00011340       ?RecType@image_equip_boxObj@@UAEHXZ 00412340 f OpenGLSettings.obj
 0001:00011360       ?TotalSize@image_equip_boxObj@@UAEJXZ 00412360 f OpenGLSettings.obj
 0001:00011380       ?MakeEmpty@image_equip_boxObj@@QAEXXZ 00412380 f OpenGLSettings.obj
 0001:000113c0       ?RecData@image_equip_boxObj@@UAEPAXXZ 004123c0 f OpenGLSettings.obj
 0001:000113e0       ?_GetDb@image_equip_boxObj@@UAEPAVVistaDb@@XZ 004123e0 f OpenGLSettings.obj
 0001:00011400       ??Aimage_equip_boxObj@@QAEAAV0@W4NavCtrl@@@Z 00412400 f OpenGLSettings.obj
 0001:00011430       ??Aimage_equip_boxObj@@QAEAAV0@AAVKeyObj@@@Z 00412430 f OpenGLSettings.obj
 0001:00011460       ??Aimage_equip_boxObj@@QAEAAV0@AAVDbAddr@@@Z 00412460 f OpenGLSettings.obj
 0001:00011490       ??Eimage_equip_boxObj@@QAEAAV0@XZ 00412490 f OpenGLSettings.obj
 0001:000114b0       ??Fimage_equip_boxObj@@QAEAAV0@XZ 004124b0 f OpenGLSettings.obj
 0001:000114d0       ??Eimage_equip_boxObj@@QAEAAV0@H@Z 004124d0 f OpenGLSettings.obj
 0001:000114f0       ??Fimage_equip_boxObj@@QAEAAV0@H@Z 004124f0 f OpenGLSettings.obj
 0001:00011510       ?Connect@image_equip_boxObj@@QAE?AW4T_F@@AAVimage_ptrObj@@H@Z 00412510 f OpenGLSettings.obj
 0001:00011540       ?GotoSet@image_equip_boxObj@@QAEAAVStoreObj@@AAVimage_ptrObj@@W4NavCtrl@@H@Z 00412540 f OpenGLSettings.obj
 0001:00011570       ?DisConnect@image_equip_boxObj@@QAE?AW4T_F@@AAVimage_ptrObj@@H@Z 00412570 f OpenGLSettings.obj
 0001:000115a0       ?Set@image_equip_boxObj@@QAEHAAVimage_ptrObj@@@Z 004125a0 f OpenGLSettings.obj
 0001:000115c0       ??6image_equip_boxObj@@QAEAAVimage_ptrObj@@AAV1@@Z 004125c0 f OpenGLSettings.obj
 0001:000115f0       ?MemberUsingSet@image_equip_boxObj@@QAEAAVimage_ptrObj@@AAV2@H@Z 004125f0 f OpenGLSettings.obj
 0001:00011620       ?Connect@image_equip_boxObj@@QAE?AW4T_F@@AAVequipObj@@H@Z 00412620 f OpenGLSettings.obj
 0001:00011650       ?GotoSet@image_equip_boxObj@@QAEAAVStoreObj@@AAVequipObj@@W4NavCtrl@@H@Z 00412650 f OpenGLSettings.obj
 0001:00011680       ?DisConnect@image_equip_boxObj@@QAE?AW4T_F@@AAVequipObj@@H@Z 00412680 f OpenGLSettings.obj
 0001:000116b0       ?Set@image_equip_boxObj@@QAEHAAVequipObj@@@Z 004126b0 f OpenGLSettings.obj
 0001:000116d0       ??6image_equip_boxObj@@QAEAAVequipObj@@AAV1@@Z 004126d0 f OpenGLSettings.obj
 0001:00011700       ?MemberUsingSet@image_equip_boxObj@@QAEAAVequipObj@@AAV2@H@Z 00412700 f OpenGLSettings.obj
 0001:00011730       ??0image_equip_boxObj@@QAE@AAV0@@Z 00412730 f OpenGLSettings.obj
 0001:000117f0       ??4image_equip_boxObj@@QAEAAV0@AAV0@@Z 004127f0 f OpenGLSettings.obj
 0001:00011860       ??_Gimage_equip_boxObj@@UAEPAXI@Z 00412860 f OpenGLSettings.obj
 0001:000118a0       ??_Eimage_equip_boxObj@@UAEPAXI@Z 004128a0 f OpenGLSettings.obj
 0001:00011910       ??0equip_name_KeyObj@@QAE@XZ 00412910 f OpenGLSettings.obj
 0001:00011950       ??1equip_name_KeyObj@@UAE@XZ 00412950 f OpenGLSettings.obj
 0001:00011970       ??0equip_name_KeyObj@@QAE@ABV0@@Z 00412970 f OpenGLSettings.obj
 0001:000119e0       ??4equip_name_KeyObj@@QAEAAV0@ABV0@@Z 004129e0 f OpenGLSettings.obj
 0001:00011a60       ??_Gequip_name_KeyObj@@UAEPAXI@Z 00412a60 f OpenGLSettings.obj
 0001:00011aa0       ??_Eequip_name_KeyObj@@UAEPAXI@Z 00412aa0 f OpenGLSettings.obj
 0001:00011b10       ??0engdoc_docno_KeyObj@@QAE@XZ 00412b10 f OpenGLSettings.obj
 0001:00011b50       ??1engdoc_docno_KeyObj@@UAE@XZ 00412b50 f OpenGLSettings.obj
 0001:00011b70       ??0engdoc_docno_KeyObj@@QAE@ABV0@@Z 00412b70 f OpenGLSettings.obj
 0001:00011bf0       ??4engdoc_docno_KeyObj@@QAEAAV0@ABV0@@Z 00412bf0 f OpenGLSettings.obj
 0001:00011c70       ??_Gengdoc_docno_KeyObj@@UAEPAXI@Z 00412c70 f OpenGLSettings.obj
 0001:00011cb0       ??_Eengdoc_docno_KeyObj@@UAEPAXI@Z 00412cb0 f OpenGLSettings.obj
 0001:00011d20       ??0mproc_name_KeyObj@@QAE@XZ 00412d20 f OpenGLSettings.obj
 0001:00011d60       ??1mproc_name_KeyObj@@UAE@XZ 00412d60 f OpenGLSettings.obj
 0001:00011d80       ??0mproc_name_KeyObj@@QAE@ABV0@@Z 00412d80 f OpenGLSettings.obj
 0001:00011df0       ??4mproc_name_KeyObj@@QAEAAV0@ABV0@@Z 00412df0 f OpenGLSettings.obj
 0001:00011e70       ??_Gmproc_name_KeyObj@@UAEPAXI@Z 00412e70 f OpenGLSettings.obj
 0001:00011eb0       ??_Emproc_name_KeyObj@@UAEPAXI@Z 00412eb0 f OpenGLSettings.obj
 0001:00011f20       ??0parts_cat_no_KeyObj@@QAE@XZ 00412f20 f OpenGLSettings.obj
 0001:00011f60       ??1parts_cat_no_KeyObj@@UAE@XZ 00412f60 f OpenGLSettings.obj
 0001:00011f80       ??0parts_cat_no_KeyObj@@QAE@ABV0@@Z 00412f80 f OpenGLSettings.obj
 0001:00012000       ??4parts_cat_no_KeyObj@@QAEAAV0@ABV0@@Z 00413000 f OpenGLSettings.obj
 0001:00012080       ??_Gparts_cat_no_KeyObj@@UAEPAXI@Z 00413080 f OpenGLSettings.obj
 0001:000120c0       ??_Eparts_cat_no_KeyObj@@UAEPAXI@Z 004130c0 f OpenGLSettings.obj
 0001:00012130       ??0vendor_vendcode_KeyObj@@QAE@XZ 00413130 f OpenGLSettings.obj
 0001:00012170       ??1vendor_vendcode_KeyObj@@UAE@XZ 00413170 f OpenGLSettings.obj
 0001:00012190       ??0vendor_vendcode_KeyObj@@QAE@ABV0@@Z 00413190 f OpenGLSettings.obj
 0001:00012200       ??4vendor_vendcode_KeyObj@@QAEAAV0@ABV0@@Z 00413200 f OpenGLSettings.obj
 0001:00012260       ??_Gvendor_vendcode_KeyObj@@UAEPAXI@Z 00413260 f OpenGLSettings.obj
 0001:000122a0       ??_Evendor_vendcode_KeyObj@@UAEPAXI@Z 004132a0 f OpenGLSettings.obj
 0001:00012310       ??0commsys_name_KeyObj@@QAE@XZ 00413310 f OpenGLSettings.obj
 0001:00012350       ??1commsys_name_KeyObj@@UAE@XZ 00413350 f OpenGLSettings.obj
 0001:00012370       ??0commsys_name_KeyObj@@QAE@ABV0@@Z 00413370 f OpenGLSettings.obj
 0001:000123e0       ??4commsys_name_KeyObj@@QAEAAV0@ABV0@@Z 004133e0 f OpenGLSettings.obj
 0001:00012460       ??_Gcommsys_name_KeyObj@@UAEPAXI@Z 00413460 f OpenGLSettings.obj
 0001:000124a0       ??_Ecommsys_name_KeyObj@@UAEPAXI@Z 004134a0 f OpenGLSettings.obj
 0001:00012510       ??0image_ptr_dba_KeyObj@@QAE@XZ 00413510 f OpenGLSettings.obj
 0001:00012550       ??1image_ptr_dba_KeyObj@@UAE@XZ 00413550 f OpenGLSettings.obj
 0001:00012570       ??0image_ptr_dba_KeyObj@@QAE@ABV0@@Z 00413570 f OpenGLSettings.obj
 0001:000125e0       ??4image_ptr_dba_KeyObj@@QAEAAV0@ABV0@@Z 004135e0 f OpenGLSettings.obj
 0001:00012640       ??_Gimage_ptr_dba_KeyObj@@UAEPAXI@Z 00413640 f OpenGLSettings.obj
 0001:00012680       ??_Eimage_ptr_dba_KeyObj@@UAEPAXI@Z 00413680 f OpenGLSettings.obj
 0001:000126f0       ??0COpenGLSettings@@QAE@PAVCWnd@@@Z 004136f0 f OpenGLSettings.obj
 0001:00012856       ?DoDataExchange@COpenGLSettings@@MAEXPAVCDataExchange@@@Z 00413856 f OpenGLSettings.obj
 0001:00012a36       ?_GetBaseMessageMap@COpenGLSettings@@KGPBUAFX_MSGMAP@@XZ 00413a36 f OpenGLSettings.obj
 0001:00012a4b       ?GetMessageMap@COpenGLSettings@@MBEPBUAFX_MSGMAP@@XZ 00413a4b f OpenGLSettings.obj
 0001:00012a66       ?OnCancel@COpenGLSettings@@MAEXXZ 00413a66 f OpenGLSettings.obj
 0001:00012a84       ?OnOK@COpenGLSettings@@MAEXXZ 00413a84 f OpenGLSettings.obj
 0001:00012c60       ?Serialize@CObject@@UAEXAAVCArchive@@@Z 00413c60 f OpenGLSettings.obj
 0001:00012c80       ?AssertValid@CObject@@UBEXXZ 00413c80 f OpenGLSettings.obj
 0001:00012ca0       ?Dump@CObject@@UBEXAAVCDumpContext@@@Z 00413ca0 f OpenGLSettings.obj
 0001:00012cc0       ?BeginModalState@CWnd@@UAEXXZ 00413cc0 f OpenGLSettings.obj
 0001:00012cf0       ?EndModalState@CWnd@@UAEXXZ 00413cf0 f OpenGLSettings.obj
 0001:00012d20       ??_ECOpenGLSettings@@UAEPAXI@Z 00413d20 f OpenGLSettings.obj
 0001:00012d20       ??_GCOpenGLSettings@@UAEPAXI@Z 00413d20 f OpenGLSettings.obj
 0001:00012d60       ??3CObject@@SGXPAX@Z       00413d60 f OpenGLSettings.obj
 0001:00012d80       ??1COpenGLSettings@@UAE@XZ 00413d80 f OpenGLSettings.obj
 0001:00012de0       ?DoDataExchange@CWnd@@MAEXPAVCDataExchange@@@Z 00413de0 f OpenGLSettings.obj
 0001:00012e00       ?GetSelectType@CDTCellSet@@QAEJXZ 00413e00 f dtcellset.obj
 0001:00012e29       ?SetSelectType@CDTCellSet@@QAEXJ@Z 00413e29 f dtcellset.obj
 0001:00012e55       ?GetNullString@CDTCellSet@@QAE?AVCString@@XZ 00413e55 f dtcellset.obj
 0001:00012ef4       ?SetNullString@CDTCellSet@@QAEXPBD@Z 00413ef4 f dtcellset.obj
 0001:00012f20       ?GetItem@CDTCellSet@@QAE?AVCDTCell@@JJ@Z 00413f20 f dtcellset.obj
 0001:00012fb1       ?SetItem@CDTCellSet@@QAEXJJPAUIDispatch@@@Z 00413fb1 f dtcellset.obj
 0001:00012fee       ?SelectBlock@CDTCellSet@@QAEXJJJJH@Z 00413fee f dtcellset.obj
 0001:00013033       ?GetSelect@CDTCellSet@@QAEHPAJ000@Z 00414033 f dtcellset.obj
 0001:00013079       ?GetCellAtPoint@CDTCellSet@@QAEJMMPAFPAJ1@Z 00414079 f dtcellset.obj
 0001:000130cd       ?Get_Item@CDTCellSet@@QAE?AVCDTCell@@JJ@Z 004140cd f dtcellset.obj
 0001:0001315e       ?Set_Item@CDTCellSet@@QAEXJJPAUIDispatch@@@Z 0041415e f dtcellset.obj
 0001:000131a0       ??0CDTCell@@QAE@PAUIDispatch@@@Z 004141a0 f dtcellset.obj
 0001:00013210       ??1COleDispatchDriver@@QAE@XZ 00414210 f dtcellset.obj
 0001:00013230       ??1CDTCell@@QAE@XZ         00414230 f dtcellset.obj
 0001:00013290       ?GetOpenGLPalette@@YAPAUtagLOGPALETTE@@XZ 00414290 f paletteOGL.obj
 0001:000132b0       ?GetBackColor@CDTColumn@@QAEKXZ 004142b0 f dtcolumn.obj
 0001:000132d9       ?SetBackColor@CDTColumn@@QAEXK@Z 004142d9 f dtcolumn.obj
 0001:00013305       ?GetForeColor@CDTColumn@@QAEKXZ 00414305 f dtcolumn.obj
 0001:0001332e       ?SetForeColor@CDTColumn@@QAEXK@Z 0041432e f dtcolumn.obj
 0001:0001335a       ?GetSelBackColor@CDTColumn@@QAEKXZ 0041435a f dtcolumn.obj
 0001:00013383       ?SetSelBackColor@CDTColumn@@QAEXK@Z 00414383 f dtcolumn.obj
 0001:000133af       ?GetSelForeColor@CDTColumn@@QAEKXZ 004143af f dtcolumn.obj
 0001:000133d8       ?SetSelForeColor@CDTColumn@@QAEXK@Z 004143d8 f dtcolumn.obj
 0001:00013404       ?GetFont@CDTColumn@@QAE?AVCOleFont@@XZ 00414404 f dtcolumn.obj
 0001:00013482       ?SetFont@CDTColumn@@QAEXPAUIDispatch@@@Z 00414482 f dtcolumn.obj
 0001:000134ae       ?GetDataType@CDTColumn@@QAEJXZ 004144ae f dtcolumn.obj
 0001:000134d7       ?SetDataType@CDTColumn@@QAEXJ@Z 004144d7 f dtcolumn.obj
 0001:00013503       ?GetDataLen@CDTColumn@@QAEFXZ 00414503 f dtcolumn.obj
 0001:0001352d       ?SetDataLen@CDTColumn@@QAEXF@Z 0041452d f dtcolumn.obj
 0001:0001355a       ?GetExtra1@CDTColumn@@QAEJXZ 0041455a f dtcolumn.obj
 0001:00013583       ?SetExtra1@CDTColumn@@QAEXJ@Z 00414583 f dtcolumn.obj
 0001:000135af       ?GetExtra2@CDTColumn@@QAEJXZ 004145af f dtcolumn.obj
 0001:000135d8       ?SetExtra2@CDTColumn@@QAEXJ@Z 004145d8 f dtcolumn.obj
 0001:00013604       ?GetFormat@CDTColumn@@QAE?AVCString@@XZ 00414604 f dtcolumn.obj
 0001:000136a3       ?SetFormat@CDTColumn@@QAEXPBD@Z 004146a3 f dtcolumn.obj
 0001:000136cf       ?GetHeading@CDTColumn@@QAE?AVCString@@XZ 004146cf f dtcolumn.obj
 0001:0001376e       ?SetHeading@CDTColumn@@QAEXPBD@Z 0041476e f dtcolumn.obj
 0001:0001379a       ?GetList@CDTColumn@@QAE?AVCString@@XZ 0041479a f dtcolumn.obj
 0001:00013839       ?SetList@CDTColumn@@QAEXPBD@Z 00414839 f dtcolumn.obj
 0001:00013865       ?GetDataEdit@CDTColumn@@QAEJXZ 00414865 f dtcolumn.obj
 0001:0001388e       ?SetDataEdit@CDTColumn@@QAEXJ@Z 0041488e f dtcolumn.obj
 0001:000138ba       ?GetDefVal@CDTColumn@@QAE?AVCString@@XZ 004148ba f dtcolumn.obj
 0001:00013959       ?SetDefVal@CDTColumn@@QAEXPBD@Z 00414959 f dtcolumn.obj
 0001:00013985       ?GetHidden@CDTColumn@@QAEHXZ 00414985 f dtcolumn.obj
 0001:000139ae       ?SetHidden@CDTColumn@@QAEXH@Z 004149ae f dtcolumn.obj
 0001:000139da       ?GetLocked@CDTColumn@@QAEHXZ 004149da f dtcolumn.obj
 0001:00013a03       ?SetLocked@CDTColumn@@QAEXH@Z 00414a03 f dtcolumn.obj
 0001:00013a2f       ?GetName@CDTColumn@@QAE?AVCString@@XZ 00414a2f f dtcolumn.obj
 0001:00013ace       ?SetName@CDTColumn@@QAEXPBD@Z 00414ace f dtcolumn.obj
 0001:00013afa       ?GetOverwrite@CDTColumn@@QAEHXZ 00414afa f dtcolumn.obj
 0001:00013b23       ?SetOverwrite@CDTColumn@@QAEXH@Z 00414b23 f dtcolumn.obj
 0001:00013b4f       ?GetValue@CDTColumn@@QAE?AUtagVARIANT@@XZ 00414b4f f dtcolumn.obj
 0001:00013b96       ?SetValue@CDTColumn@@QAEXABUtagVARIANT@@@Z 00414b96 f dtcolumn.obj
 0001:00013bc2       ?GetHeadAlign@CDTColumn@@QAEJXZ 00414bc2 f dtcolumn.obj
 0001:00013beb       ?SetHeadAlign@CDTColumn@@QAEXJ@Z 00414beb f dtcolumn.obj
 0001:00013c17       ?GetDataAlign@CDTColumn@@QAEJXZ 00414c17 f dtcolumn.obj
 0001:00013c40       ?SetDataAlign@CDTColumn@@QAEXJ@Z 00414c40 f dtcolumn.obj
 0001:00013c6c       ?GetResize@CDTColumn@@QAEJXZ 00414c6c f dtcolumn.obj
 0001:00013c95       ?SetResize@CDTColumn@@QAEXJ@Z 00414c95 f dtcolumn.obj
 0001:00013cc1       ?GetWidth@CDTColumn@@QAEMXZ 00414cc1 f dtcolumn.obj
 0001:00013cea       ?SetWidth@CDTColumn@@QAEXM@Z 00414cea f dtcolumn.obj
 0001:00013d1b       ?GetEditAutoHScroll@CDTColumn@@QAEHXZ 00414d1b f dtcolumn.obj
 0001:00013d44       ?SetEditAutoHScroll@CDTColumn@@QAEXH@Z 00414d44 f dtcolumn.obj
 0001:00013d70       ?GetEditAutoVScroll@CDTColumn@@QAEHXZ 00414d70 f dtcolumn.obj
 0001:00013d99       ?SetEditAutoVScroll@CDTColumn@@QAEXH@Z 00414d99 f dtcolumn.obj
 0001:00013dc5       ?GetEditLowercase@CDTColumn@@QAEHXZ 00414dc5 f dtcolumn.obj
 0001:00013dee       ?SetEditLowercase@CDTColumn@@QAEXH@Z 00414dee f dtcolumn.obj
 0001:00013e1a       ?GetEditUppercase@CDTColumn@@QAEHXZ 00414e1a f dtcolumn.obj
 0001:00013e43       ?SetEditUppercase@CDTColumn@@QAEXH@Z 00414e43 f dtcolumn.obj
 0001:00013e6f       ?GetEditMultiLine@CDTColumn@@QAEHXZ 00414e6f f dtcolumn.obj
 0001:00013e98       ?SetEditMultiLine@CDTColumn@@QAEXH@Z 00414e98 f dtcolumn.obj
 0001:00013ec4       ?GetEditWantReturn@CDTColumn@@QAEHXZ 00414ec4 f dtcolumn.obj
 0001:00013eed       ?SetEditWantReturn@CDTColumn@@QAEXH@Z 00414eed f dtcolumn.obj
 0001:00013f19       ?GetSelected@CDTColumn@@QAEHXZ 00414f19 f dtcolumn.obj
 0001:00013f42       ?SetSelected@CDTColumn@@QAEXH@Z 00414f42 f dtcolumn.obj
 0001:00013f6e       ?GetBound@CDTColumn@@QAEHXZ 00414f6e f dtcolumn.obj
 0001:00013f97       ?SetBound@CDTColumn@@QAEXH@Z 00414f97 f dtcolumn.obj
 0001:00013fc3       ?Invalidate@CDTColumn@@QAEXXZ 00414fc3 f dtcolumn.obj
 0001:00013fef       ?Total@CDTColumn@@QAE?AUtagVARIANT@@XZ 00414fef f dtcolumn.obj
 0001:0001403e       ?Search@CDTColumn@@QAEJABUtagVARIANT@@J@Z 0041503e f dtcolumn.obj
 0001:00014080       ??0COleFont@@QAE@PAUIDispatch@@@Z 00415080 f dtcolumn.obj
 0001:000140f0       ??1COleFont@@QAE@XZ        004150f0 f dtcolumn.obj
 0001:00014150       ?strsub@@YAPADPADHH@Z      00415150 f numcnvt.obj
 0001:00014199       ?strstrip@@YAPADPADH@Z     00415199 f numcnvt.obj
 0001:00014225       ?ConvertUnits@@YAPADPADHN@Z 00415225 f numcnvt.obj
 0001:0001477a       ?EnglishToMetric@@YAHPADPAN@Z 0041577a f numcnvt.obj
 0001:000149b0       ??0PtgWorld@@QAE@XZ        004159b0 f PtgWorld.obj
 0001:00014ab2       ??1PtgWorld@@UAE@XZ        00415ab2 f PtgWorld.obj
 0001:00014b1a       ?InitWorld@PtgWorld@@QAEKPAX@Z 00415b1a f PtgWorld.obj
 0001:00014b8b       ?CreateSystem@PtgWorld@@QAEHPAVPtg3DNode@@@Z 00415b8b f PtgWorld.obj
 0001:00014ce6       ?CreateTargets@PtgWorld@@QAEHPAVPtg3DNode@@@Z 00415ce6 f PtgWorld.obj
 0001:00014fe0       ?CreateReference@PtgWorld@@QAEHPAVPtg3DNode@@@Z 00415fe0 f PtgWorld.obj
 0001:000151bf       ?CreateAxes@PtgWorld@@QAEHPAVPtg3DNode@@@Z 004161bf f PtgWorld.obj
 0001:000154f7       ?CreateCameras@PtgWorld@@QAEHPAVPtg3DNode@@@Z 004164f7 f PtgWorld.obj
 0001:00015d01       ?CreateReview@PtgWorld@@QAEHPAVPtg3DNode@@@Z 00416d01 f PtgWorld.obj
 0001:00015f64       ?CreateModel@PtgWorld@@QAEHPAVPtg3DNode@@@Z 00416f64 f PtgWorld.obj
 0001:00016074       ?CreateRays@PtgWorld@@QAEHPAVPtg3DNode@@@Z 00417074 f PtgWorld.obj
 0001:00016175       ?CreateCalculated@PtgWorld@@QAEHXZ 00417175 f PtgWorld.obj
 0001:00016276       ?FindTMatrix@PtgWorld@@QAEHPAD0PAN@Z 00417276 f PtgWorld.obj
 0001:0001646b       ?ConvertCameraMatrix@PtgWorld@@QAEPANQAN@Z 0041746b f PtgWorld.obj
 0001:0001664d       ?CreateColumns@PtgWorld@@QAEHXZ 0041764d f PtgWorld.obj
 0001:00016739       ?CreateZones@PtgWorld@@QAEHXZ 00417739 f PtgWorld.obj
 0001:00016830       ?setActive@Ptg3DNode@@QAEXH@Z 00417830 f PtgWorld.obj
 0001:00016860       ?getType@PtgWorld@@UAEPBDXZ 00417860 f PtgWorld.obj
 0001:00016880       ??_GPtgWorld@@UAEPAXI@Z    00417880 f PtgWorld.obj
 0001:00016880       ??_EPtgWorld@@UAEPAXI@Z    00417880 f PtgWorld.obj
 0001:000168c0       ?AfxGetApp@@YGPAVCWinApp@@XZ 004178c0 f PtgWorld.obj
 0001:000168e0       ??BCString@@QBEPBDXZ       004178e0 f PtgWorld.obj
 0001:00016900       ?CreateObject@CFrameMods@@SGPAVCObject@@XZ 00417900 f mfc_frames.obj
 0001:0001698b       ?_GetBaseClass@CFrameMods@@KGPAUCRuntimeClass@@XZ 0041798b f mfc_frames.obj
 0001:000169a0       ?GetRuntimeClass@CFrameMods@@UBEPAUCRuntimeClass@@XZ 004179a0 f mfc_frames.obj
 0001:000169bb       ??0CFrameMods@@IAE@XZ      004179bb f mfc_frames.obj
 0001:00016a2a       ?_GetBaseMessageMap@CFrameMods@@KGPBUAFX_MSGMAP@@XZ 00417a2a f mfc_frames.obj
 0001:00016a3f       ?GetMessageMap@CFrameMods@@MBEPBUAFX_MSGMAP@@XZ 00417a3f f mfc_frames.obj
 0001:00016a5a       ?LoadFrame@CFrameMods@@UAEHIKPAVCWnd@@PAUCCreateContext@@@Z 00417a5a f mfc_frames.obj
 0001:00016c40       ?PreCreateWindow@CFrameMods@@MAEHAAUtagCREATESTRUCTA@@@Z 00417c40 f mfc_frames.obj
 0001:00016c90       ??2CObject@@SGPAXI@Z       00417c90 f mfc_frames.obj
 0001:00016cb0       ??_ECFrameMods@@UAEPAXI@Z  00417cb0 f mfc_frames.obj
 0001:00016cb0       ??_GCFrameMods@@UAEPAXI@Z  00417cb0 f mfc_frames.obj
 0001:00016cf0       ??1CMDIChildWnd@@UAE@XZ    00417cf0 f mfc_frames.obj
 0001:00016d50       ??1CFrameMods@@UAE@XZ      00417d50 f mfc_frames.obj
 0001:00016db0       ?drawCircle@@YAXMM@Z       00417db0 f Ptg3DCylinderObjOGL.obj
 0001:00016e00       ?drawcylinder@@YAXMNN@Z    00417e00 f Ptg3DCylinderObjOGL.obj
 0001:00016ee7       ?drawWireframe@Ptg3DCylinderObj@@MAEXXZ 00417ee7 f Ptg3DCylinderObjOGL.obj
 0001:00016f75       ?drawSolid@Ptg3DCylinderObj@@MAEXXZ 00417f75 f Ptg3DCylinderObjOGL.obj
 0001:00017010       ?GetStatus@TransAction@@QAE?AW4TrStatus@@XZ 00418010 f ColumnEditor.obj
 0001:00017030       ?GetName@TransAction@@QAEPADXZ 00418030 f ColumnEditor.obj
 0001:00017050       ?SetError@TransAction@@QAEXXZ 00418050 f ColumnEditor.obj
 0001:00017070       ??4TransAction@@QAEAAV0@ABV0@@Z 00418070 f ColumnEditor.obj
 0001:000170b0       ??_FTransAction@@QAEXXZ    004180b0 f ColumnEditor.obj
 0001:000170d0       ??_GTransAction@@QAEPAXI@Z 004180d0 f ColumnEditor.obj
 0001:00017110       ??_ETransAction@@QAEPAXI@Z 00418110 f ColumnEditor.obj
 0001:00017180       ?CreateObject@CColumnEditor@@SGPAVCObject@@XZ 00418180 f ColumnEditor.obj
 0001:0001720b       ?_GetBaseClass@CColumnEditor@@KGPAUCRuntimeClass@@XZ 0041820b f ColumnEditor.obj
 0001:00017220       ?GetRuntimeClass@CColumnEditor@@UBEPAUCRuntimeClass@@XZ 00418220 f ColumnEditor.obj
 0001:0001723b       ??0CColumnEditor@@IAE@XZ   0041823b f ColumnEditor.obj
 0001:00017312       ??1CColumnEditor@@MAE@XZ   00418312 f ColumnEditor.obj
 0001:000173ce       ?DoDataExchange@CColumnEditor@@MAEXPAVCDataExchange@@@Z 004183ce f ColumnEditor.obj
 0001:000173f2       ?_GetBaseMessageMap@CColumnEditor@@KGPBUAFX_MSGMAP@@XZ 004183f2 f ColumnEditor.obj
 0001:00017407       ?GetMessageMap@CColumnEditor@@MBEPBUAFX_MSGMAP@@XZ 00418407 f ColumnEditor.obj
 0001:00017422       ?_GetBaseEventSinkMap@CColumnEditor@@KGPBUAFX_EVENTSINKMAP@@XZ 00418422 f ColumnEditor.obj
 0001:00017437       ?GetEventSinkMap@CColumnEditor@@MBEPBUAFX_EVENTSINKMAP@@XZ 00418437 f ColumnEditor.obj
 0001:00017452       ?OnChangeColumngrid@CColumnEditor@@IAEXJJ@Z 00418452 f ColumnEditor.obj
 0001:00017ecf       ?OnInitialUpdate@CColumnEditor@@UAEXXZ 00418ecf f ColumnEditor.obj
 0001:00017fd9       ?OnSize@CColumnEditor@@IAEXIHH@Z 00418fd9 f ColumnEditor.obj
 0001:0001806c       ?InsertRow@CColumnEditor@@QAEXXZ 0041906c f ColumnEditor.obj
 0001:0001852b       ?DataTableToColumnData@@YAHAAVCDTData@@AAUColumnData@@@Z 0041952b f ColumnEditor.obj
 0001:00018634       ?ColumnDataToDataTable@@YAHAAUColumnData@@AAVCDTData@@@Z 00419634 f ColumnEditor.obj
 0001:00018756       ?OnBeforeDeleteRowColumngrid@CColumnEditor@@IAEXJPAJ@Z 00419756 f ColumnEditor.obj
 0001:000189c0       ?OnUnitsChange@CColumnEditor@@IAEJIJ@Z 004199c0 f ColumnEditor.obj
 0001:00018bda       ?UpdateUnits@CColumnEditor@@QAEXPAUColumnData@@@Z 00419bda f ColumnEditor.obj
 0001:00018db0       ??_GCColumnEditor@@MAEPAXI@Z 00419db0 f ColumnEditor.obj
 0001:00018db0       ??_ECColumnEditor@@MAEPAXI@Z 00419db0 f ColumnEditor.obj
 0001:00018df0       ??1CFormView@@UAE@XZ       00419df0 f ColumnEditor.obj
 0001:00018e50       ?GetElement@AllElements@@QAEPAVElementObj@@XZ 00419e50 f ColumnEditor.obj
 0001:00018e70       ?GetTransform@CFotobrowApp@@QAEPANXZ 00419e70 f ColumnEditor.obj
 0001:00018e90       ??0CDTData@@QAE@ABUtagVARIANT@@@Z 00419e90 f ColumnEditor.obj
 0001:00018f20       ??0COleVariant@@QAE@XZ     00419f20 f ColumnEditor.obj
 0001:00018f50       ??1COleVariant@@QAE@XZ     00419f50 f ColumnEditor.obj
 0001:00018f70       ??1CDTData@@QAE@XZ         00419f70 f ColumnEditor.obj
 0001:00018ff0       ??1CDTRowSet@@QAE@XZ       00419ff0 f ColumnEditor.obj
 0001:00019050       ??1CDTRow@@QAE@XZ          0041a050 f ColumnEditor.obj
 0001:000190b0       ?GetParent@CWnd@@QBEPAV1@XZ 0041a0b0 f ColumnEditor.obj
 0001:000190e0       ?GetDocument@CView@@QBEPAVCDocument@@XZ 0041a0e0 f ColumnEditor.obj
 0001:00019100       ?GetTitle@CDocument@@QBEABVCString@@XZ 0041a100 f ColumnEditor.obj
 0001:00019120       ?InvalidateRect@CWnd@@QAEXPBUtagRECT@@H@Z 0041a120 f ColumnEditor.obj
 0001:00019150       ?ShowScrollBar@CWnd@@QAEXIH@Z 0041a150 f ColumnEditor.obj
 0001:00019180       ??0CDTData@@QAE@XZ         0041a180 f ColumnEditor.obj
 0001:00019210       ?CreateArray@CDTData@@QAEXH@Z 0041a210 f ColumnEditor.obj
 0001:00019260       ?GetItem@CDTData@@QAEXPAJJ@Z 0041a260 f ColumnEditor.obj
 0001:000192c0       ??BCOleVariant@@QAEPAUtagVARIANT@@XZ 0041a2c0 f ColumnEditor.obj
 0001:000192e0       ?GetItem@CDTData@@QAEXPANJ@Z 0041a2e0 f ColumnEditor.obj
 0001:00019340       ?GetItem@CDTData@@QAEXQBDJ@Z 0041a340 f ColumnEditor.obj
 0001:00019400       ?PutItem@CDTData@@QAEXQBDJ@Z 0041a400 f ColumnEditor.obj
 0001:00019450       ?PutItem@CDTData@@QAEXJJ@Z 0041a450 f ColumnEditor.obj
 0001:000194a0       ?PutItem@CDTData@@QAEXNJ@Z 0041a4a0 f ColumnEditor.obj
 0001:000194f0       ?GetName@COleFont@@QAE?AVCString@@XZ 0041a4f0 f font.obj
 0001:0001958f       ?SetName@COleFont@@QAEXPBD@Z 0041a58f f font.obj
 0001:000195bb       ?GetSize@COleFont@@QAE?ATtagCY@@XZ 0041a5bb f font.obj
 0001:000195f4       ?SetSize@COleFont@@QAEXABTtagCY@@@Z 0041a5f4 f font.obj
 0001:00019620       ?GetBold@COleFont@@QAEHXZ  0041a620 f font.obj
 0001:00019649       ?SetBold@COleFont@@QAEXH@Z 0041a649 f font.obj
 0001:00019675       ?GetItalic@COleFont@@QAEHXZ 0041a675 f font.obj
 0001:0001969e       ?SetItalic@COleFont@@QAEXH@Z 0041a69e f font.obj
 0001:000196ca       ?GetUnderline@COleFont@@QAEHXZ 0041a6ca f font.obj
 0001:000196f3       ?SetUnderline@COleFont@@QAEXH@Z 0041a6f3 f font.obj
 0001:0001971f       ?GetStrikethrough@COleFont@@QAEHXZ 0041a71f f font.obj
 0001:00019748       ?SetStrikethrough@COleFont@@QAEXH@Z 0041a748 f font.obj
 0001:00019774       ?GetWeight@COleFont@@QAEFXZ 0041a774 f font.obj
 0001:0001979e       ?SetWeight@COleFont@@QAEXF@Z 0041a79e f font.obj
 0001:000197cb       ?GetCharset@COleFont@@QAEFXZ 0041a7cb f font.obj
 0001:000197f5       ?SetCharset@COleFont@@QAEXF@Z 0041a7f5 f font.obj
 0001:00019830       ??0COptionsDlg@@QAE@PAVCWnd@@@Z 0041a830 f optionsd.obj
 0001:000198b4       ?DoDataExchange@COptionsDlg@@MAEXPAVCDataExchange@@@Z 0041a8b4 f optionsd.obj
 0001:000198ed       ?_GetBaseMessageMap@COptionsDlg@@KGPBUAFX_MSGMAP@@XZ 0041a8ed f optionsd.obj
 0001:00019902       ?GetMessageMap@COptionsDlg@@MBEPBUAFX_MSGMAP@@XZ 0041a902 f optionsd.obj
 0001:0001991d       ?OnOK@COptionsDlg@@MAEXXZ  0041a91d f optionsd.obj
 0001:00019981       ?OnInitDialog@COptionsDlg@@MAEHXZ 0041a981 f optionsd.obj
 0001:000199c0       ??_ECOptionsDlg@@UAEPAXI@Z 0041a9c0 f optionsd.obj
 0001:000199c0       ??_GCOptionsDlg@@UAEPAXI@Z 0041a9c0 f optionsd.obj
 0001:00019a00       ??1COptionsDlg@@UAE@XZ     0041aa00 f optionsd.obj
 0001:00019a60       ?SendMessageA@CWnd@@QAEJIIJ@Z 0041aa60 f optionsd.obj
 0001:00019aa0       ?SetUnits@CFotobrowApp@@QAEXH@Z 0041aaa0 f optionsd.obj
 0001:00019ad0       ?_GetBaseClass@CMainFrame@@KGPAUCRuntimeClass@@XZ 0041aad0 f mainfrm.obj
 0001:00019ae5       ?GetRuntimeClass@CMainFrame@@UBEPAUCRuntimeClass@@XZ 0041aae5 f mainfrm.obj
 0001:00019b00       ?_GetBaseMessageMap@CMainFrame@@KGPBUAFX_MSGMAP@@XZ 0041ab00 f mainfrm.obj
 0001:00019b15       ?GetMessageMap@CMainFrame@@MBEPBUAFX_MSGMAP@@XZ 0041ab15 f mainfrm.obj
 0001:00019b30       ?InitWorld@@YAXPAX@Z       0041ab30 f mainfrm.obj
 0001:00019b4a       ?checkModelLocation@@YAHPAVPtg3DNode@@@Z 0041ab4a f mainfrm.obj
 0001:00019bd5       ?DataTableToGridRowData@@YAHAAVCDTData@@AAUGridRowData@@@Z 0041abd5 f mainfrm.obj
 0001:00019d3b       ?GridRowDataToDataTable@@YAHAAUGridRowData@@AAVCDTData@@@Z 0041ad3b f mainfrm.obj
 0001:00019edd       ??0CMainFrame@@QAE@XZ      0041aedd f mainfrm.obj
 0001:0001a10f       ??1CMainFrame@@UAE@XZ      0041b10f f mainfrm.obj
 0001:0001a29b       ?OnCreate@CMainFrame@@IAEHPAUtagCREATESTRUCTA@@@Z 0041b29b f mainfrm.obj
 0001:0001a755       ?DockControlBarLeftOf@CMainFrame@@QAEXPAVCToolBar@@0@Z 0041b755 f mainfrm.obj
 0001:0001a839       ?CreateOrActivateFrame@CMainFrame@@QAEXPAVCDocTemplate@@PAUCRuntimeClass@@@Z 0041b839 f mainfrm.obj
 0001:0001aa4a       ?OnPaletteChanged@CMainFrame@@IAEXPAVCWnd@@@Z 0041ba4a f mainfrm.obj
 0001:0001aa8a       ?OnQueryNewPalette@CMainFrame@@IAEHXZ 0041ba8a f mainfrm.obj
 0001:0001aaf9       ?OnViewToolbar@CMainFrame@@IAEXXZ 0041baf9 f mainfrm.obj
 0001:0001ab0f       ?OnViewGraphic@CMainFrame@@IAEXXZ 0041bb0f f mainfrm.obj
 0001:0001ac80       ?OnSetCursor@CMainFrame@@IAEHPAVCWnd@@II@Z 0041bc80 f mainfrm.obj
 0001:0001acd4       ?OnMeasure@CMainFrame@@IAEXXZ 0041bcd4 f mainfrm.obj
 0001:0001b198       ?OnUpdateViews@CMainFrame@@IAEXPAVCCmdUI@@@Z 0041c198 f mainfrm.obj
 0001:0001b2a5       ?OnGridMouseMove@CMainFrame@@IAEXIVCPoint@@@Z 0041c2a5 f mainfrm.obj
 0001:0001b2bd       ?OnSize@CMainFrame@@IAEXIHH@Z 0041c2bd f mainfrm.obj
 0001:0001b2e9       ?OnSettingsOptions@CMainFrame@@IAEXXZ 0041c2e9 f mainfrm.obj
 0001:0001b355       ?UpdateUnits@CMainFrame@@QAEXPAUGridRowData@@@Z 0041c355 f mainfrm.obj
 0001:0001b571       ?OnEditZones@CMainFrame@@IAEXXZ 0041c571 f mainfrm.obj
 0001:0001b5a0       ?OnEditColumns@CMainFrame@@IAEXXZ 0041c5a0 f mainfrm.obj
 0001:0001b5cf       ?OnEditImages@CMainFrame@@IAEXXZ 0041c5cf f mainfrm.obj
 0001:0001b64a       ?OnEditTransformations@CMainFrame@@IAEXXZ 0041c64a f mainfrm.obj
 0001:0001b6c5       ?OnLButtonUp@CMainFrame@@IAEXIVCPoint@@@Z 0041c6c5 f mainfrm.obj
 0001:0001b6fb       ?OnTimer@CMainFrame@@IAEXI@Z 0041c6fb f mainfrm.obj
 0001:0001b736       ?OnAccelCopygrid@CMainFrame@@IAEXXZ 0041c736 f mainfrm.obj
 0001:0001b74c       ?OnEditEquipdata@CMainFrame@@IAEXXZ 0041c74c f mainfrm.obj
 0001:0001b7ee       ?OnEditEquipimages@CMainFrame@@IAEXXZ 0041c7ee f mainfrm.obj
 0001:0001b869       ?RepaintMeasurements@CMainFrame@@QAEXXZ 0041c869 f mainfrm.obj
 0001:0001ba08       ?OnFileProjects@CMainFrame@@IAEXXZ 0041ca08 f mainfrm.obj
 0001:0001ba83       ?OnPaint@CMainFrame@@IAEXXZ 0041ca83 f mainfrm.obj
 0001:0001bb0b       ?OnUpdateEditEquipdata@CMainFrame@@IAEXPAVCCmdUI@@@Z 0041cb0b f mainfrm.obj
 0001:0001bb2f       ?MyHandler@@YAHI@Z         0041cb2f f mainfrm.obj
 0001:0001bb4f       ?OnEraseBkgnd@CMainFrame@@IAEHPAVCDC@@@Z 0041cb4f f mainfrm.obj
 0001:0001bb78       ?OnRays@CMainFrame@@IAEXXZ 0041cb78 f mainfrm.obj
 0001:0001bc3a       ?OnOverlay@CMainFrame@@IAEXXZ 0041cc3a f mainfrm.obj
 0001:0001bcfc       ?UpdateAllViews@CMainFrame@@QAEXXZ 0041ccfc f mainfrm.obj
 0001:0001beb0       ?OnMeasureCylinderbyedge@CMainFrame@@IAEXXZ 0041ceb0 f mainfrm.obj
 0001:0001bf81       ?setSelectMode@CMainFrame@@QAEXH@Z 0041cf81 f mainfrm.obj
 0001:0001c0e4       ?OnUpdateRays@CMainFrame@@IAEXPAVCCmdUI@@@Z 0041d0e4 f mainfrm.obj
 0001:0001c12b       ?OnUpdateOverlay@CMainFrame@@IAEXPAVCCmdUI@@@Z 0041d12b f mainfrm.obj
 0001:0001c172       ?OnMouseMove@CMainFrame@@IAEXIVCPoint@@@Z 0041d172 f mainfrm.obj
 0001:0001c19e       ?CreateClient@CMainFrame@@UAEHPAUtagCREATESTRUCTA@@PAVCMenu@@@Z 0041d19e f mainfrm.obj
 0001:0001c1f7       ?OnClose@CMainFrame@@IAEXXZ 0041d1f7 f mainfrm.obj
 0001:0001c215       ?OnKillCreateCylinder@CMainFrame@@IAEXXZ 0041d215 f mainfrm.obj
 0001:0001c276       ?OnMeasureCirclebyedge@CMainFrame@@IAEXXZ 0041d276 f mainfrm.obj
 0001:0001c344       ?OnKillCreateCircle@CMainFrame@@IAEXXZ 0041d344 f mainfrm.obj
 0001:0001c3a5       ?OnMeasureCircleby3dpoint@CMainFrame@@IAEXXZ 0041d3a5 f mainfrm.obj
 0001:0001c473       ?sizeTheSheets@CMainFrame@@QAEXXZ 0041d473 f mainfrm.obj
 0001:0001c534       ?createTheSheets@CMainFrame@@QAEXXZ 0041d534 f mainfrm.obj
 0001:0001c54a       ?OnSheetTab@CMainFrame@@IAEXXZ 0041d54a f mainfrm.obj
 0001:0001c571       ?OnChildNotify@CMainFrame@@UAEHIIJPAJ@Z 0041d571 f mainfrm.obj
 0001:0001c5f5       ?OnViewElementlist@CMainFrame@@IAEXXZ 0041d5f5 f mainfrm.obj
 0001:0001c766       ?OnCurrentElementChange@CMainFrame@@IAEJIJ@Z 0041d766 f mainfrm.obj
 0001:0001c916       ?OnUnitsChange@CMainFrame@@IAEJIJ@Z 0041d916 f mainfrm.obj
 0001:0001ca86       ?OnNew3DElement@CMainFrame@@IAEJIJ@Z 0041da86 f mainfrm.obj
 0001:0001cd1a       ?OnNewTreeNode@CMainFrame@@IAEJIJ@Z 0041dd1a f mainfrm.obj
 0001:0001cd4d       ?OnEditBundlecalculations@CMainFrame@@IAEXXZ 0041dd4d f mainfrm.obj
 0001:0001cdc8       ?_GetBaseEventSinkMap@CMainFrame@@KGPBUAFX_EVENTSINKMAP@@XZ 0041ddc8 f mainfrm.obj
 0001:0001cddd       ?GetEventSinkMap@CMainFrame@@MBEPBUAFX_EVENTSINKMAP@@XZ 0041dddd f mainfrm.obj
 0001:0001cdf8       ?OnLfClick3dpointgrid@CMainFrame@@IAEXFJJJPAJ@Z 0041ddf8 f mainfrm.obj
 0001:0001d0f1       ?OnEditCopy@CMainFrame@@IAEXXZ 0041e0f1 f mainfrm.obj
 0001:0001d120       ?OnEditPaste@CMainFrame@@IAEXXZ 0041e120 f mainfrm.obj
 0001:0001d14f       ?OnEditCut@CMainFrame@@IAEXXZ 0041e14f f mainfrm.obj
 0001:0001d17e       ?OnFileImportSurveyData@CMainFrame@@IAEXXZ 0041e17e f mainfrm.obj
 0001:0001d291       ?OnFileImportReviewModel@CMainFrame@@IAEXXZ 0041e291 f mainfrm.obj
 0001:0001d6b9       ?OnMeasureQuickCylinder@CMainFrame@@IAEXXZ 0041e6b9 f mainfrm.obj
 0001:0001d787       ?OnMeasureCylinderbyEndpoints@CMainFrame@@IAEXXZ 0041e787 f mainfrm.obj
 0001:0001d855       ?OnFileSaveWork@CMainFrame@@IAEXXZ 0041e855 f mainfrm.obj
 0001:0001dae5       ?OnFileGetWork@CMainFrame@@IAEXXZ 0041eae5 f mainfrm.obj
 0001:0001dcb9       ?saveDBToNode@@YAHPAVClassesObj@@PAVPtg3DNode@@@Z 0041ecb9 f mainfrm.obj
 0001:0001e81c       ?saveNodeToDB@@YAHPAVPtg3DNode@@PAVClassesObj@@@Z 0041f81c f mainfrm.obj
 0001:0001ee90       ?getName@Ptg3DNode@@QAEPBDXZ 0041fe90 f mainfrm.obj
 0001:0001eeb0       ??0CSize@@QAE@XZ           0041feb0 f mainfrm.obj
 0001:0001eed0       ??0CPoint@@QAE@XZ          0041fed0 f mainfrm.obj
 0001:0001eef0       ??0CBitmap@@QAE@XZ         0041fef0 f mainfrm.obj
 0001:0001ef60       ??0CGdiObject@@QAE@XZ      0041ff60 f mainfrm.obj
 0001:0001efe0       ??0CObject@@IAE@XZ         0041ffe0 f mainfrm.obj
 0001:0001f010       ??_ECObject@@UAEPAXI@Z     00420010 f mainfrm.obj
 0001:0001f010       ??_GCObject@@UAEPAXI@Z     00420010 f mainfrm.obj
 0001:0001f050       ??1CObject@@UAE@XZ         00420050 f mainfrm.obj
 0001:0001f070       ??_GCGdiObject@@UAEPAXI@Z  00420070 f mainfrm.obj
 0001:0001f070       ??_ECGdiObject@@UAEPAXI@Z  00420070 f mainfrm.obj
 0001:0001f0b0       ??1CGdiObject@@UAE@XZ      004200b0 f mainfrm.obj
 0001:0001f120       ??_GCBitmap@@UAEPAXI@Z     00420120 f mainfrm.obj
 0001:0001f120       ??_ECBitmap@@UAEPAXI@Z     00420120 f mainfrm.obj
 0001:0001f160       ??1CBitmap@@UAE@XZ         00420160 f mainfrm.obj
 0001:0001f1d0       ??_GCMainFrame@@UAEPAXI@Z  004201d0 f mainfrm.obj
 0001:0001f1d0       ??_ECMainFrame@@UAEPAXI@Z  004201d0 f mainfrm.obj
 0001:0001f210       ??1CMDIFrameWnd@@UAE@XZ    00420210 f mainfrm.obj
 0001:0001f270       ?GetSafeHandle@CGdiObject@@QBEPAXXZ 00420270 f mainfrm.obj
 0001:0001f2a0       ?GetObjectA@CGdiObject@@QBEHHPAX@Z 004202a0 f mainfrm.obj
 0001:0001f2d0       ?LoadBitmapA@CBitmap@@QAEHI@Z 004202d0 f mainfrm.obj
 0001:0001f320       ?CreateCompatibleDC@CDC@@QAEHPAV1@@Z 00420320 f mainfrm.obj
 0001:0001f350       ?GetSafeHdc@CDC@@QBEPAUHDC__@@XZ 00420350 f mainfrm.obj
 0001:0001f380       ?SelectObject@CDC@@QAEPAVCBitmap@@PAV2@@Z 00420380 f mainfrm.obj
 0001:0001f3b0       ?GetBarStyle@CControlBar@@QAEKXZ 004203b0 f mainfrm.obj
 0001:0001f3d0       ?LoadToolBar@CToolBar@@QAEHI@Z 004203d0 f mainfrm.obj
 0001:0001f400       ??0CRect@@QAE@XZ           00420400 f mainfrm.obj
 0001:0001f420       ?OffsetRect@CRect@@QAEXHH@Z 00420420 f mainfrm.obj
 0001:0001f450       ?GetWindowRect@CWnd@@QBEXPAUtagRECT@@@Z 00420450 f mainfrm.obj
 0001:0001f480       ?GetHeadPosition@CObList@@QBEPAU__POSITION@@XZ 00420480 f mainfrm.obj
 0001:0001f4a0       ?GetNext@CObList@@QAEAAPAVCObject@@AAPAU__POSITION@@@Z 004204a0 f mainfrm.obj
 0001:0001f4d0       ??8@YGHABVCString@@0@Z     004204d0 f mainfrm.obj
 0001:0001f510       ?Compare@CString@@QBEHPBD@Z 00420510 f mainfrm.obj
 0001:0001f540       __tcscmp                   00420540 f mainfrm.obj
 0001:0001f570       ?GetDocTemplate@CDocument@@QBEPAVCDocTemplate@@XZ 00420570 f mainfrm.obj
 0001:0001f590       ?GetSafeHwnd@CWnd@@QBEPAUHWND__@@XZ 00420590 f mainfrm.obj
 0001:0001f5c0       ?SendMessageToDescendants@CWnd@@QAEXIIJHH@Z 004205c0 f mainfrm.obj
 0001:0001f600       ?BringWindowToTop@CWnd@@QAEXXZ 00420600 f mainfrm.obj
 0001:0001f630       ?getUniqID@Ptg3DNode@@QAEHXZ 00420630 f mainfrm.obj
 0001:0001f650       ?GetCount@CObList@@QBEHXZ  00420650 f mainfrm.obj
 0001:0001f670       ??1CSelectImages@@UAE@XZ   00420670 f mainfrm.obj
 0001:0001f710       ??1CCoordXformDlg@@UAE@XZ  00420710 f mainfrm.obj
 0001:0001f770       ?OnLButtonUp@CWnd@@IAEXIVCPoint@@@Z 00420770 f mainfrm.obj
 0001:0001f790       ?KillTimer@CWnd@@QAEHH@Z   00420790 f mainfrm.obj
 0001:0001f7c0       ?OnTimer@CWnd@@IAEXI@Z     004207c0 f mainfrm.obj
 0001:0001f7e0       ??1CSelectEqImageDlg@@UAE@XZ 004207e0 f mainfrm.obj
 0001:0001f880       ??1CProjectSettings@@UAE@XZ 00420880 f mainfrm.obj
 0001:0001f990       ?GetWindowDC@CWnd@@QAEPAVCDC@@XZ 00420990 f mainfrm.obj
 0001:0001f9c0       ?ReleaseDC@CWnd@@QAEHPAVCDC@@@Z 004209c0 f mainfrm.obj
 0001:0001f9f0       ?GetTextMetricsA@CDC@@QBEHPAUtagTEXTMETRICA@@@Z 004209f0 f mainfrm.obj
 0001:0001fa20       ?GetDC@CWnd@@QAEPAVCDC@@XZ 00420a20 f mainfrm.obj
 0001:0001fa50       ?Create@CDialog@@QAEHIPAVCWnd@@@Z 00420a50 f mainfrm.obj
 0001:0001fa80       ?OnMouseMove@CWnd@@IAEXIVCPoint@@@Z 00420a80 f mainfrm.obj
 0001:0001faa0       ?GetClientRect@CWnd@@QBEXPAUtagRECT@@@Z 00420aa0 f mainfrm.obj
 0001:0001fad0       ?PostMessageA@CWnd@@QAEHIIJ@Z 00420ad0 f mainfrm.obj
 0001:0001fb10       ??BCWnd@@QBEPAUHWND__@@XZ  00420b10 f mainfrm.obj
 0001:0001fb40       ?Invalidate@CWnd@@QAEXH@Z  00420b40 f mainfrm.obj
 0001:0001fb70       ?getOwner@HierElem@@QAEPAV1@XZ 00420b70 f mainfrm.obj
 0001:0001fb90       ?getModel@PtgWorld@@QAEPAVPtg3DNode@@XZ 00420b90 f mainfrm.obj
 0001:0001fbb0       ?getCurrentElem@CMainFrame@@QAEPAVPtg3DNode@@XZ 00420bb0 f mainfrm.obj
 0001:0001fbd0       ?SetAt@CMapPtrToPtr@@QAEXPAX0@Z 00420bd0 f mainfrm.obj
 0001:0001fc00       ??1CBundleCalcDlg@@UAE@XZ  00420c00 f mainfrm.obj
 0001:0001fc80       ?SetTimer@CWnd@@QAEIIIP6GXPAUHWND__@@IIK@Z@Z 00420c80 f mainfrm.obj
 0001:0001fcc0       ?GetFocus@CWnd@@SGPAV1@XZ  00420cc0 f mainfrm.obj
 0001:0001fce0       ??1CFileDialog@@UAE@XZ     00420ce0 f mainfrm.obj
 0001:0001fd60       ??1CCommonDialog@@UAE@XZ   00420d60 f mainfrm.obj
 0001:0001fdc0       ?getMemberList@HierElem@@QAEAAV?$CList@PAVHierElem@@PAV1@@@XZ 00420dc0 f mainfrm.obj
 0001:0001fde0       ?RecData@AllElements@@UAEPAXXZ 00420de0 f mainfrm.obj
 0001:0001fe20       ?Select@AllElements@@QAE?AW4T_F@@H@Z 00420e20 f mainfrm.obj
 0001:0001fe50       ?setXLen@Ptg3DBoxObj@@QAEXN@Z 00420e50 f mainfrm.obj
 0001:0001fe80       ?setYLen@Ptg3DBoxObj@@QAEXN@Z 00420e80 f mainfrm.obj
 0001:0001feb0       ?setZLen@Ptg3DBoxObj@@QAEXN@Z 00420eb0 f mainfrm.obj
 0001:0001fee0       ?setTopRadius@Ptg3DConeObj@@QAEXN@Z 00420ee0 f mainfrm.obj
 0001:0001ff10       ?setBottomRadius@Ptg3DConeObj@@QAEXN@Z 00420f10 f mainfrm.obj
 0001:0001ff40       ?setHeight@Ptg3DConeObj@@QAEXN@Z 00420f40 f mainfrm.obj
 0001:0001ff70       ?setXOffset@Ptg3DConeObj@@QAEXN@Z 00420f70 f mainfrm.obj
 0001:0001ffa0       ?setYOffset@Ptg3DConeObj@@QAEXN@Z 00420fa0 f mainfrm.obj
 0001:0001ffd0       ?setOuterRadius@Ptg3DCtorObj@@QAEXN@Z 00420fd0 f mainfrm.obj
 0001:00020000       ?setInnerRadius@Ptg3DCtorObj@@QAEXN@Z 00421000 f mainfrm.obj
 0001:00020030       ?setAngle@Ptg3DCtorObj@@QAEXN@Z 00421030 f mainfrm.obj
 0001:00020060       ?setRadius@Ptg3DCylinderObj@@QAEXN@Z 00421060 f mainfrm.obj
 0001:00020090       ?setHeight@Ptg3DCylinderObj@@QAEXN@Z 00421090 f mainfrm.obj
 0001:000200c0       ?setOuterRadius@Ptg3DRtorObj@@QAEXN@Z 004210c0 f mainfrm.obj
 0001:000200f0       ?setInnerRadius@Ptg3DRtorObj@@QAEXN@Z 004210f0 f mainfrm.obj
 0001:00020120       ?setHeight@Ptg3DRtorObj@@QAEXN@Z 00421120 f mainfrm.obj
 0001:00020150       ?setAngle@Ptg3DRtorObj@@QAEXN@Z 00421150 f mainfrm.obj
 0001:00020180       ?getXLen@Ptg3DBoxObj@@QAENXZ 00421180 f mainfrm.obj
 0001:000201a0       ?getYLen@Ptg3DBoxObj@@QAENXZ 004211a0 f mainfrm.obj
 0001:000201c0       ?getZLen@Ptg3DBoxObj@@QAENXZ 004211c0 f mainfrm.obj
 0001:000201e0       ?getRadius@Ptg3DCylinderObj@@QAENXZ 004211e0 f mainfrm.obj
 0001:00020200       ?getHeight@Ptg3DCylinderObj@@QAENXZ 00421200 f mainfrm.obj
 0001:00020220       ?GetHeadPosition@?$CList@PAVHierElem@@PAV1@@@QBEPAU__POSITION@@XZ 00421220 f mainfrm.obj
 0001:00020240       ?GetNext@?$CList@PAVHierElem@@PAV1@@@QAEAAPAVHierElem@@AAPAU__POSITION@@@Z 00421240 f mainfrm.obj
 0001:00020270       ?GetAt@?$CList@PAVHierElem@@PAV1@@@QAEAAPAVHierElem@@PAU__POSITION@@@Z 00421270 f mainfrm.obj
 0001:000202a0       ?_GetBaseMessageMap@CFotobrowApp@@KGPBUAFX_MSGMAP@@XZ 004212a0 f fotobrow.obj
 0001:000202b5       ?GetMessageMap@CFotobrowApp@@MBEPBUAFX_MSGMAP@@XZ 004212b5 f fotobrow.obj
 0001:000202d0       ??0CFotobrowApp@@QAE@XZ    004212d0 f fotobrow.obj
 0001:000203ff       ??1CFotobrowApp@@UAE@XZ    004213ff f fotobrow.obj
 0001:000205a0       ?InitInstance@CFotobrowApp@@UAEHXZ 004215a0 f fotobrow.obj
 0001:00020f4c       ??0CAboutDlg@@QAE@XZ       00421f4c f fotobrow.obj
 0001:00021011       ?DoDataExchange@CAboutDlg@@MAEXPAVCDataExchange@@@Z 00422011 f fotobrow.obj
 0001:00021035       ?_GetBaseMessageMap@CAboutDlg@@KGPBUAFX_MSGMAP@@XZ 00422035 f fotobrow.obj
 0001:0002104a       ?GetMessageMap@CAboutDlg@@MBEPBUAFX_MSGMAP@@XZ 0042204a f fotobrow.obj
 0001:00021065       ?OnInitDialog@CAboutDlg@@MAEHXZ 00422065 f fotobrow.obj
 0001:00021172       ?OnPaint@CAboutDlg@@IAEXXZ 00422172 f fotobrow.obj
 0001:0002124e       ?OnAppAbout@CFotobrowApp@@QAEXXZ 0042224e f fotobrow.obj
 0001:000212c7       ?AddDocToList@CFotobrowApp@@QAEXPAVCDocument@@@Z 004222c7 f fotobrow.obj
 0001:000212df       ?DelDocFromList@CFotobrowApp@@QAEXPAVCDocument@@@Z 004222df f fotobrow.obj
 0001:000212f7       ?ExitInstance@CFotobrowApp@@UAEHXZ 004222f7 f fotobrow.obj
 0001:0002136a       ?OnFileNew@CFotobrowApp@@QAEXXZ 0042236a f fotobrow.obj
 0001:00021380       ?GetDocumentList@CFotobrowApp@@QAEXPAVCObList@@@Z 00422380 f fotobrow.obj
 0001:00021406       ?KillTheTAF@CFotobrowApp@@QAEXXZ 00422406 f fotobrow.obj
 0001:000214ad       ?ReadProfile@CFotobrowApp@@QAEHXZ 004224ad f fotobrow.obj
 0001:00021573       ?WriteProfile@CFotobrowApp@@QAEXXZ 00422573 f fotobrow.obj
 0001:000215a9       ?ReadRegistry@CFotobrowApp@@QAEHXZ 004225a9 f fotobrow.obj
 0001:0002167d       ?WriteRegistry@CFotobrowApp@@QAEXXZ 0042267d f fotobrow.obj
 0001:00021693       ?OnSetProject@CFotobrowApp@@QAEJPAUEnvStrings@@@Z 00422693 f fotobrow.obj
 0001:00021708       ?SetReferenceNode@CFotobrowApp@@QAEXPAVPtg3DNode@@@Z 00422708 f fotobrow.obj
 0001:00021741       ?SetTransform@CFotobrowApp@@QAEXQAN@Z 00422741 f fotobrow.obj
 0001:00021830       ??_ECFotobrowApp@@UAEPAXI@Z 00422830 f fotobrow.obj
 0001:00021830       ??_GCFotobrowApp@@UAEPAXI@Z 00422830 f fotobrow.obj
 0001:00021870       ??1COleTemplateServer@@UAE@XZ 00422870 f fotobrow.obj
 0001:000218d0       ?UpdateWindow@CWnd@@QAEXXZ 004228d0 f fotobrow.obj
 0001:00021900       ?SetIcon@CWnd@@QAEPAUHICON__@@PAU2@H@Z 00422900 f fotobrow.obj
 0001:00021940       ?LoadIconA@CWinApp@@QBEPAUHICON__@@I@Z 00422940 f fotobrow.obj
 0001:00021980       ??0TritonTask@@QAE@PAD@Z   00422980 f fotobrow.obj
 0001:00021a50       ??_GCAboutDlg@@UAEPAXI@Z   00422a50 f fotobrow.obj
 0001:00021a50       ??_ECAboutDlg@@UAEPAXI@Z   00422a50 f fotobrow.obj
 0001:00021a90       ??1CAboutDlg@@UAE@XZ       00422a90 f fotobrow.obj
 0001:00021b30       ?StretchBlt@CDC@@QAEHHHHHPAV1@HHHHK@Z 00422b30 f fotobrow.obj
 0001:00021b90       ?isDatabaseOpen@CFotobrowApp@@QAEHXZ 00422b90 f fotobrow.obj
 0001:00021bb0       ??_GrvqLiteTask@@QAEPAXI@Z 00422bb0 f fotobrow.obj
 0001:00021bf0       ??1COpenProjectDlg@@UAE@XZ 00422bf0 f fotobrow.obj
 0001:00021ca0       ?RefreshGrid@PointGridBar@@QAEXXZ 00422ca0 f fotobrow.obj
 0001:00021cd0       ?get3DPointGridBar@CMainFrame@@QAEPAVPointGridBar@@XZ 00422cd0 f fotobrow.obj
 0001:00021cf0       ?CreateObject@CFotobrowDoc@@SGPAVCObject@@XZ 00422cf0 f fotobdoc.obj
 0001:00021d78       ?_GetBaseClass@CFotobrowDoc@@KGPAUCRuntimeClass@@XZ 00422d78 f fotobdoc.obj
 0001:00021d8d       ?GetRuntimeClass@CFotobrowDoc@@UBEPAUCRuntimeClass@@XZ 00422d8d f fotobdoc.obj
 0001:00021da8       ?_GetBaseMessageMap@CFotobrowDoc@@KGPBUAFX_MSGMAP@@XZ 00422da8 f fotobdoc.obj
 0001:00021dbd       ?GetMessageMap@CFotobrowDoc@@MBEPBUAFX_MSGMAP@@XZ 00422dbd f fotobdoc.obj
 0001:00021dd8       ?_GetBaseDispatchMap@CFotobrowDoc@@KGPBUAFX_DISPMAP@@XZ 00422dd8 f fotobdoc.obj
 0001:00021ded       ?GetDispatchMap@CFotobrowDoc@@MBEPBUAFX_DISPMAP@@XZ 00422ded f fotobdoc.obj
 0001:00021e08       ??0CFotobrowDoc@@IAE@XZ    00422e08 f fotobdoc.obj
 0001:00021eb3       ??1CFotobrowDoc@@UAE@XZ    00422eb3 f fotobdoc.obj
 0001:00021fbd       ?OnNewDocument@CFotobrowDoc@@UAEHXZ 00422fbd f fotobdoc.obj
 0001:00022073       ?Serialize@CFotobrowDoc@@UAEXAAVCArchive@@@Z 00423073 f fotobdoc.obj
 0001:00022273       ?GetView@CFotobrowDoc@@QAEPAVCFotobrowView@@XZ 00423273 f fotobdoc.obj
 0001:000222a6       ?CheckSelected@CFotobrowDoc@@QAEHXZ 004232a6 f fotobdoc.obj
 0001:000222e2       ?setImageName@CFotobrowDoc@@QAEXPBD@Z 004232e2 f fotobdoc.obj
 0001:00022320       ?IsModified@CDocument@@UAEHXZ 00423320 f fotobdoc.obj
 0001:00022340       ?SetModifiedFlag@CDocument@@UAEXH@Z 00423340 f fotobdoc.obj
 0001:00022370       ??_GCFotobrowDoc@@UAEPAXI@Z 00423370 f fotobdoc.obj
 0001:00022370       ??_ECFotobrowDoc@@UAEPAXI@Z 00423370 f fotobdoc.obj
 0001:000223b0       ?IsStoring@CArchive@@QBEHXZ 004233b0 f fotobdoc.obj
 0001:000223e0       ?GetFile@CArchive@@QBEPAVCFile@@XZ 004233e0 f fotobdoc.obj
 0001:00022400       ?CheckSelected@CFotobrowView@@QAEHXZ 00423400 f fotobdoc.obj
 0001:00022420       ?drawWireframe@Ptg3DFacetObj@@MAEXXZ 00423420 f Ptg3DFacetObjOGL.obj
 0001:0002250d       ?drawSolid@Ptg3DFacetObj@@MAEXXZ 0042350d f Ptg3DFacetObjOGL.obj
 0001:000226b1       ?tessBegin@@YGXI@Z         004236b1 f Ptg3DFacetObjOGL.obj
 0001:000226cd       ?tessEdgeFlag@@YGXE@Z      004236cd f Ptg3DFacetObjOGL.obj
 0001:000226df       ?tessVertex@@YGXPAX@Z      004236df f Ptg3DFacetObjOGL.obj
 0001:00022720       ?tessEnd@@YGXXZ            00423720 f Ptg3DFacetObjOGL.obj
 0001:00022736       ?tessError@@YGXP6APAIXZ@Z  00423736 f Ptg3DFacetObjOGL.obj
 0001:00022780       ?GetHeadPosition@?$CList@PAVPtg3DFacetVertexObj@@PAV1@@@QBEPAU__POSITION@@XZ 00423780 f Ptg3DFacetObjOGL.obj
 0001:000227a0       ?GetNext@?$CList@PAVPtg3DFacetVertexObj@@PAV1@@@QAEAAPAVPtg3DFacetVertexObj@@AAPAU__POSITION@@@Z 004237a0 f Ptg3DFacetObjOGL.obj
 0001:000227d0       ?GetAt@?$CList@PAVPtg3DFacetVertexObj@@PAV1@@@QAEAAPAVPtg3DFacetVertexObj@@PAU__POSITION@@@Z 004237d0 f Ptg3DFacetObjOGL.obj
 0001:00022800       ??0CSelectImages@@QAE@PAVCWnd@@@Z 00423800 f selectim.obj
 0001:000228c9       ?DoDataExchange@CSelectImages@@MAEXPAVCDataExchange@@@Z 004238c9 f selectim.obj
 0001:00022919       ?_GetBaseMessageMap@CSelectImages@@KGPBUAFX_MSGMAP@@XZ 00423919 f selectim.obj
 0001:0002292e       ?GetMessageMap@CSelectImages@@MBEPBUAFX_MSGMAP@@XZ 0042392e f selectim.obj
 0001:00022949       ?OnDblclkImagelist@CSelectImages@@IAEXXZ 00423949 f selectim.obj
 0001:0002298c       ?OnInitDialog@CSelectImages@@MAEHXZ 0042398c f selectim.obj
 0001:00022a1e       ?OnOK@CSelectImages@@MAEXXZ 00423a1e f selectim.obj
 0001:00022ae0       ??0CListBox@@QAE@XZ        00423ae0 f selectim.obj
 0001:00022b50       ??_GCListBox@@UAEPAXI@Z    00423b50 f selectim.obj
 0001:00022b50       ??_ECListBox@@UAEPAXI@Z    00423b50 f selectim.obj
 0001:00022b90       ??_ECSelectImages@@UAEPAXI@Z 00423b90 f selectim.obj
 0001:00022b90       ??_GCSelectImages@@UAEPAXI@Z 00423b90 f selectim.obj
 0001:00022bd0       ?AddString@CListBox@@QAEHPBD@Z 00423bd0 f selectim.obj
 0001:00022c00       ?GetSelItems@CListBox@@QBEHHPAH@Z 00423c00 f selectim.obj
 0001:00022c40       ?GetText@CListBox@@QBEHHPAD@Z 00423c40 f selectim.obj
 0001:00022c80       ?bundlemain@@YAHPADH@Z     00423c80 f bundle.obj
 0001:00022f27       ?PrintUsage@@YAXXZ         00423f27 f bundle.obj
 0001:00022f8a       ?ReadBundleData@@YAHPBDAAUBUNDLEDATA@@@Z 00423f8a f bundle.obj
 0001:0002308a       ?ReadBundleTMatrices@@YAHAAUBUNDLEDATA@@@Z 0042408a f bundle.obj
 0001:00023396       ?ReadBundlePhotos@@YAHAAUBUNDLEDATA@@@Z 00424396 f bundle.obj
 0001:000237cd       ?GetPointIndex@@YAHAAUBUNDLEDATA@@K@Z 004247cd f bundle.obj
 0001:00023825       ?AddPointRow@@YAHAAUBUNDLEDATA@@@Z 00424825 f bundle.obj
 0001:00023a27       ?WriteBundleData@@YAHAAUBUNDLEDATA@@@Z 00424a27 f bundle.obj
 0001:00023b45       ?WriteBundleTMatrices@@YAHABUBUNDLEDATA@@@Z 00424b45 f bundle.obj
 0001:00023d6b       ?WriteBundleCalcPoints@@YAHABUBUNDLEDATA@@@Z 00424d6b f bundle.obj
 0001:000241b7       ?FreeBundleData@@YAXAAUBUNDLEDATA@@@Z 004251b7 f bundle.obj
 0001:00024506       ?PrintBundleData@@YAXABUBUNDLEDATA@@@Z 00425506 f bundle.obj
 0001:0002494a       ?print_rotation@@YAXPAN@Z  0042594a f bundle.obj
 0001:000249b0       ??0CCircleDataDlg@@QAE@PAVCWnd@@@Z 004259b0 f CircleDataDlg.obj
 0001:00024a6e       ?DoDataExchange@CCircleDataDlg@@MAEXPAVCDataExchange@@@Z 00425a6e f CircleDataDlg.obj
 0001:00024af6       ?_GetBaseMessageMap@CCircleDataDlg@@KGPBUAFX_MSGMAP@@XZ 00425af6 f CircleDataDlg.obj
 0001:00024b0b       ?GetMessageMap@CCircleDataDlg@@MBEPBUAFX_MSGMAP@@XZ 00425b0b f CircleDataDlg.obj
 0001:00024b26       ?setValues@CCircleDataDlg@@QAEXNNPAN@Z 00425b26 f CircleDataDlg.obj
 0001:00024b92       ?getValues@CCircleDataDlg@@QAEXPAN00@Z 00425b92 f CircleDataDlg.obj
 0001:00024c10       ??_GCCircleDataDlg@@UAEPAXI@Z 00425c10 f CircleDataDlg.obj
 0001:00024c10       ??_ECCircleDataDlg@@UAEPAXI@Z 00425c10 f CircleDataDlg.obj
 0001:00024c50       ??1CCircleDataDlg@@UAE@XZ  00425c50 f CircleDataDlg.obj
 0001:00024cb0       ?CreateObject@CDIB@@SGPAVCObject@@XZ 00425cb0 f DIB.OBJ
 0001:00024d38       ?_GetBaseClass@CDIB@@KGPAUCRuntimeClass@@XZ 00425d38 f DIB.OBJ
 0001:00024d4d       ?GetRuntimeClass@CDIB@@UBEPAUCRuntimeClass@@XZ 00425d4d f DIB.OBJ
 0001:00024d9c       ??5@YGAAVCArchive@@AAV0@AAPAVCDIB@@@Z 00425d9c f DIB.OBJ
 0001:00024dc3       ??0CDIB@@QAE@XZ            00425dc3 f DIB.OBJ
 0001:00024e5c       ??1CDIB@@UAE@XZ            00425e5c f DIB.OBJ
 0001:00024f0b       ?Serialize@CDIB@@UAEXAAVCArchive@@@Z 00425f0b f DIB.OBJ
 0001:00024f23       ?Create@CDIB@@QAEHHH@Z     00425f23 f DIB.OBJ
 0001:000250e8       ?Create@CDIB@@QAEHPAUtagBITMAPINFO@@PAE@Z 004260e8 f DIB.OBJ
 0001:000252a1       ?Load@CDIB@@UAEHPAVCFile@@@Z 004262a1 f DIB.OBJ
 0001:00025644       ?Load@CDIB@@UAEHPAD@Z      00426644 f DIB.OBJ
 0001:00025845       ?DrawZoom@CDIB@@UAEXPAVCDC@@HHHH@Z 00426845 f DIB.OBJ
 0001:000258db       ?Draw@CDIB@@UAEXPAVCDC@@HH@Z 004268db f DIB.OBJ
 0001:0002596d       ?GetNumClrEntries@CDIB@@QAEHXZ 0042696d f DIB.OBJ
 0001:00025992       ?MapColorsToPalette@CDIB@@UAEHPAVCPalette@@@Z 00426992 f DIB.OBJ
 0001:00025b6d       ?GetPixelAddress@CDIB@@QAEPAXHH@Z 00426b6d f DIB.OBJ
 0001:00025bd2       ?GetRect@CDIB@@UAEXPAVCRect@@@Z 00426bd2 f DIB.OBJ
 0001:00025c19       ?CopyBits@CDIB@@UAEXPAV1@HHHHHHK@Z 00426c19 f DIB.OBJ
 0001:00025d60       ?GetWidth@CDIB@@UAEHXZ     00426d60 f DIB.OBJ
 0001:00025d80       ?GetHeight@CDIB@@UAEHXZ    00426d80 f DIB.OBJ
 0001:00025da0       ?DibWidth@CDIB@@AAEHXZ     00426da0 f DIB.OBJ
 0001:00025dc0       ?DibHeight@CDIB@@AAEHXZ    00426dc0 f DIB.OBJ
 0001:00025de0       ??_GCDIB@@UAEPAXI@Z        00426de0 f DIB.OBJ
 0001:00025de0       ??_ECDIB@@UAEPAXI@Z        00426de0 f DIB.OBJ
 0001:00025e20       ?GetClrTabAddress@CDIB@@QAEPAUtagRGBQUAD@@XZ 00426e20 f DIB.OBJ
 0001:00025e40       ?GetBitmapInfoAddress@CDIB@@QAEPAUtagBITMAPINFO@@XZ 00426e40 f DIB.OBJ
 0001:00025e60       ?GetBitsAddress@CDIB@@QAEPAXXZ 00426e60 f DIB.OBJ
 0001:00025e80       ?GetPaletteEntries@CPalette@@QBEIIIPAUtagPALETTEENTRY@@@Z 00426e80 f DIB.OBJ
 0001:00025ec0       ?GetNearestPaletteIndex@CPalette@@QBEIK@Z 00426ec0 f DIB.OBJ
 0001:00025ef0       ?StorageWidth@CDIB@@AAEHXZ 00426ef0 f DIB.OBJ
 0001:00025f20       ??0COpenProjectDlg@@QAE@PAVCWnd@@@Z 00426f20 f OPENPROJ.OBJ
 0001:0002600c       ?DoDataExchange@COpenProjectDlg@@MAEXPAVCDataExchange@@@Z 0042700c f OPENPROJ.OBJ
 0001:0002605c       ?_GetBaseMessageMap@COpenProjectDlg@@KGPBUAFX_MSGMAP@@XZ 0042705c f OPENPROJ.OBJ
 0001:00026071       ?GetMessageMap@COpenProjectDlg@@MBEPBUAFX_MSGMAP@@XZ 00427071 f OPENPROJ.OBJ
 0001:0002608c       ?OnOK@COpenProjectDlg@@MAEXXZ 0042708c f OPENPROJ.OBJ
 0001:00026174       ?OnCancel@COpenProjectDlg@@MAEXXZ 00427174 f OPENPROJ.OBJ
 0001:00026192       ?OnInitDialog@COpenProjectDlg@@MAEHXZ 00427192 f OPENPROJ.OBJ
 0001:0002662b       ?setProjectsList@COpenProjectDlg@@QAEHPAUHKEY__@@@Z 0042762b f OPENPROJ.OBJ
 0001:00026651       ?OnDblclkProjectList@COpenProjectDlg@@IAEXXZ 00427651 f OPENPROJ.OBJ
 0001:00026680       ??_GCOpenProjectDlg@@UAEPAXI@Z 00427680 f OPENPROJ.OBJ
 0001:00026680       ??_ECOpenProjectDlg@@UAEPAXI@Z 00427680 f OPENPROJ.OBJ
 0001:000266c0       ?GetCount@CListBox@@QBEHXZ 004276c0 f OPENPROJ.OBJ
 0001:000266f0       ?GetCurSel@CListBox@@QBEHXZ 004276f0 f OPENPROJ.OBJ
 0001:00026720       ?GetItemData@CListBox@@QBEKH@Z 00427720 f OPENPROJ.OBJ
 0001:00026750       ?SetItemData@CListBox@@QAEHHK@Z 00427750 f OPENPROJ.OBJ
 0001:00026790       ??0Ptg3DPointObj@@QAE@XZ   00427790 f Ptg3DPointObj.obj
 0001:00026807       ??1Ptg3DPointObj@@UAE@XZ   00427807 f Ptg3DPointObj.obj
 0001:0002686f       ?initVars@Ptg3DPointObj@@AAEXXZ 0042786f f Ptg3DPointObj.obj
 0001:00026885       ?setPosition@Ptg3DPointObj@@QAEXNNNPAVPtg3DNode@@@Z 00427885 f Ptg3DPointObj.obj
 0001:00026996       ?getPosition@Ptg3DPointObj@@QAEPANPAVPtg3DNode@@@Z 00427996 f Ptg3DPointObj.obj
 0001:00026a53       ?getPosition@Ptg3DPointObj@@QAEXPAVPtg3DNode@@AAN11@Z 00427a53 f Ptg3DPointObj.obj
 0001:00026ac0       ?getType@Ptg3DPointObj@@UAEPBDXZ 00427ac0 f Ptg3DPointObj.obj
 0001:00026ae0       ??_GPtg3DPointObj@@UAEPAXI@Z 00427ae0 f Ptg3DPointObj.obj
 0001:00026ae0       ??_EPtg3DPointObj@@UAEPAXI@Z 00427ae0 f Ptg3DPointObj.obj
 0001:00026b20       ?tm_to_long@@YAJPAUtm@@@Z  00427b20 f strutils.obj
 0001:00026b60       ?eaDateStrToLong@@YAJPBD@Z 00427b60 f strutils.obj
 0001:00026bf4       ?long_to_tm@@YAXJPAUtm@@@Z 00427bf4 f strutils.obj
 0001:00026c6b       ?eaDateLongToStr@@YAPADJPAD@Z 00427c6b f strutils.obj
 0001:00026ce3       ?isStrInt@@YAHPAD@Z        00427ce3 f strutils.obj
 0001:00026d51       ?isStrFloat@@YAHPAD@Z      00427d51 f strutils.obj
 0001:00026dd7       ?strltrim@@YAXPAD@Z        00427dd7 f strutils.obj
 0001:00026e43       ?strrtrim@@YAXPAD@Z        00427e43 f strutils.obj
 0001:00026ea5       ?strpack@@YAXPAD@Z         00427ea5 f strutils.obj
 0001:00026f11       ?stripchar@@YAXPADD@Z      00427f11 f strutils.obj
 0001:00026f77       ?getTokens@@YAXPBDPAPAPADPAHD@Z 00427f77 f strutils.obj
 0001:000270ae       ?freeTokens@@YAXPAPADH@Z   004280ae f strutils.obj
 0001:00027110       ??0CDrawList@@QAE@PAVCWnd@@PAVPtg3DNode@@@Z 00428110 f drawlist.obj
 0001:0002724a       ?DoDataExchange@CDrawList@@MAEXPAVCDataExchange@@@Z 0042824a f drawlist.obj
 0001:000272f6       ?_GetBaseMessageMap@CDrawList@@KGPBUAFX_MSGMAP@@XZ 004282f6 f drawlist.obj
 0001:0002730b       ?GetMessageMap@CDrawList@@MBEPBUAFX_MSGMAP@@XZ 0042830b f drawlist.obj
 0001:00027326       ?OnInitDialog@CDrawList@@MAEHXZ 00428326 f drawlist.obj
 0001:00027693       ?AddElementToTree@CDrawList@@QAEHPAVPtg3DNode@@PAU_TREEITEM@@@Z 00428693 f drawlist.obj
 0001:000277c0       ?OnAdd@CDrawList@@IAEXXZ   004287c0 f drawlist.obj
 0001:00027a06       ?OnRemove@CDrawList@@IAEXXZ 00428a06 f drawlist.obj
 0001:00027a95       ?OnOK@CDrawList@@MAEXXZ    00428a95 f drawlist.obj
 0001:00027ad3       ?setColor@CDrawList@@QAEXPAVPtg3DNode@@MMM@Z 00428ad3 f drawlist.obj
 0001:00027b84       ?FillDrawList@CDrawList@@QAEXPAVPtg3DNode@@@Z 00428b84 f drawlist.obj
 0001:00027c3e       ?AddToDrawList@CDrawList@@QAEPAU_TREEITEM@@PAVPtg3DNode@@PAU2@HHH@Z 00428c3e f drawlist.obj
 0001:00027dd3       ?AddParent@CDrawList@@QAEPAU_TREEITEM@@PAVPtg3DNode@@@Z 00428dd3 f drawlist.obj
 0001:00027e30       ?FindMeInTree@CDrawList@@QAEPAU_TREEITEM@@PAU2@PAVPtg3DNode@@@Z 00428e30 f drawlist.obj
 0001:00027ef6       ?PruneDrawList@CDrawList@@QAEPAU_TREEITEM@@PAU2@@Z 00428ef6 f drawlist.obj
 0001:00027fe0       ??0CComboBox@@QAE@XZ       00428fe0 f drawlist.obj
 0001:00028050       ??_ECComboBox@@UAEPAXI@Z   00429050 f drawlist.obj
 0001:00028050       ??_GCComboBox@@UAEPAXI@Z   00429050 f drawlist.obj
 0001:00028090       ??0CTreeCtrl@@QAE@XZ       00429090 f drawlist.obj
 0001:00028100       ??_ECTreeCtrl@@UAEPAXI@Z   00429100 f drawlist.obj
 0001:00028100       ??_GCTreeCtrl@@UAEPAXI@Z   00429100 f drawlist.obj
 0001:00028140       ??_ECDrawList@@UAEPAXI@Z   00429140 f drawlist.obj
 0001:00028140       ??_GCDrawList@@UAEPAXI@Z   00429140 f drawlist.obj
 0001:00028180       ??1CDrawList@@UAE@XZ       00429180 f drawlist.obj
 0001:00028250       ?SetCurSel@CComboBox@@QAEHH@Z 00429250 f drawlist.obj
 0001:00028280       ?DeleteAllItems@CTreeCtrl@@QAEHXZ 00429280 f drawlist.obj
 0001:000282b0       ?SetImageList@CTreeCtrl@@QAEPAVCImageList@@PAV2@H@Z 004292b0 f drawlist.obj
 0001:000282f0       ?GetSafeHandle@CImageList@@QBEPAU_IMAGELIST@@XZ 004292f0 f drawlist.obj
 0001:00028320       ?InsertItem@CTreeCtrl@@QAEPAU_TREEITEM@@PAUtagTVINSERTSTRUCTA@@@Z 00429320 f drawlist.obj
 0001:00028350       ?GetSelectedItem@CTreeCtrl@@QBEPAU_TREEITEM@@XZ 00429350 f drawlist.obj
 0001:00028380       ?GetItem@CTreeCtrl@@QBEHPAUtagTVITEMA@@@Z 00429380 f drawlist.obj
 0001:000283b0       ?isActive@Ptg3DNode@@QAEHXZ 004293b0 f drawlist.obj
 0001:000283d0       ?GetChildItem@CTreeCtrl@@QBEPAU_TREEITEM@@PAU2@@Z 004293d0 f drawlist.obj
 0001:00028400       ?GetNextSiblingItem@CTreeCtrl@@QBEPAU_TREEITEM@@PAU2@@Z 00429400 f drawlist.obj
 0001:00028430       ?GetRootItem@CTreeCtrl@@QBEPAU_TREEITEM@@XZ 00429430 f drawlist.obj
 0001:00028460       ?DeleteItem@CTreeCtrl@@QAEHPAU_TREEITEM@@@Z 00429460 f drawlist.obj
 0001:00028490       ?GetParentItem@CTreeCtrl@@QBEPAU_TREEITEM@@PAU2@@Z 00429490 f drawlist.obj
 0001:000284c0       ?IsEmpty@?$CList@PAVHierElem@@PAV1@@@QBEHXZ 004294c0 f drawlist.obj
 0001:000284f0       ?draw@PtgCamera@@QAEXXZ    004294f0 f PtgCameraOGL.obj
 0001:0002861e       ?drawOrtho@PtgCamera@@AAEXXZ 0042961e f PtgCameraOGL.obj
 0001:000286ad       ?drawPerspective@PtgCamera@@AAEXXZ 004296ad f PtgCameraOGL.obj
 0001:00028730       ?CreateObject@CElementListView@@SGPAVCObject@@XZ 00429730 f ElementListView.obj
 0001:000287bb       ?_GetBaseClass@CElementListView@@KGPAUCRuntimeClass@@XZ 004297bb f ElementListView.obj
 0001:000287d0       ?GetRuntimeClass@CElementListView@@UBEPAUCRuntimeClass@@XZ 004297d0 f ElementListView.obj
 0001:000287eb       ??0CElementListView@@IAE@XZ 004297eb f ElementListView.obj
 0001:00028880       ??1CElementListView@@MAE@XZ 00429880 f ElementListView.obj
 0001:00028904       ?DoDataExchange@CElementListView@@MAEXPAVCDataExchange@@@Z 00429904 f ElementListView.obj
 0001:0002893f       ?_GetBaseMessageMap@CElementListView@@KGPBUAFX_MSGMAP@@XZ 0042993f f ElementListView.obj
 0001:00028954       ?GetMessageMap@CElementListView@@MBEPBUAFX_MSGMAP@@XZ 00429954 f ElementListView.obj
 0001:0002896f       ?OnCreate@CElementListView@@IAEHPAUtagCREATESTRUCTA@@@Z 0042996f f ElementListView.obj
 0001:000289e6       ?OnSelchangedElementList@CElementListView@@IAEXPAUtagNMHDR@@PAJ@Z 004299e6 f ElementListView.obj
 0001:00028a75       ?OnInitialUpdate@CElementListView@@UAEXXZ 00429a75 f ElementListView.obj
 0001:00028d1a       ?OnSize@CElementListView@@IAEXIHH@Z 00429d1a f ElementListView.obj
 0001:00028d93       ?FillDrawList@CElementListView@@QAEXPAVPtg3DNode@@@Z 00429d93 f ElementListView.obj
 0001:00028e3d       ?AddToDrawList@CElementListView@@QAEPAU_TREEITEM@@PAVPtg3DNode@@PAU2@HHH@Z 00429e3d f ElementListView.obj
 0001:00029046       ?AddParent@CElementListView@@QAEPAU_TREEITEM@@PAVPtg3DNode@@@Z 0042a046 f ElementListView.obj
 0001:000290a3       ?FindMeInTree@CElementListView@@QAEPAU_TREEITEM@@PAU2@PAVPtg3DNode@@@Z 0042a0a3 f ElementListView.obj
 0001:0002916c       ?PruneDrawList@CElementListView@@QAEPAU_TREEITEM@@PAU2@@Z 0042a16c f ElementListView.obj
 0001:0002924b       ?OnRclickElementList@CElementListView@@IAEXPAUtagNMHDR@@PAJ@Z 0042a24b f ElementListView.obj
 0001:00029355       ?OnMemberlistProperties@CElementListView@@IAEXXZ 0042a355 f ElementListView.obj
 0001:0002936b       ?OnMemberlistVisible@CElementListView@@QAEXH@Z 0042a36b f ElementListView.obj
 0001:00029532       ?OnMemberlistVisibleSolid@CElementListView@@IAEXXZ 0042a532 f ElementListView.obj
 0001:0002955f       ?OnMemberlistVisibleWireframe@CElementListView@@IAEXXZ 0042a55f f ElementListView.obj
 0001:0002958c       ?OnMemberlistVisibleInvisible@CElementListView@@IAEXXZ 0042a58c f ElementListView.obj
 0001:000295b9       ?OnMemberlistSetAsReferenceNode@CElementListView@@IAEXXZ 0042a5b9 f ElementListView.obj
 0001:00029612       ?OnMemberListCalcCircBy3DPoints@CElementListView@@IAEXXZ 0042a612 f ElementListView.obj
 0001:00029666       ?recurse3DNodeTree@CElementListView@@QAEXPAVPtg3DNode@@H@Z 0042a666 f ElementListView.obj
 0001:0002977a       ?recurseElementTree@CElementListView@@QAEXPAU_TREEITEM@@H@Z 0042a77a f ElementListView.obj
 0001:00029990       ?OnColorBlack@CElementListView@@QAEXXZ 0042a990 f ElementListView.obj
 0001:000299b4       ?OnColorMaroon@CElementListView@@QAEXXZ 0042a9b4 f ElementListView.obj
 0001:000299d8       ?OnColorOlive@CElementListView@@QAEXXZ 0042a9d8 f ElementListView.obj
 0001:000299fc       ?OnColorGreen@CElementListView@@QAEXXZ 0042a9fc f ElementListView.obj
 0001:00029a20       ?OnColorTeal@CElementListView@@QAEXXZ 0042aa20 f ElementListView.obj
 0001:00029a44       ?OnColorNavy@CElementListView@@QAEXXZ 0042aa44 f ElementListView.obj
 0001:00029a68       ?OnColorWine@CElementListView@@QAEXXZ 0042aa68 f ElementListView.obj
 0001:00029a8c       ?OnColorGrey@CElementListView@@QAEXXZ 0042aa8c f ElementListView.obj
 0001:00029ab0       ?OnColorPink@CElementListView@@QAEXXZ 0042aab0 f ElementListView.obj
 0001:00029ad4       ?OnColorOrange@CElementListView@@QAEXXZ 0042aad4 f ElementListView.obj
 0001:00029af8       ?OnColorChartruse@CElementListView@@QAEXXZ 0042aaf8 f ElementListView.obj
 0001:00029b1c       ?OnColorPurple@CElementListView@@QAEXXZ 0042ab1c f ElementListView.obj
 0001:00029b40       ?OnColorSkyBlue@CElementListView@@QAEXXZ 0042ab40 f ElementListView.obj
 0001:00029b64       ?OnColorRed@CElementListView@@QAEXXZ 0042ab64 f ElementListView.obj
 0001:00029b88       ?OnColorYellow@CElementListView@@QAEXXZ 0042ab88 f ElementListView.obj
 0001:00029bac       ?OnColorLime@CElementListView@@QAEXXZ 0042abac f ElementListView.obj
 0001:00029bd0       ?OnColorAqua@CElementListView@@QAEXXZ 0042abd0 f ElementListView.obj
 0001:00029bf4       ?OnColorBlue@CElementListView@@QAEXXZ 0042abf4 f ElementListView.obj
 0001:00029c18       ?OnColorMagenta@CElementListView@@QAEXXZ 0042ac18 f ElementListView.obj
 0001:00029c3c       ?OnColorWhite@CElementListView@@QAEXXZ 0042ac3c f ElementListView.obj
 0001:00029c60       ?DoColorSet@CElementListView@@QAEXK@Z 0042ac60 f ElementListView.obj
 0001:00029d25       ?RecurseColorSet@CElementListView@@QAEXPAVPtg3DNode@@K@Z 0042ad25 f ElementListView.obj
 0001:00029e16       ?OnCurrentElementChange@CElementListView@@IAEJIJ@Z 0042ae16 f ElementListView.obj
 0001:00029e5f       ?PurgeExtraData@CElementListView@@QAEXPAU_TREEITEM@@@Z 0042ae5f f ElementListView.obj
 0001:00029f12       ?OnDestroy@CElementListView@@IAEXXZ 0042af12 f ElementListView.obj
 0001:00029fc8       ?OnMemberlistDelete@CElementListView@@IAEXXZ 0042afc8 f ElementListView.obj
 0001:0002a04c       ?deleteNode@@YAXPAVPtg3DNode@@@Z 0042b04c f ElementListView.obj
 0001:0002a15d       ?OnMemberlistSavedgn@CElementListView@@IAEXXZ 0042b15d f ElementListView.obj
 0001:0002a340       ??_GCElementListView@@MAEPAXI@Z 0042b340 f ElementListView.obj
 0001:0002a340       ??_ECElementListView@@MAEPAXI@Z 0042b340 f ElementListView.obj
 0001:0002a380       ?Width@CRect@@QBEHXZ       0042b380 f ElementListView.obj
 0001:0002a3b0       ?Height@CRect@@QBEHXZ      0042b3b0 f ElementListView.obj
 0001:0002a3e0       ?Expand@CTreeCtrl@@QAEHPAU_TREEITEM@@I@Z 0042b3e0 f ElementListView.obj
 0001:0002a420       ?SelectItem@CTreeCtrl@@QAEHPAU_TREEITEM@@@Z 0042b420 f ElementListView.obj
 0001:0002a450       ?ScreenToClient@CWnd@@QBEXPAUtagPOINT@@@Z 0042b450 f ElementListView.obj
 0001:0002a480       ?GetImageList@CTreeCtrl@@QBEPAVCImageList@@I@Z 0042b480 f ElementListView.obj
 0001:0002a4c0       ?RemoveAt@?$CList@PAVHierElem@@PAV1@@@QAEXPAU__POSITION@@@Z 0042b4c0 f ElementListView.obj
 0001:0002a550       ?Find@?$CList@PAVHierElem@@PAV1@@@QBEPAU__POSITION@@PAVHierElem@@PAU2@@Z 0042b550 f ElementListView.obj
 0001:0002a5d0       ?FreeNode@?$CList@PAVHierElem@@PAV1@@@IAEXPAUCNode@1@@Z 0042b5d0 f ElementListView.obj
 0001:0002a630       ?RemoveAll@?$CList@PAVHierElem@@PAV1@@@QAEXXZ 0042b630 f ElementListView.obj
 0001:0002a6c0       ?CompareElements@@YGHPBQAVHierElem@@0@Z 0042b6c0 f ElementListView.obj
 0001:0002a6f0       ?DestructElements@@YGXPAPAVHierElem@@H@Z 0042b6f0 f ElementListView.obj
 0001:0002a730       ?vectorLoadIdentity@@YAPANXZ 0042b730 f Ptg3DNode.obj
 0001:0002a828       ?vectorTMatrixTransposeRotation@@YAPANPAN@Z 0042b828 f Ptg3DNode.obj
 0001:0002a925       ?vectorTMatrixTransposeTranslation@@YAPANPAN@Z 0042b925 f Ptg3DNode.obj
 0001:0002aa7c       ??0Ptg3DNode@@QAE@XZ       0042ba7c f Ptg3DNode.obj
 0001:0002ab0e       ??1Ptg3DNode@@UAE@XZ       0042bb0e f Ptg3DNode.obj
 0001:0002abac       ?initVars@Ptg3DNode@@AAEXXZ 0042bbac f Ptg3DNode.obj
 0001:0002ac04       ?setColor@Ptg3DNode@@QAEXMMMM@Z 0042bc04 f Ptg3DNode.obj
 0001:0002ac40       ?getColor@Ptg3DNode@@QAEXQAM@Z 0042bc40 f Ptg3DNode.obj
 0001:0002acf8       ?setName@Ptg3DNode@@QAEXPBD@Z 0042bcf8 f Ptg3DNode.obj
 0001:0002ad4b       ?findByID@Ptg3DNode@@QAEPAV1@HQAI@Z 0042bd4b f Ptg3DNode.obj
 0001:0002adf9       ?getDrawStyle@Ptg3DNode@@QAE?AW4DrawStyle@1@XZ 0042bdf9 f Ptg3DNode.obj
 0001:0002ae56       ?findByName@Ptg3DNode@@QAEPAV1@PBDH@Z 0042be56 f Ptg3DNode.obj
 0001:0002af5a       ?setMatrix@Ptg3DNode@@QAEXPAN@Z 0042bf5a f Ptg3DNode.obj
 0001:0002af81       ?getMatrix@Ptg3DNode@@QAEPANPAV1@@Z 0042bf81 f Ptg3DNode.obj
 0001:0002b0fe       ?setDrawStyle@Ptg3DNode@@QAEXW4DrawStyle@1@H@Z 0042c0fe f Ptg3DNode.obj
 0001:0002b120       ?getType@Ptg3DNode@@UAEPBDXZ 0042c120 f Ptg3DNode.obj
 0001:0002b140       ??_GPtg3DNode@@UAEPAXI@Z   0042c140 f Ptg3DNode.obj
 0001:0002b140       ??_EPtg3DNode@@UAEPAXI@Z   0042c140 f Ptg3DNode.obj
 0001:0002b180       ?clearColor@Ptg3DNode@@QAEXXZ 0042c180 f Ptg3DNode.obj
 0001:0002b1b0       ?DDX_Length@@YGXPAVCDataExchange@@HN@Z 0042c1b0 f DDXFXNS.OBJ
 0001:0002b2d7       ?DDX_Text@@YGXPAVCDataExchange@@HPAD@Z 0042c2d7 f DDXFXNS.OBJ
 0001:0002b38c       ?DDX_Text@@YGXPAVCDataExchange@@HAAF@Z 0042c38c f DDXFXNS.OBJ
 0001:0002b3e6       ?DDX_Zerofill@@YGXPAVCDataExchange@@HAAFH@Z 0042c3e6 f DDXFXNS.OBJ
 0001:0002b454       ?DDX_SeqFormat@@YGXPAVCDataExchange@@HAAN@Z 0042c454 f DDXFXNS.OBJ
 0001:0002b504       ?DDV_InList@@YGXPAVCDataExchange@@HPBD@Z 0042c504 f DDXFXNS.OBJ
 0001:0002b564       ?DDX_CBString@@YGXPAVCDataExchange@@HPAD@Z 0042c564 f DDXFXNS.OBJ
 0001:0002b619       ?DDX_Check@@YGXPAVCDataExchange@@HAAF@Z 0042c619 f DDXFXNS.OBJ
 0001:0002b673       ?DDX_Text@@YGXPAVCDataExchange@@HAAD@Z 0042c673 f DDXFXNS.OBJ
 0001:0002b76d       ?DDX_Check@@YGXPAVCDataExchange@@HAAD@Z 0042c76d f DDXFXNS.OBJ
 0001:0002b7c6       ?DDX_Radio@@YGXPAVCDataExchange@@HAAF@Z 0042c7c6 f DDXFXNS.OBJ
 0001:0002b820       ?DDX_CBString@@YGXPAVCDataExchange@@HD@Z 0042c820 f DDXFXNS.OBJ
 0001:0002b8e4       ?DDX_BitCheck@@YGXPAVCDataExchange@@HAAFF@Z 0042c8e4 f DDXFXNS.OBJ
 0001:0002b990       ?FindString@CComboBox@@QBEHHPBD@Z 0042c990 f DDXFXNS.OBJ
 0001:0002b9d0       ?GetLength@CString@@QBEHXZ 0042c9d0 f DDXFXNS.OBJ
 0001:0002ba00       ?GetData@CString@@IBEPAUCStringData@@XZ 0042ca00 f DDXFXNS.OBJ
 0001:0002ba20       ?GetAt@CString@@QBEDH@Z    0042ca20 f DDXFXNS.OBJ
 0001:0002ba50       ?DoubleToUnitsString@@YAXNPAD@Z 0042ca50 f PointGridBar.obj
 0001:0002baae       ?ValueCellToMMDouble@@YANVCDTData@@H@Z 0042caae f PointGridBar.obj
 0001:0002bb83       ??0PointGridBar@@QAE@XZ    0042cb83 f PointGridBar.obj
 0001:0002bc0c       ??1PointGridBar@@UAE@XZ    0042cc0c f PointGridBar.obj
 0001:0002bc74       ?_GetBaseMessageMap@PointGridBar@@KGPBUAFX_MSGMAP@@XZ 0042cc74 f PointGridBar.obj
 0001:0002bc89       ?GetMessageMap@PointGridBar@@MBEPBUAFX_MSGMAP@@XZ 0042cc89 f PointGridBar.obj
 0001:0002bca4       ?_GetBaseEventSinkMap@PointGridBar@@KGPBUAFX_EVENTSINKMAP@@XZ 0042cca4 f PointGridBar.obj
 0001:0002bcb9       ?GetEventSinkMap@PointGridBar@@MBEPBUAFX_EVENTSINKMAP@@XZ 0042ccb9 f PointGridBar.obj
 0001:0002bcd4       ?OnLfClick3dPointGrid@PointGridBar@@IAEXFJJJPAJ@Z 0042ccd4 f PointGridBar.obj
 0001:0002bdfa       ?OnRowChangePointGrid@PointGridBar@@IAEXJ@Z 0042cdfa f PointGridBar.obj
 0001:0002becb       ?UpdateUnits@PointGridBar@@QAEXPAUGridRowData@@@Z 0042cecb f PointGridBar.obj
 0001:0002bfa5       ?OnSize@PointGridBar@@IAEXIHH@Z 0042cfa5 f PointGridBar.obj
 0001:0002c133       ?OnEditCopy@PointGridBar@@IAEXXZ 0042d133 f PointGridBar.obj
 0001:0002c17e       ?OnUpdateEditCopy@PointGridBar@@IAEXPAVCCmdUI@@@Z 0042d17e f PointGridBar.obj
 0001:0002c1a2       ?OnEditCut@PointGridBar@@IAEXXZ 0042d1a2 f PointGridBar.obj
 0001:0002c1ed       ?OnUpdateEditCut@PointGridBar@@IAEXPAVCCmdUI@@@Z 0042d1ed f PointGridBar.obj
 0001:0002c211       ?OnEditPaste@PointGridBar@@IAEXXZ 0042d211 f PointGridBar.obj
 0001:0002c25c       ?OnUpdateEditPaste@PointGridBar@@IAEXPAVCCmdUI@@@Z 0042d25c f PointGridBar.obj
 0001:0002c280       ?OnBeforeDeleteRowPointGrid@PointGridBar@@IAEXJPAJ@Z 0042d280 f PointGridBar.obj
 0001:0002c298       ?OnChangeNodeGrid@PointGridBar@@IAEXJJ@Z 0042d298 f PointGridBar.obj
 0001:0002c6e8       ?OnChangePointGrid@PointGridBar@@IAEXJJ@Z 0042d6e8 f PointGridBar.obj
 0001:0002ca9a       ?OnChangeCylinderGrid@PointGridBar@@IAEXJJ@Z 0042da9a f PointGridBar.obj
 0001:0002cdbd       ?OnChangeBoxGrid@PointGridBar@@IAEXJJ@Z 0042ddbd f PointGridBar.obj
 0001:0002d109       ?OnNotify@PointGridBar@@UAEHIJPAJ@Z 0042e109 f PointGridBar.obj
 0001:0002d1cd       ?Create@PointGridBar@@QAEHPAVCWnd@@I@Z 0042e1cd f PointGridBar.obj
 0001:0002d2ce       ?OnCurrentElementChange@PointGridBar@@IAEJIJ@Z 0042e2ce f PointGridBar.obj
 0001:0002d66e       ?OnUnitsChange@PointGridBar@@IAEJIJ@Z 0042e66e f PointGridBar.obj
 0001:0002d6bf       ?OnNew3DElement@PointGridBar@@IAEJIJ@Z 0042e6bf f PointGridBar.obj
 0001:0002d84c       ?add3DObjToGrid@@YAHPAVCDatatbl@@PAVPtg3DNode@@@Z 0042e84c f PointGridBar.obj
 0001:0002d9f4       ?add3DObjToGrid@@YAHPAVCDatatbl@@PAVPtg3DPointObj@@@Z 0042e9f4 f PointGridBar.obj
 0001:0002dbe4       ?add3DObjToGrid@@YAHPAVCDatatbl@@PAVPtg3DCalcPointObj@@@Z 0042ebe4 f PointGridBar.obj
 0001:0002de77       ?add3DObjToGrid@@YAHPAVCDatatbl@@PAVPtg3DCylinderObj@@@Z 0042ee77 f PointGridBar.obj
 0001:0002e380       ?add3DObjToGrid@@YAHPAVCDatatbl@@PAVPtg3DBoxObj@@@Z 0042f380 f PointGridBar.obj
 0001:0002e5aa       ?update3DObjInGrid@@YAHPAVCDatatbl@@PAVPtg3DPointObj@@J@Z 0042f5aa f PointGridBar.obj
 0001:0002ed4e       ?OnLfClickNodeGrid@PointGridBar@@IAEXFJJJPAJ@Z 0042fd4e f PointGridBar.obj
 0001:0002ee74       ?OnLfClickBoxGrid@PointGridBar@@IAEXFJJJPAJ@Z 0042fe74 f PointGridBar.obj
 0001:0002ef9a       ?OnLfClickCylinderGrid@PointGridBar@@IAEXFJJJPAJ@Z 0042ff9a f PointGridBar.obj
 0001:0002f0c0       ??_GPointGridBar@@UAEPAXI@Z 004300c0 f PointGridBar.obj
 0001:0002f0c0       ??_EPointGridBar@@UAEPAXI@Z 004300c0 f PointGridBar.obj
 0001:0002f100       ??1CDTColumnSet@@QAE@XZ    00430100 f PointGridBar.obj
 0001:0002f160       ?OnSize@CWnd@@IAEXIHH@Z    00430160 f PointGridBar.obj
 0001:0002f180       ??0CDTData@@QAE@ABV0@@Z    00430180 f PointGridBar.obj
 0001:0002f210       ?Create@CDialogBar@@QAEHPAVCWnd@@III@Z 00430210 f PointGridBar.obj
 0001:0002f250       ?InsertItem@CTabCtrl@@QAEHHPAUtagTCITEMA@@@Z 00430250 f PointGridBar.obj
 0001:0002f290       ?SetCurSel@CTabCtrl@@QAEHH@Z 00430290 f PointGridBar.obj
 0001:0002f2c0       ?getStdDev@Ptg3DCalcPointObj@@QAEPANXZ 004302c0 f PointGridBar.obj
 0001:0002f2f0       ?getRayMiss@Ptg3DCalcPointObj@@QAENXZ 004302f0 f PointGridBar.obj
 0001:0002f310       ??1CDTCurCell@@QAE@XZ      00430310 f PointGridBar.obj
 0001:0002f370       ??0CCircleBy3DPoint@@QAE@PAVCWnd@@@Z 00430370 f CircleBy3DPoint.obj
 0001:0002f3f4       ?DoDataExchange@CCircleBy3DPoint@@MAEXPAVCDataExchange@@@Z 004303f4 f CircleBy3DPoint.obj
 0001:0002f42d       ?_GetBaseMessageMap@CCircleBy3DPoint@@KGPBUAFX_MSGMAP@@XZ 0043042d f CircleBy3DPoint.obj
 0001:0002f442       ?GetMessageMap@CCircleBy3DPoint@@MBEPBUAFX_MSGMAP@@XZ 00430442 f CircleBy3DPoint.obj
 0001:0002f45d       ?OnOK@CCircleBy3DPoint@@MAEXXZ 0043045d f CircleBy3DPoint.obj
 0001:0002f58b       ?OnCancel@CCircleBy3DPoint@@MAEXXZ 0043058b f CircleBy3DPoint.obj
 0001:0002f5a9       ?OnCalculate@CCircleBy3DPoint@@IAEXXZ 004305a9 f CircleBy3DPoint.obj
 0001:0002fa71       ?OnInitDialog@CCircleBy3DPoint@@MAEHXZ 00430a71 f CircleBy3DPoint.obj
 0001:0002fac0       ??_GCCircleBy3DPoint@@UAEPAXI@Z 00430ac0 f CircleBy3DPoint.obj
 0001:0002fac0       ??_ECCircleBy3DPoint@@UAEPAXI@Z 00430ac0 f CircleBy3DPoint.obj
 0001:0002fb00       ??1CCircleBy3DPoint@@UAE@XZ 00430b00 f CircleBy3DPoint.obj
 0001:0002fb60       ?drawWireframe@Ptg3DPointObj@@MAEXXZ 00430b60 f Ptg3DPointObjOGL.obj
 0001:0002fbac       ?drawSolid@Ptg3DPointObj@@MAEXXZ 00430bac f Ptg3DPointObjOGL.obj
 0001:0002fbd0       ??0CCylinderData@@QAE@PAVCWnd@@@Z 00430bd0 f CylinderData.obj
 0001:0002fcea       ?DoDataExchange@CCylinderData@@MAEXPAVCDataExchange@@@Z 00430cea f CylinderData.obj
 0001:0002fdee       ?_GetBaseMessageMap@CCylinderData@@KGPBUAFX_MSGMAP@@XZ 00430dee f CylinderData.obj
 0001:0002fe03       ?GetMessageMap@CCylinderData@@MBEPBUAFX_MSGMAP@@XZ 00430e03 f CylinderData.obj
 0001:0002fe1e       ?OnInitDialog@CCylinderData@@MAEHXZ 00430e1e f CylinderData.obj
 0001:0002fe4b       ?OnCancel@CCylinderData@@MAEXXZ 00430e4b f CylinderData.obj
 0001:0002fe69       ?OnOK@CCylinderData@@MAEXXZ 00430e69 f CylinderData.obj
 0001:0002fe91       ?setValues@CCylinderData@@QAEXNNPAN@Z 00430e91 f CylinderData.obj
 0001:0002ff4a       ?getValues@CCylinderData@@QAEXPAN00@Z 00430f4a f CylinderData.obj
 0001:00030010       ??_ECCylinderData@@UAEPAXI@Z 00431010 f CylinderData.obj
 0001:00030010       ??_GCCylinderData@@UAEPAXI@Z 00431010 f CylinderData.obj
 0001:00030050       ??1CCylinderData@@UAE@XZ   00431050 f CylinderData.obj
 0001:000300b0       ?draw@Ptg3DNode@@QAEXXZ    004310b0 f Ptg3DNodeOGL.obj
 0001:00030255       ?drawWireframe@Ptg3DNode@@MAEXXZ 00431255 f Ptg3DNodeOGL.obj
 0001:0003026b       ?drawSolid@Ptg3DNode@@MAEXXZ 0043126b f Ptg3DNodeOGL.obj
 0001:00030290       ?GetBackColor@CDTRow@@QAEKXZ 00431290 f dtrow.obj
 0001:000302b9       ?SetBackColor@CDTRow@@QAEXK@Z 004312b9 f dtrow.obj
 0001:000302e5       ?GetSelBackColor@CDTRow@@QAEKXZ 004312e5 f dtrow.obj
 0001:0003030e       ?SetSelBackColor@CDTRow@@QAEXK@Z 0043130e f dtrow.obj
 0001:0003033a       ?GetForeColor@CDTRow@@QAEKXZ 0043133a f dtrow.obj
 0001:00030363       ?SetForeColor@CDTRow@@QAEXK@Z 00431363 f dtrow.obj
 0001:0003038f       ?GetSelForeColor@CDTRow@@QAEKXZ 0043138f f dtrow.obj
 0001:000303b8       ?SetSelForeColor@CDTRow@@QAEXK@Z 004313b8 f dtrow.obj
 0001:000303e4       ?GetFont@CDTRow@@QAE?AVCOleFont@@XZ 004313e4 f dtrow.obj
 0001:00030462       ?SetFont@CDTRow@@QAEXPAUIDispatch@@@Z 00431462 f dtrow.obj
 0001:0003048e       ?GetLabel@CDTRow@@QAE?AVCString@@XZ 0043148e f dtrow.obj
 0001:0003052d       ?SetLabel@CDTRow@@QAEXPBD@Z 0043152d f dtrow.obj
 0001:00030559       ?GetValue@CDTRow@@QAE?AUtagVARIANT@@XZ 00431559 f dtrow.obj
 0001:000305a0       ?SetValue@CDTRow@@QAEXABUtagVARIANT@@@Z 004315a0 f dtrow.obj
 0001:000305cc       ?GetSelected@CDTRow@@QAEHXZ 004315cc f dtrow.obj
 0001:000305f5       ?SetSelected@CDTRow@@QAEXH@Z 004315f5 f dtrow.obj
 0001:00030621       ?GetResize@CDTRow@@QAEJXZ  00431621 f dtrow.obj
 0001:0003064a       ?SetResize@CDTRow@@QAEXJ@Z 0043164a f dtrow.obj
 0001:00030676       ?GetHeight@CDTRow@@QAEMXZ  00431676 f dtrow.obj
 0001:0003069f       ?SetHeight@CDTRow@@QAEXM@Z 0043169f f dtrow.obj
 0001:000306d0       ?Invalidate@CDTRow@@QAEXXZ 004316d0 f dtrow.obj
 0001:0003076b       ?KillMeHard@@YAXXZ         0043176b f fotoview.obj
 0001:0003077b       ?bSetupPixelFormat@@YAHPAUHDC__@@@Z 0043177b f fotoview.obj
 0001:0003087e       ?SetDCPixelFormat@CFotoView@@QAEXPAUHDC__@@@Z 0043187e f fotoview.obj
 0001:00030a4a       ?CreateObject@CFotoView@@SGPAVCObject@@XZ 00431a4a f fotoview.obj
 0001:00030ad5       ?_GetBaseClass@CFotoView@@KGPAUCRuntimeClass@@XZ 00431ad5 f fotoview.obj
 0001:00030aea       ?GetRuntimeClass@CFotoView@@UBEPAUCRuntimeClass@@XZ 00431aea f fotoview.obj
 0001:00030b05       ??0CFotoView@@IAE@XZ       00431b05 f fotoview.obj
 0001:00030c22       ??1CFotoView@@MAE@XZ       00431c22 f fotoview.obj
 0001:00030d3e       ?_GetBaseMessageMap@CFotoView@@KGPBUAFX_MSGMAP@@XZ 00431d3e f fotoview.obj
 0001:00030d53       ?GetMessageMap@CFotoView@@MBEPBUAFX_MSGMAP@@XZ 00431d53 f fotoview.obj
 0001:00030d6e       ?OnDraw@CFotoView@@MAEXPAVCDC@@@Z 00431d6e f fotoview.obj
 0001:000315fc       ?OnCamera@CFotoView@@IAEXXZ 004325fc f fotoview.obj
 0001:00031612       ?OnImage@CFotoView@@IAEXXZ 00432612 f fotoview.obj
 0001:00031628       ?OnTarget@CFotoView@@IAEXXZ 00432628 f fotoview.obj
 0001:0003163e       ?OnCreate@CFotoView@@IAEHPAUtagCREATESTRUCTA@@@Z 0043263e f fotoview.obj
 0001:000319b5       ?PreCreateWindow@CFotoView@@MAEHAAUtagCREATESTRUCTA@@@Z 004329b5 f fotoview.obj
 0001:000319e3       ?OnSize@CFotoView@@IAEXIHH@Z 004329e3 f fotoview.obj
 0001:00031b1a       ?OnTimer@CFotoView@@IAEXI@Z 00432b1a f fotoview.obj
 0001:00031bbb       ?OnInitialUpdate@CFotoView@@UAEXXZ 00432bbb f fotoview.obj
 0001:00031c52       ?DrawColumns@CFotoView@@QAEXXZ 00432c52 f fotoview.obj
 0001:00031ee7       ?OnPaletteChanged@CFotoView@@IAEXPAVCWnd@@@Z 00432ee7 f fotoview.obj
 0001:00031f6c       ?OnQueryNewPalette@CFotoView@@IAEHXZ 00432f6c f fotoview.obj
 0001:00032008       ?SelRelPal@CFotoView@@QAEHH@Z 00433008 f fotoview.obj
 0001:000320ce       ?OnActivateView@CFotoView@@MAEXHPAVCView@@0@Z 004330ce f fotoview.obj
 0001:0003211d       ?OnLButtonUp@CFotoView@@IAEXIVCPoint@@@Z 0043311d f fotoview.obj
 0001:00032272       ?getPickedElement@CFotoView@@QAEPAVPtg3DNode@@PAVPtgCamera@@PAV2@HH@Z 00433272 f fotoview.obj
 0001:0003269f       ?OnRButtonUp@CFotoView@@IAEXIVCPoint@@@Z 0043369f f fotoview.obj
 0001:00032820       ?OnZoomin@CFotoView@@IAEXXZ 00433820 f fotoview.obj
 0001:00032840       ?OnZoomout@CFotoView@@IAEXXZ 00433840 f fotoview.obj
 0001:00032860       ?OnSelect@CFotoView@@IAEXXZ 00433860 f fotoview.obj
 0001:00032880       ?OnSetOrtho@CFotoView@@IAEXXZ 00433880 f fotoview.obj
 0001:000328bb       ?OnSetPerspective@CFotoView@@IAEXXZ 004338bb f fotoview.obj
 0001:000328f6       ?OnLButtonDblClk@CFotoView@@IAEXIVCPoint@@@Z 004338f6 f fotoview.obj
 0001:00032922       ?OnSetCenter@CFotoView@@IAEXXZ 00433922 f fotoview.obj
 0001:00032938       ?OnClipvolume@CFotoView@@IAEXXZ 00433938 f fotoview.obj
 0001:00032a53       ?OnUpdateZoomin@CFotoView@@IAEXPAVCCmdUI@@@Z 00433a53 f fotoview.obj
 0001:00032a96       ?OnUpdateZoomout@CFotoView@@IAEXPAVCCmdUI@@@Z 00433a96 f fotoview.obj
 0001:00032ad9       ?NewClipvolume@CFotoView@@IAEJIJ@Z 00433ad9 f fotoview.obj
 0001:00032bea       ?DoOrthoClip@CFotoView@@QAEXAAVCRect@@@Z 00433bea f fotoview.obj
 0001:00032d7c       ?SetStatusString@CFotoView@@QAEXPAD@Z 00433d7c f fotoview.obj
 0001:00032e10       ?OnHScroll@CFotoView@@IAEXIIPAVCScrollBar@@@Z 00433e10 f fotoview.obj
 0001:00032f9a       ?OnVScroll@CFotoView@@IAEXIIPAVCScrollBar@@@Z 00433f9a f fotoview.obj
 0001:00033124       ?OnScroll@CFotoView@@UAEHIIH@Z 00434124 f fotoview.obj
 0001:00033150       ?OnGraphicsDrawlist@CFotoView@@IAEXXZ 00434150 f fotoview.obj
 0001:00033270       ?OnViewFillmode@CFotoView@@IAEXXZ 00434270 f fotoview.obj
 0001:000332ce       ?OnGraphicsClipzones@CFotoView@@IAEXXZ 004342ce f fotoview.obj
 0001:000333e9       ?getMinMaxCamera@CFotoView@@QAEXPAVPtg3DNode@@@Z 004343e9 f fotoview.obj
 0001:000335c9       ?OnGraphicsFitview@CFotoView@@IAEXXZ 004345c9 f fotoview.obj
 0001:00033787       ?OnGraphicsLight@CFotoView@@IAEXXZ 00434787 f fotoview.obj
 0001:000338aa       ?OnGraphicsOpenglsettings@CFotoView@@IAEXXZ 004348aa f fotoview.obj
 0001:00033cbe       ?regenView@CFotoView@@QAEXXZ 00434cbe f fotoview.obj
 0001:00033d53       ?OnEraseBkgnd@CFotoView@@IAEHPAVCDC@@@Z 00434d53 f fotoview.obj
 0001:00033d70       ?SetMode@CFotoView@@SAXH@Z 00434d70 f fotoview.obj
 0001:00033d90       ??_ECFotoView@@MAEPAXI@Z   00434d90 f fotoview.obj
 0001:00033d90       ??_GCFotoView@@MAEPAXI@Z   00434d90 f fotoview.obj
 0001:00033dd0       ?RealizePalette@CDC@@QAEIXZ 00434dd0 f fotoview.obj
 0001:00033e00       ?GetPalette@CFotogDoc@@QAEPAVCPalette@@XZ 00434e00 f fotoview.obj
 0001:00033e20       ?getRays@PtgWorld@@QAEPAVPtg3DNode@@XZ 00434e20 f fotoview.obj
 0001:00033e40       ?getCameras@PtgWorld@@QAEPAVPtg3DNode@@XZ 00434e40 f fotoview.obj
 0001:00033e60       ??0CRect@@QAE@HHHH@Z       00434e60 f fotoview.obj
 0001:00033ea0       ?getPosition@PtgCamera@@QBEPBNXZ 00434ea0 f fotoview.obj
 0001:00033ec0       ?OnRButtonUp@CWnd@@IAEXIVCPoint@@@Z 00434ec0 f fotoview.obj
 0001:00033ee0       ?setLookDist@PtgCamera@@QAEXN@Z 00434ee0 f fotoview.obj
 0001:00033f10       ?getLookDist@PtgCamera@@QAENXZ 00434f10 f fotoview.obj
 0001:00033f30       ?GetMode@CFotoView@@SAHXZ  00434f30 f fotoview.obj
 0001:00033f50       ?setViewType@PtgCamera@@QAEXW4ViewType@1@@Z 00434f50 f fotoview.obj
 0001:00033f80       ?OnLButtonDblClk@CWnd@@IAEXIVCPoint@@@Z 00434f80 f fotoview.obj
 0001:00033fa0       ??1CZoneSelectDlg@@UAE@XZ  00434fa0 f fotoview.obj
 0001:00034070       ??0CRect@@QAE@ABUtagRECT@@@Z 00435070 f fotoview.obj
 0001:000340a0       ?setLightValues@CLightAdjust@@QAEXMMMM@Z 004350a0 f fotoview.obj
 0001:000340f0       ?getLightValues@CLightAdjust@@QAEXPAM000@Z 004350f0 f fotoview.obj
 0001:00034140       ??1CLightAdjust@@UAE@XZ    00435140 f fotoview.obj
 0001:00034210       ?getOpenGLBits@COpenGLSettings@@QAEJXZ 00435210 f fotoview.obj
 0001:00034230       ?rdmGroupLock@@YAHHPAUlock_request@@PAUDB_TASK_S@@H@Z 00435230 f rdm_utils.obj
 0001:000344a6       ?rdmGroupFree@@YAHHPAUlock_request@@PAUDB_TASK_S@@H@Z 004354a6 f rdm_utils.obj
 0001:00034585       ?rdmFreeAll@@YAHPAUDB_TASK_S@@H@Z 00435585 f rdm_utils.obj
 0001:000345ef       ?rdmRecLock@@YAHHPADPAUDB_TASK_S@@H@Z 004355ef f rdm_utils.obj
 0001:000346e4       ?rdmRecFree@@YAHHPAUDB_TASK_S@@H@Z 004356e4 f rdm_utils.obj
 0001:000347eb       ?IsTransActive@@YAHPAUDB_TASK_S@@@Z 004357eb f rdm_utils.obj
 0001:0003481b       ?rdmTransBegin@@YAHPADPAUDB_TASK_S@@@Z 0043581b f rdm_utils.obj
 0001:00034853       ?rdmTransEnd@@YAHPAUDB_TASK_S@@@Z 00435853 f rdm_utils.obj
 0001:000348a2       ?rdmTransAbort@@YAHPAUDB_TASK_S@@@Z 004358a2 f rdm_utils.obj
 0001:000348f1       ?c_lock2_i@@YAHD@Z         004358f1 f rdm_utils.obj
 0001:000349bb       ?i_lock2_c@@YADH@Z         004359bb f rdm_utils.obj
 0001:00034a7b       ?CreateRecLockTable@@YAHPAUDB_TASK_S@@@Z 00435a7b f rdm_utils.obj
 0001:00034adf       ?DestroyRecLockTable@@YAHXZ 00435adf f rdm_utils.obj
 0001:00034b20       ?IncRecLock@@YAHHPAUDB_TASK_S@@H@Z 00435b20 f rdm_utils.obj
 0001:00034b6b       ?DecRecLock@@YAHHPAUDB_TASK_S@@H@Z 00435b6b f rdm_utils.obj
 0001:00034bdf       ?GetRecLockCount@@YAHHPAUDB_TASK_S@@H@Z 00435bdf f rdm_utils.obj
 0001:00034c27       ?ClearLockTables@@YAHXZ    00435c27 f rdm_utils.obj
 0001:00034cbd       ?rdmSetFree@@YAHHPAUDB_TASK_S@@H@Z 00435cbd f rdm_utils.obj
 0001:00034d58       ?rdmSetLock@@YAHHPADPAUDB_TASK_S@@H@Z 00435d58 f rdm_utils.obj
 0001:00034e39       ?rdmRecWrite@@YAHPAXPAUDB_TASK_S@@HPADH@Z 00435e39 f rdm_utils.obj
 0001:00034e6e       ?rdmFillNew@@YAHHPAXPAUDB_TASK_S@@HPADH@Z 00435e6e f rdm_utils.obj
 0001:00034ea0       ?Prune@TransformObj@@QAEXW4T_F@@0@Z 00435ea0 f triton.obj
 0001:00034fb0       ?Prune@ClassesObj@@QAEXW4T_F@@0@Z 00435fb0 f triton.obj
 0001:00035402       ?Prune@GroupsObj@@QAEXW4T_F@@0@Z 00436402 f triton.obj
 0001:00035512       ?Prune@PropertiesObj@@QAEXW4T_F@@0@Z 00436512 f triton.obj
 0001:00035622       ?Prune@AllElements@@QAEXW4T_F@@0@Z 00436622 f triton.obj
 0001:00035740       ?DisConnect@AllElements@@QAE?AW4T_F@@AAVClassesObj@@H@Z 00436740 f triton.obj
 0001:00035770       ??0CZoneSelectDlg@@QAE@PAVCWnd@@@Z 00436770 f zonesele.obj
 0001:0003587b       ?DoDataExchange@CZoneSelectDlg@@MAEXPAVCDataExchange@@@Z 0043687b f zonesele.obj
 0001:000358cb       ?_GetBaseMessageMap@CZoneSelectDlg@@KGPBUAFX_MSGMAP@@XZ 004368cb f zonesele.obj
 0001:000358e0       ?GetMessageMap@CZoneSelectDlg@@MBEPBUAFX_MSGMAP@@XZ 004368e0 f zonesele.obj
 0001:000358fb       ?OnDblclkZonelist@CZoneSelectDlg@@IAEXXZ 004368fb f zonesele.obj
 0001:000359a2       ?OnInitDialog@CZoneSelectDlg@@MAEHXZ 004369a2 f zonesele.obj
 0001:00035a23       ?InsertRow@CZoneSelectDlg@@QAEHXZ 00436a23 f zonesele.obj
 0001:00035ac4       ?SendClipMessage@CZoneSelectDlg@@QAEXJ@Z 00436ac4 f zonesele.obj
 0001:00035c2d       ?OnOK@CZoneSelectDlg@@MAEXXZ 00436c2d f zonesele.obj
 0001:00035d00       ??_GCZoneSelectDlg@@UAEPAXI@Z 00436d00 f zonesele.obj
 0001:00035d00       ??_ECZoneSelectDlg@@UAEPAXI@Z 00436d00 f zonesele.obj
 0001:00035d40       ??0CDIBPal@@QAE@XZ         00436d40 f DIBPAL.OBJ
 0001:00035daf       ??1CDIBPal@@UAE@XZ         00436daf f DIBPAL.OBJ
 0001:00035e17       ?Create@CDIBPal@@QAEHPAVCDIB@@@Z 00436e17 f DIBPAL.OBJ
 0001:00035f14       ?GetNumColors@CDIBPal@@QAEHXZ 00436f14 f DIBPAL.OBJ
 0001:00035f51       ?Draw@CDIBPal@@QAEXPAVCDC@@PAVCRect@@H@Z 00436f51 f DIBPAL.OBJ
 0001:000360d1       ?SetSysPalColors@CDIBPal@@QAEHXZ 004370d1 f DIBPAL.OBJ
 0001:000362c0       ??0CPalette@@QAE@XZ        004372c0 f DIBPAL.OBJ
 0001:00036330       ??_ECPalette@@UAEPAXI@Z    00437330 f DIBPAL.OBJ
 0001:00036330       ??_GCPalette@@UAEPAXI@Z    00437330 f DIBPAL.OBJ
 0001:00036370       ??1CPalette@@UAE@XZ        00437370 f DIBPAL.OBJ
 0001:000363e0       ??_GCDIBPal@@UAEPAXI@Z     004373e0 f DIBPAL.OBJ
 0001:000363e0       ??_ECDIBPal@@UAEPAXI@Z     004373e0 f DIBPAL.OBJ
 0001:00036420       ?CreatePalette@CPalette@@QAEHPAUtagLOGPALETTE@@@Z 00437420 f DIBPAL.OBJ
 0001:00036450       ??1CBrush@@UAE@XZ          00437450 f DIBPAL.OBJ
 0001:000364c0       ??_ECBrush@@UAEPAXI@Z      004374c0 f DIBPAL.OBJ
 0001:000364c0       ??_GCBrush@@UAEPAXI@Z      004374c0 f DIBPAL.OBJ
 0001:00036500       ?Rectangle@CDC@@QAEHHHHH@Z 00437500 f DIBPAL.OBJ
 0001:00036540       ?SetPaletteEntries@CPalette@@QAEIIIPAUtagPALETTEENTRY@@@Z 00437540 f DIBPAL.OBJ
 0001:00036580       ?ResizePalette@CPalette@@QAEHI@Z 00437580 f DIBPAL.OBJ
 0001:000365b0       ?FindTMatrix@@YAHPAUtmatrix@@PBD@Z 004375b0 f imgoverlay.obj
 0001:000366d3       ?redrawZoomViewOverlay@@YAXPAVCFotobrowView@@PAVPtg3DNode@@@Z 004376d3 f imgoverlay.obj
 0001:00037584       ?updateRay@@YAXPAVPtg3DNode@@PADHJJN@Z 00438584 f imgoverlay.obj
 0001:00037753       ?createRayElement@@YAPAVPtg3DLineObj@@PADJJNPAV1@@Z 00438753 f imgoverlay.obj
 0001:00037b33       ?CorrectPnts@@YAHPADHPAPAPANAAPAPAPANN@Z 00438b33 f imgoverlay.obj
 0001:00037d82       ?CheckLocks@@YAHPAUDB_TASK_S@@H@Z 00438d82 f imgoverlay.obj
 0001:00037e60       ?GetSelected@CFotobrowView@@QAE?AVCPoint@@XZ 00438e60 f imgoverlay.obj
 0001:00037e90       ?GetDIB@CFotobrowDoc@@QAEPAVCDIB@@XZ 00438e90 f imgoverlay.obj
 0001:00037eb0       ?moment@@YAHQANHPAN11111@Z 00438eb0 f calc3dp.obj
 0001:00038099       ?CalculateStdDev@@YAHPAPANHPAU_Point3d@@@Z 00439099 f calc3dp.obj
 0001:000382f0       ?Calc3DPoint@@YAHPADPAU_Point3d@@@Z 004392f0 f calc3dp.obj
 0001:0003919c       ?KillBundleList@@YAXPAVCPtrList@@@Z 0043a19c f calc3dp.obj
 0001:000391fc       ?SearchForBundle@@YAPADXZ  0043a1fc f calc3dp.obj
 0001:000396cd       ?SearchForBundleSpecific@@YAPADPAPADH@Z 0043a6cd f calc3dp.obj
 0001:00039a30       ?fabs@@YAMM@Z              0043aa30 f calc3dp.obj
 0001:00039a50       _fabsf                     0043aa50 f calc3dp.obj
 0001:00039a80       ?SetSelected@CFotobrowDoc@@QAEXH@Z 0043aa80 f calc3dp.obj
 0001:00039ab0       ?GetImageName@CFotobrowDoc@@QAEPBDXZ 0043aab0 f calc3dp.obj
 0001:00039ae0       ?GetPathName@CDocument@@QBEABVCString@@XZ 0043aae0 f calc3dp.obj
 0001:00039b00       ?GetHeadPosition@CPtrList@@QBEPAU__POSITION@@XZ 0043ab00 f calc3dp.obj
 0001:00039b20       ?GetNext@CPtrList@@QAEAAPAXAAPAU__POSITION@@@Z 0043ab20 f calc3dp.obj
 0001:00039b50       ?charcat@@YAPADPADD@Z      0043ab50 f feetstat.obj
 0001:00039ba3       ?appendField@@YAXPAD@Z     0043aba3 f feetstat.obj
 0001:00039be6       ?anyHStoIS@@YAXD@Z         0043abe6 f feetstat.obj
 0001:00039c50       ?char_temp@@YAXD@Z         0043ac50 f feetstat.obj
 0001:00039c71       ?temp_feet@@YAXD@Z         0043ac71 f feetstat.obj
 0001:00039ca9       ?temp_win@@YAXD@Z          0043aca9 f feetstat.obj
 0001:00039ce1       ?temp_num@@YAXD@Z          0043ace1 f feetstat.obj
 0001:00039d19       ?temp_denom@@YAXD@Z        0043ad19 f feetstat.obj
 0001:00039d51       ?save_sign@@YAXD@Z         0043ad51 f feetstat.obj
 0001:00039d87       ?no_temp@@YAXD@Z           0043ad87 f feetstat.obj
 0001:00039d97       ?getInches@@YANPAD@Z       0043ad97 f feetstat.obj
 0001:00039f46       ?createExpandedTable@@YAPAPAW4State@@HH@Z 0043af46 f feetstat.obj
 0001:00039fa8       ?destroyExpandedTable@@YAXPAPAW4State@@H@Z 0043afa8 f feetstat.obj
 0001:00039ffb       ?StateMachineInit@@YAHQAUStateTransTable@@HPAPAW4State@@HH@Z 0043affb f feetstat.obj
 0001:0003a29c       ?getNextState@@YA?AW4State@@QAUStateTransTable@@PAPAW41@W41@H@Z 0043b29c f feetstat.obj
 0001:0003a2f0       ??0AllElements@@QAE@XZ     0043b2f0 f tritondraw.obj
 0001:0003a607       ??1AllElements@@UAE@XZ     0043b607 f tritondraw.obj
 0001:0003a7c0       ?_GetDb@AllElements@@UAEPAVVistaDb@@XZ 0043b7c0 f tritondraw.obj
 0001:0003a7e0       ??_EAllElements@@UAEPAXI@Z 0043b7e0 f tritondraw.obj
 0001:0003a7e0       ??_GAllElements@@UAEPAXI@Z 0043b7e0 f tritondraw.obj
 0001:0003a820       ?CreateObject@CZoneEditor@@SGPAVCObject@@XZ 0043b820 f ZoneEditor.obj
 0001:0003a8ab       ?_GetBaseClass@CZoneEditor@@KGPAUCRuntimeClass@@XZ 0043b8ab f ZoneEditor.obj
 0001:0003a8c0       ?GetRuntimeClass@CZoneEditor@@UBEPAUCRuntimeClass@@XZ 0043b8c0 f ZoneEditor.obj
 0001:0003a8db       ??0CZoneEditor@@IAE@XZ     0043b8db f ZoneEditor.obj
 0001:0003a970       ??1CZoneEditor@@MAE@XZ     0043b970 f ZoneEditor.obj
 0001:0003a9f4       ?DoDataExchange@CZoneEditor@@MAEXPAVCDataExchange@@@Z 0043b9f4 f ZoneEditor.obj
 0001:0003aa18       ?_GetBaseMessageMap@CZoneEditor@@KGPBUAFX_MSGMAP@@XZ 0043ba18 f ZoneEditor.obj
 0001:0003aa2d       ?GetMessageMap@CZoneEditor@@MBEPBUAFX_MSGMAP@@XZ 0043ba2d f ZoneEditor.obj
 0001:0003aa48       ?_GetBaseEventSinkMap@CZoneEditor@@KGPBUAFX_EVENTSINKMAP@@XZ 0043ba48 f ZoneEditor.obj
 0001:0003aa5d       ?GetEventSinkMap@CZoneEditor@@MBEPBUAFX_EVENTSINKMAP@@XZ 0043ba5d f ZoneEditor.obj
 0001:0003aa78       ?OnBeforeDeleteRowZonegrid@CZoneEditor@@IAEXJPAJ@Z 0043ba78 f ZoneEditor.obj
 0001:0003acc6       ?OnChangeZonegrid@CZoneEditor@@IAEXJJ@Z 0043bcc6 f ZoneEditor.obj
 0001:0003b59e       ?OnInitialUpdate@CZoneEditor@@UAEXXZ 0043c59e f ZoneEditor.obj
 0001:0003b733       ?OnSize@CZoneEditor@@IAEXIHH@Z 0043c733 f ZoneEditor.obj
 0001:0003b7c6       ?InsertRow@CZoneEditor@@QAEXXZ 0043c7c6 f ZoneEditor.obj
 0001:0003bd1e       ?DataTableToZoneData@@YAHAAVCDTData@@AAUZoneData@@@Z 0043cd1e f ZoneEditor.obj
 0001:0003be27       ?ZoneDataToDataTable@@YAHAAUZoneData@@AAVCDTData@@@Z 0043ce27 f ZoneEditor.obj
 0001:0003bf49       ?OnUnitsChange@CZoneEditor@@IAEJIJ@Z 0043cf49 f ZoneEditor.obj
 0001:0003c163       ?UpdateUnits@CZoneEditor@@QAEXPAUZoneData@@@Z 0043d163 f ZoneEditor.obj
 0001:0003c340       ??_ECZoneEditor@@MAEPAXI@Z 0043d340 f ZoneEditor.obj
 0001:0003c340       ??_GCZoneEditor@@MAEPAXI@Z 0043d340 f ZoneEditor.obj
 0001:0003c380       ??0Ptg3DConeObj@@QAE@XZ    0043d380 f Ptg3DConeObj.obj
 0001:0003c3f7       ??1Ptg3DConeObj@@UAE@XZ    0043d3f7 f Ptg3DConeObj.obj
 0001:0003c45f       ?initVars@Ptg3DConeObj@@AAEXXZ 0043d45f f Ptg3DConeObj.obj
 0001:0003c4d0       ?getType@Ptg3DConeObj@@UAEPBDXZ 0043d4d0 f Ptg3DConeObj.obj
 0001:0003c4f0       ??_EPtg3DConeObj@@UAEPAXI@Z 0043d4f0 f Ptg3DConeObj.obj
 0001:0003c4f0       ??_GPtg3DConeObj@@UAEPAXI@Z 0043d4f0 f Ptg3DConeObj.obj
 0001:0003c530       ?display_tm@@YAXPAN@Z      0043d530 f photog_math.obj
 0001:0003c7bf       ?matpnt@@YAPANPAN0@Z       0043d7bf f photog_math.obj
 0001:0003c880       ?crosspnt@@YAPANPAN0@Z     0043d880 f photog_math.obj
 0001:0003c905       ?get3dpnt_e@@YAPANHPAPAPANPAPAN0@Z 0043d905 f photog_math.obj
 0001:0003d401       ?get3dpnt_e_pld@@YAPANHPAPAPANPAPAN0@Z 0043e401 f photog_math.obj
 0001:0003e506       ?get3dpnt_np@@YAPANHPAPAPANPAPAN@Z 0043f506 f photog_math.obj
 0001:0003e562       ?get3dpnt@@YAPANHPAPAPANPAPAN@Z 0043f562 f photog_math.obj
 0001:0003e629       ?idmatrix@@YAPANXZ         0043f629 f photog_math.obj
 0001:0003e63f       ?forcesquare@@YAXPAN0PAPAN@Z 0043f63f f photog_math.obj
 0001:0003e66a       ?forcesquare@@YAXPAN0PAPANN@Z 0043f66a f photog_math.obj
 0001:0003eb00       ?forceortho@@YAXPAN0PAPAPAN@Z 0043fb00 f photog_math.obj
 0001:0003f18b       ?findscale@@YAPANPAN@Z     0044018b f photog_math.obj
 0001:0003f45d       ?srot@@YANHPAPAPAN0@Z      0044045d f photog_math.obj
 0001:0003fc20       ?getfilmcorr@@YAPANHNPAPAPAN0@Z 00440c20 f photog_math.obj
 0001:0004035b       ?radial_corr@@YAXHPAPAPANPAN@Z 0044135b f photog_math.obj
 0001:00040572       ?corrfilmpnt@@YAPAPAPANHNPANPAPAPAN0@Z 00441572 f photog_math.obj
 0001:000406e3       ?LUK@@YAPAPAPANHHHPAPAPAN0@Z 004416e3 f photog_math.obj
 0001:000409ca       ?getcamera@@YANHPAPAPAN0PAN@Z 004419ca f photog_math.obj
 0001:0004122c       ?getcamera_2@@YANHPAPAPAN0PAN@Z 0044222c f photog_math.obj
 0001:00041a10       ?square_matrix@@YAXPAN@Z   00442a10 f photog_math.obj
 0001:00041e23       ?getcamera3@@YANHPAPAPAN0PANH@Z 00442e23 f photog_math.obj
 0001:000437c9       ?ffor@@YAXN@Z              004447c9 f photog_math.obj
 0001:0004381d       ?bundlecheck@@YAHAAUBUNDLEDATA@@@Z 0044481d f photog_math.obj
 0001:00044723       ?newerBB@@YAXAAUBUNDLEDATA@@@Z 00445723 f photog_math.obj
 0001:00049b15       ?newBB@@YAXAAUBUNDLEDATA@@@Z 0044ab15 f photog_math.obj
 0001:0004b2d2       ?bndlxx@@YAXAAUBUNDLEDATA@@PAPAPAN@Z 0044c2d2 f photog_math.obj
 0001:0004d16b       ?subbndl@@YANHPAPAPAN00PANH@Z 0044e16b f photog_math.obj
 0001:0004ed55       ?bndl@@YAXHPAPAPAN00PANH@Z 0044fd55 f photog_math.obj
 0001:0004f57e       ?loopbundle@@YAXPAUBUNDLEDATA@@H@Z 0045057e f photog_math.obj
 0001:0004f967       ?bundle_with_one@@YAHAAUBUNDLEDATA@@@Z 00450967 f photog_math.obj
 0001:0004fdfa       ?bundle@@YAHAAUBUNDLEDATA@@@Z 00450dfa f photog_math.obj
 0001:00050eb3       ?rotx@@YAPANHPAPAPAN0@Z    00451eb3 f photog_math.obj
 0001:00051c45       ?subsrotx@@YAPANHPAPAPAN0PAN11@Z 00452c45 f photog_math.obj
 0001:0005237a       ?srotx@@YAPANHPAPAPAN0PAN@Z 0045337a f photog_math.obj
 0001:000523da       ?torealsys@@YAPANHPAPAPAN0H0PAN1@Z 004533da f photog_math.obj
 0001:000527e2       ?MergeBundles@@YAPANPAN0HPAPAPAN1@Z 004537e2 f photog_math.obj
 0001:000528a0       ??0Ptg3DCtorObj@@QAE@XZ    004538a0 f Ptg3DCtorObj.obj
 0001:00052917       ??1Ptg3DCtorObj@@UAE@XZ    00453917 f Ptg3DCtorObj.obj
 0001:0005297f       ?initVars@Ptg3DCtorObj@@AAEXXZ 0045397f f Ptg3DCtorObj.obj
 0001:000529d0       ?getType@Ptg3DCtorObj@@UAEPBDXZ 004539d0 f Ptg3DCtorObj.obj
 0001:000529f0       ??_EPtg3DCtorObj@@UAEPAXI@Z 004539f0 f Ptg3DCtorObj.obj
 0001:000529f0       ??_GPtg3DCtorObj@@UAEPAXI@Z 004539f0 f Ptg3DCtorObj.obj
 0001:00052a30       ?nurbsDrawCone@@YAXMMMMMM@Z 00453a30 f Ptg3DConeObjOGL.obj
 0001:00052e3c       ?drawCone@@YAXMMMMMM@Z     00453e3c f Ptg3DConeObjOGL.obj
 0001:00053055       ?drawWireframe@Ptg3DConeObj@@MAEXXZ 00454055 f Ptg3DConeObjOGL.obj
 0001:0005312c       ?drawSolid@Ptg3DConeObj@@MAEXXZ 0045412c f Ptg3DConeObjOGL.obj
 0001:00053210       ?_GetBaseClass@CResultSheetDlg@@KGPAUCRuntimeClass@@XZ 00454210 f resultsh.obj
 0001:00053225       ?GetRuntimeClass@CResultSheetDlg@@UBEPAUCRuntimeClass@@XZ 00454225 f resultsh.obj
 0001:00053240       ??0CResultSheetDlg@@QAE@IPAVCWnd@@I@Z 00454240 f resultsh.obj
 0001:000532bd       ??0CResultSheetDlg@@QAE@PBDPAVCWnd@@I@Z 004542bd f resultsh.obj
 0001:0005333a       ??1CResultSheetDlg@@UAE@XZ 0045433a f resultsh.obj
 0001:000533a2       ?_GetBaseMessageMap@CResultSheetDlg@@KGPBUAFX_MSGMAP@@XZ 004543a2 f resultsh.obj
 0001:000533b7       ?GetMessageMap@CResultSheetDlg@@MBEPBUAFX_MSGMAP@@XZ 004543b7 f resultsh.obj
 0001:000533e0       ??_GCResultSheetDlg@@UAEPAXI@Z 004543e0 f resultsh.obj
 0001:000533e0       ??_ECResultSheetDlg@@UAEPAXI@Z 004543e0 f resultsh.obj
 0001:00053420       ?OpenImageByName@@YAHPAD@Z 00454420 f img_help.obj
 0001:00053556       ?ConvertPoint@@YAXPAU_Point3d@@0@Z 00454556 f img_help.obj
 0001:00053640       ?drawRectTorus@@YAXMMMMM@Z 00454640 f Ptg3DRtorObjOGL.obj
 0001:00053b27       ?drawWireframe@Ptg3DRtorObj@@MAEXXZ 00454b27 f Ptg3DRtorObjOGL.obj
 0001:00053bdb       ?drawSolid@Ptg3DRtorObj@@MAEXXZ 00454bdb f Ptg3DRtorObjOGL.obj
 0001:00053c90       ?saveNodeToDGN@@YAHPAXPAVPtg3DNode@@@Z 00454c90 f exportToDGN.obj
 0001:000541d0       ?getOuterRadius@Ptg3DRtorObj@@QAENXZ 004551d0 f exportToDGN.obj
 0001:000541f0       ?getInnerRadius@Ptg3DRtorObj@@QAENXZ 004551f0 f exportToDGN.obj
 0001:00054210       ?getHeight@Ptg3DRtorObj@@QAENXZ 00455210 f exportToDGN.obj
 0001:00054230       ?getAngle@Ptg3DRtorObj@@QAENXZ 00455230 f exportToDGN.obj
 0001:00054250       ?getOuterRadius@Ptg3DCtorObj@@QAENXZ 00455250 f exportToDGN.obj
 0001:00054270       ?getInnerRadius@Ptg3DCtorObj@@QAENXZ 00455270 f exportToDGN.obj
 0001:00054290       ?getAngle@Ptg3DCtorObj@@QAENXZ 00455290 f exportToDGN.obj
 0001:000542b0       ?getHeight@Ptg3DPyramidObj@@QAENXZ 004552b0 f exportToDGN.obj
 0001:000542d0       ?getBaseWidth@Ptg3DPyramidObj@@QAENXZ 004552d0 f exportToDGN.obj
 0001:000542f0       ?getBaseDepth@Ptg3DPyramidObj@@QAENXZ 004552f0 f exportToDGN.obj
 0001:00054310       ?getTopWidth@Ptg3DPyramidObj@@QAENXZ 00455310 f exportToDGN.obj
 0001:00054330       ?getTopDepth@Ptg3DPyramidObj@@QAENXZ 00455330 f exportToDGN.obj
 0001:00054350       ?getWidthOffset@Ptg3DPyramidObj@@QAENXZ 00455350 f exportToDGN.obj
 0001:00054370       ?getDepthOffset@Ptg3DPyramidObj@@QAENXZ 00455370 f exportToDGN.obj
 0001:00054390       ?getTopRadius@Ptg3DConeObj@@QAENXZ 00455390 f exportToDGN.obj
 0001:000543b0       ?getBottomRadius@Ptg3DConeObj@@QAENXZ 004553b0 f exportToDGN.obj
 0001:000543d0       ?getHeight@Ptg3DConeObj@@QAENXZ 004553d0 f exportToDGN.obj
 0001:000543f0       ?getXOffset@Ptg3DConeObj@@QAENXZ 004553f0 f exportToDGN.obj
 0001:00054410       ?getYOffset@Ptg3DConeObj@@QAENXZ 00455410 f exportToDGN.obj
 0001:00054430       ?readLine@@YAPADPADHPAU_iobuf@@@Z 00455430 f importreview.obj
 0001:000544a5       ?importReviewModel@@YAHPADPAVPtg3DNode@@@Z 004554a5 f importreview.obj
 0001:000545b4       ?createHierLevel@@YAHPAU_iobuf@@PAVPtg3DNode@@@Z 004555b4 f importreview.obj
 0001:00054a0e       ?setTransform@@YAHPAU_iobuf@@PAVPtg3DNode@@H@Z 00455a0e f importreview.obj
 0001:00054fa9       ?createBox@@YAHPAU_iobuf@@PAVPtg3DNode@@@Z 00455fa9 f importreview.obj
 0001:00055171       ?createCylinder@@YAHPAU_iobuf@@PAVPtg3DNode@@@Z 00456171 f importreview.obj
 0001:00055312       ?createPyramid@@YAHPAU_iobuf@@PAVPtg3DNode@@@Z 00456312 f importreview.obj
 0001:000555c1       ?createRectTorus@@YAHPAU_iobuf@@PAVPtg3DNode@@@Z 004565c1 f importreview.obj
 0001:000557f0       ?createCircTorus@@YAHPAU_iobuf@@PAVPtg3DNode@@@Z 004567f0 f importreview.obj
 0001:000559e2       ?createSnout@@YAHPAU_iobuf@@PAVPtg3DNode@@@Z 004569e2 f importreview.obj
 0001:00055c58       ?createSRect@@YAHPAU_iobuf@@PAVPtg3DNode@@@Z 00456c58 f importreview.obj
 0001:00055fa4       ?createFacet@@YAHPAU_iobuf@@PAVPtg3DNode@@@Z 00456fa4 f importreview.obj
 0001:000563a8       ?getFixedField@@YAPADPADHH@Z 004573a8 f importreview.obj
 0001:00056460       ?GetCount@?$CList@PAVHierElem@@PAV1@@@QBEHXZ 00457460 f importreview.obj
 0001:00056480       ?GetHead@?$CList@PAVHierElem@@PAV1@@@QAEAAPAVHierElem@@XZ 00457480 f importreview.obj
 0001:000564a0       ?RemoveHead@?$CList@PAVHierElem@@PAV1@@@QAEPAVHierElem@@XZ 004574a0 f importreview.obj
 0001:00056510       ?qinitElemList@@YAXXZ      00457510 f fotobvw.obj
 0001:00056a5a       ?CreateObject@CFotobrowView@@SGPAVCObject@@XZ 00457a5a f fotobvw.obj
 0001:00056ae5       ?_GetBaseClass@CFotobrowView@@KGPAUCRuntimeClass@@XZ 00457ae5 f fotobvw.obj
 0001:00056afa       ?GetRuntimeClass@CFotobrowView@@UBEPAUCRuntimeClass@@XZ 00457afa f fotobvw.obj
 0001:00056b15       ??0CFotobrowView@@IAE@XZ   00457b15 f fotobvw.obj
 0001:00056d23       ??1CFotobrowView@@MAE@XZ   00457d23 f fotobvw.obj
 0001:00056eff       ?OnFinalRelease@CFotobrowView@@UAEXXZ 00457eff f fotobvw.obj
 0001:00056f3d       ?_GetBaseMessageMap@CFotobrowView@@KGPBUAFX_MSGMAP@@XZ 00457f3d f fotobvw.obj
 0001:00056f52       ?GetMessageMap@CFotobrowView@@MBEPBUAFX_MSGMAP@@XZ 00457f52 f fotobvw.obj
 0001:00056f6d       ?_GetBaseDispatchMap@CFotobrowView@@KGPBUAFX_DISPMAP@@XZ 00457f6d f fotobvw.obj
 0001:00056f82       ?GetDispatchMap@CFotobrowView@@MBEPBUAFX_DISPMAP@@XZ 00457f82 f fotobvw.obj
 0001:00056f9d       ?OnDraw@CFotobrowView@@MAEXPAVCDC@@@Z 00457f9d f fotobvw.obj
 0001:00057509       ?OnLButtonUp@CFotobrowView@@IAEXIVCPoint@@@Z 00458509 f fotobvw.obj
 0001:0005759e       ?OnVScroll@CFotobrowView@@IAEXIIPAVCScrollBar@@@Z 0045859e f fotobvw.obj
 0001:000576be       ?OnHScroll@CFotobrowView@@IAEXIIPAVCScrollBar@@@Z 004586be f fotobvw.obj
 0001:000577de       ?OnScroll@CFotobrowView@@UAEHIIH@Z 004587de f fotobvw.obj
 0001:0005780a       ?OnScrollBy@CFotobrowView@@MAEHVCSize@@H@Z 0045880a f fotobvw.obj
 0001:00057836       ?OnSize@CFotobrowView@@IAEXIHH@Z 00458836 f fotobvw.obj
 0001:000578ed       ?OnInitialUpdate@CFotobrowView@@UAEXXZ 004588ed f fotobvw.obj
 0001:00057b50       ?setImageName@CFotobrowView@@QAEXXZ 00458b50 f fotobvw.obj
 0001:00057d2b       ?SetStatusString@CFotobrowView@@QAEXAAVCPoint@@@Z 00458d2b f fotobvw.obj
 0001:00057e35       ?OnCreate@CFotobrowView@@IAEHPAUtagCREATESTRUCTA@@@Z 00458e35 f fotobvw.obj
 0001:00057ffd       ?DrawCross@CFotobrowView@@QAEXXZ 00458ffd f fotobvw.obj
 0001:000581ac       ?CenterOnPixel@CFotobrowView@@QAEXAAVCPoint@@@Z 004591ac f fotobvw.obj
 0001:00058340       ?DeviceToImage@CFotobrowView@@QAE?AVCPoint@@AAV2@@Z 00459340 f fotobvw.obj
 0001:000583d8       ?OnZoomin@CFotobrowView@@IAEXXZ 004593d8 f fotobvw.obj
 0001:000583f8       ?OnZoomout@CFotobrowView@@IAEXXZ 004593f8 f fotobvw.obj
 0001:00058418       ?ZoomMe@CFotobrowView@@QAEXH@Z 00459418 f fotobvw.obj
 0001:00058454       ?OnRButtonUp@CFotobrowView@@IAEXIVCPoint@@@Z 00459454 f fotobvw.obj
 0001:000585d9       ?OnAccelScrolldown@CFotobrowView@@IAEXXZ 004595d9 f fotobvw.obj
 0001:00058600       ?OnAccelScrollleft@CFotobrowView@@IAEXXZ 00459600 f fotobvw.obj
 0001:00058627       ?OnAccelScrollright@CFotobrowView@@IAEXXZ 00459627 f fotobvw.obj
 0001:0005864e       ?OnAccelScrollup@CFotobrowView@@IAEXXZ 0045964e f fotobvw.obj
 0001:00058675       ?OnAccelScrollpagedown@CFotobrowView@@IAEXXZ 00459675 f fotobvw.obj
 0001:0005869c       ?OnAccelScrollpageleft@CFotobrowView@@IAEXXZ 0045969c f fotobvw.obj
 0001:000586c3       ?OnAccelScrollpageright@CFotobrowView@@IAEXXZ 004596c3 f fotobvw.obj
 0001:000586ea       ?OnAccelScrollpageup@CFotobrowView@@IAEXXZ 004596ea f fotobvw.obj
 0001:00058711       ?OnAccelFittoview@CFotobrowView@@IAEXXZ 00459711 f fotobvw.obj
 0001:000587ff       ?OnQueryNewPalette@CFotobrowView@@IAEHXZ 004597ff f fotobvw.obj
 0001:00058829       ?OnPaletteChanged@CFotobrowView@@IAEXPAVCWnd@@@Z 00459829 f fotobvw.obj
 0001:00058857       ?SelRelPal@CFotobrowView@@QAEHH@Z 00459857 f fotobvw.obj
 0001:0005890a       ?OnActivateView@CFotobrowView@@MAEXHPAVCView@@0@Z 0045990a f fotobvw.obj
 0001:00058959       ?OnMouseMove@CFotobrowView@@IAEXIVCPoint@@@Z 00459959 f fotobvw.obj
 0001:00058991       ?OnSelect@CFotobrowView@@IAEXXZ 00459991 f fotobvw.obj
 0001:000589b1       ?TrackMouse@CFotobrowView@@QAEXPAUHWND__@@PAUtagRECT@@HH@Z 004599b1 f fotobvw.obj
 0001:00058fac       ?NormalizeRect@CFotobrowView@@QAEXPAUtagRECT@@@Z 00459fac f fotobvw.obj
 0001:0005902c       ?DrawSelect@CFotobrowView@@QAEXPAUHDC__@@UtagRECT@@KPBD@Z 0045a02c f fotobvw.obj
 0001:00059248       ?OnLButtonDown@CFotobrowView@@IAEXIVCPoint@@@Z 0045a248 f fotobvw.obj
 0001:000592cf       ?OnViewDefineregion@CFotobrowView@@IAEXXZ 0045a2cf f fotobvw.obj
 0001:000592f9       ?OnViewDeleteregion@CFotobrowView@@IAEXXZ 0045a2f9 f fotobvw.obj
 0001:0005930f       ?OnViewLabelregion@CFotobrowView@@IAEXXZ 0045a30f f fotobvw.obj
 0001:00059325       ?DrawBoxes@CFotobrowView@@QAEXXZ 0045a325 f fotobvw.obj
 0001:0005968c       ?OnFilePrintSetup@CFotobrowView@@IAEXXZ 0045a68c f fotobvw.obj
 0001:000596a2       ?SetDCPixelFormat@CFotobrowView@@QAEXPAUHDC__@@@Z 0045a6a2 f fotobvw.obj
 0001:00059877       ?OnTimer@CFotobrowView@@IAEXI@Z 0045a877 f fotobvw.obj
 0001:000598d1       ?PreCreateWindow@CFotobrowView@@MAEHAAUtagCREATESTRUCTA@@@Z 0045a8d1 f fotobvw.obj
 0001:000598ff       ?UpdateAllViews@CFotobrowView@@QAEXXZ 0045a8ff f fotobvw.obj
 0001:00059a7f       ?SetSelected@CFotobrowView@@QAEXH@Z 0045aa7f f fotobvw.obj
 0001:00059b12       ?updateMyRay@CFotobrowView@@QAEXH@Z 0045ab12 f fotobvw.obj
 0001:00059b89       ?DrawPoints@CFotobrowView@@QAEXXZ 0045ab89 f fotobvw.obj
 0001:00059d5b       ?cleanMultiSelect@CFotobrowView@@QAEXXZ 0045ad5b f fotobvw.obj
 0001:00059dc5       ?OnGraphicsDrawlist@CFotobrowView@@IAEXXZ 0045adc5 f fotobvw.obj
 0001:00059e5d       ?OnPrint@CFotobrowView@@MAEXPAVCDC@@PAUCPrintInfo@@@Z 0045ae5d f fotobvw.obj
 0001:00059e85       ?OnUpdateFilePrint@CFotobrowView@@IAEXPAVCCmdUI@@@Z 0045ae85 f fotobvw.obj
 0001:00059eb0       ?getTargets@PtgWorld@@QAEPAVPtg3DNode@@XZ 0045aeb0 f fotobvw.obj
 0001:00059ed0       ??_ECFotobrowView@@MAEPAXI@Z 0045aed0 f fotobvw.obj
 0001:00059ed0       ??_GCFotobrowView@@MAEPAXI@Z 0045aed0 f fotobvw.obj
 0001:00059f10       ??0CBrush@@QAE@XZ          0045af10 f fotobvw.obj
 0001:00059f80       ?CreateHatchBrush@CBrush@@QAEHHK@Z 0045af80 f fotobvw.obj
 0001:00059fb0       ?GetPalette@CFotobrowDoc@@QAEPAVCDIBPal@@XZ 0045afb0 f fotobvw.obj
 0001:00059fd0       ?GetMode@CFotobrowView@@SAHXZ 0045afd0 f fotobvw.obj
 0001:00059ff0       ??0CPoint@@QAE@HH@Z        0045aff0 f fotobvw.obj
 0001:0005a020       ??BCRect@@QAEPAUtagRECT@@XZ 0045b020 f fotobvw.obj
 0001:0005a040       ?SetRect@CRect@@QAEXHHHH@Z 0045b040 f fotobvw.obj
 0001:0005a080       ?CreateSolidBrush@CBrush@@QAEHK@Z 0045b080 f fotobvw.obj
 0001:0005a0b0       ?FrameRect@CDC@@QAEXPBUtagRECT@@PAVCBrush@@@Z 0045b0b0 f fotobvw.obj
 0001:0005a0f0       ?SetMode@CFotobrowView@@SAXH@Z 0045b0f0 f fotobvw.obj
 0001:0005a110       ??0CRect@@QAE@PBUtagRECT@@@Z 0045b110 f fotobvw.obj
 0001:0005a140       ??1CAssignEquipDlg@@UAE@XZ 0045b140 f fotobvw.obj
 0001:0005a1e0       ?TopLeft@CRect@@QAEAAVCPoint@@XZ 0045b1e0 f fotobvw.obj
 0001:0005a200       ?Rectangle@CDC@@QAEHPBUtagRECT@@@Z 0045b200 f fotobvw.obj
 0001:0005a240       ??0?$CList@PAVCPoint@@PAV1@@@QAE@H@Z 0045b240 f fotobvw.obj
 0001:0005a2f0       ?GetCount@?$CList@PAVCPoint@@PAV1@@@QBEHXZ 0045b2f0 f fotobvw.obj
 0001:0005a310       ?RemoveTail@?$CList@PAVCPoint@@PAV1@@@QAEPAVCPoint@@XZ 0045b310 f fotobvw.obj
 0001:0005a380       ?AddTail@?$CList@PAVCPoint@@PAV1@@@QAEPAU__POSITION@@PAVCPoint@@@Z 0045b380 f fotobvw.obj
 0001:0005a3f0       ?GetHeadPosition@?$CList@PAVCPoint@@PAV1@@@QBEPAU__POSITION@@XZ 0045b3f0 f fotobvw.obj
 0001:0005a410       ?GetNext@?$CList@PAVCPoint@@PAV1@@@QAEAAPAVCPoint@@AAPAU__POSITION@@@Z 0045b410 f fotobvw.obj
 0001:0005a440       ?GetAt@?$CList@PAVCPoint@@PAV1@@@QAEAAPAVCPoint@@PAU__POSITION@@@Z 0045b440 f fotobvw.obj
 0001:0005a470       ??1?$CList@PAVCPoint@@PAV1@@@UAE@XZ 0045b470 f fotobvw.obj
 0001:0005a4e0       ?Serialize@?$CList@PAVCPoint@@PAV1@@@UAEXAAVCArchive@@@Z 0045b4e0 f fotobvw.obj
 0001:0005a5a0       ??_G?$CList@PAVCPoint@@PAV1@@@UAEPAXI@Z 0045b5a0 f fotobvw.obj
 0001:0005a5a0       ??_E?$CList@PAVCPoint@@PAV1@@@UAEPAXI@Z 0045b5a0 f fotobvw.obj
 0001:0005a5e0       ?SerializeElements@@YGXAAVCArchive@@PAPAVCPoint@@H@Z 0045b5e0 f fotobvw.obj
 0001:0005a630       ?RemoveAll@?$CList@PAVCPoint@@PAV1@@@QAEXXZ 0045b630 f fotobvw.obj
 0001:0005a6c0       ?NewNode@?$CList@PAVCPoint@@PAV1@@@IAEPAUCNode@1@PAU21@0@Z 0045b6c0 f fotobvw.obj
 0001:0005a790       ?data@CPlex@@QAEPAXXZ      0045b790 f fotobvw.obj
 0001:0005a7b0       ?FreeNode@?$CList@PAVCPoint@@PAV1@@@IAEXPAUCNode@1@@Z 0045b7b0 f fotobvw.obj
 0001:0005a810       ?DestructElements@@YGXPAPAVCPoint@@H@Z 0045b810 f fotobvw.obj
 0001:0005a850       ?ConstructElements@@YGXPAPAVCPoint@@H@Z 0045b850 f fotobvw.obj
 0001:0005a8b0       ??2@YAPAXIPAX@Z            0045b8b0 f fotobvw.obj
 0001:0005a8d0       ?CreateObject@EngineeringData@@SGPAVCObject@@XZ 0045b8d0 f engineer.obj
 0001:0005a95b       ?_GetBaseClass@EngineeringData@@KGPAUCRuntimeClass@@XZ 0045b95b f engineer.obj
 0001:0005a970       ?GetRuntimeClass@EngineeringData@@UBEPAUCRuntimeClass@@XZ 0045b970 f engineer.obj
 0001:0005a98b       ??0EngineeringData@@QAE@XZ 0045b98b f engineer.obj
 0001:0005aa01       ??1EngineeringData@@UAE@XZ 0045ba01 f engineer.obj
 0001:0005aa69       ?DoDataExchange@EngineeringData@@MAEXPAVCDataExchange@@@Z 0045ba69 f engineer.obj
 0001:0005aa8d       ?_GetBaseMessageMap@EngineeringData@@KGPBUAFX_MSGMAP@@XZ 0045ba8d f engineer.obj
 0001:0005aaa2       ?GetMessageMap@EngineeringData@@MBEPBUAFX_MSGMAP@@XZ 0045baa2 f engineer.obj
 0001:0005aac0       ??_EEngineeringData@@UAEPAXI@Z 0045bac0 f engineer.obj
 0001:0005aac0       ??_GEngineeringData@@UAEPAXI@Z 0045bac0 f engineer.obj
 0001:0005ab00       ?_GetBaseClass@CGridBar@@KGPAUCRuntimeClass@@XZ 0045bb00 f gridbar.obj
 0001:0005ab15       ?GetRuntimeClass@CGridBar@@UBEPAUCRuntimeClass@@XZ 0045bb15 f gridbar.obj
 0001:0005ab30       ?_GetBaseMessageMap@CGridBar@@KGPBUAFX_MSGMAP@@XZ 0045bb30 f gridbar.obj
 0001:0005ab45       ?GetMessageMap@CGridBar@@MBEPBUAFX_MSGMAP@@XZ 0045bb45 f gridbar.obj
 0001:0005ab60       ?OnEditCopy@CGridBar@@IAEXXZ 0045bb60 f gridbar.obj
 0001:0005ab84       ?OnEditCut@CGridBar@@IAEXXZ 0045bb84 f gridbar.obj
 0001:0005aba8       ?OnEditPaste@CGridBar@@IAEXXZ 0045bba8 f gridbar.obj
 0001:0005abd0       ??0HierElem@@QAE@XZ        0045bbd0 f HierElem.obj
 0001:0005ac4f       ??1HierElem@@UAE@XZ        0045bc4f f HierElem.obj
 0001:0005ad52       ?initVars@HierElem@@AAEXXZ 0045bd52 f HierElem.obj
 0001:0005ad72       ?addMember@HierElem@@QAEXPAV1@@Z 0045bd72 f HierElem.obj
 0001:0005adb0       ?getType@HierElem@@UAEPBDXZ 0045bdb0 f HierElem.obj
 0001:0005add0       ??_EHierElem@@UAEPAXI@Z    0045bdd0 f HierElem.obj
 0001:0005add0       ??_GHierElem@@UAEPAXI@Z    0045bdd0 f HierElem.obj
 0001:0005ae10       ?setOwner@HierElem@@QAEXPAV1@@Z 0045be10 f HierElem.obj
 0001:0005ae40       ??0?$CList@PAVHierElem@@PAV1@@@QAE@H@Z 0045be40 f HierElem.obj
 0001:0005aef0       ?RemoveTail@?$CList@PAVHierElem@@PAV1@@@QAEPAVHierElem@@XZ 0045bef0 f HierElem.obj
 0001:0005af60       ?AddTail@?$CList@PAVHierElem@@PAV1@@@QAEPAU__POSITION@@PAVHierElem@@@Z 0045bf60 f HierElem.obj
 0001:0005afd0       ??1?$CList@PAVHierElem@@PAV1@@@UAE@XZ 0045bfd0 f HierElem.obj
 0001:0005b040       ?Serialize@?$CList@PAVHierElem@@PAV1@@@UAEXAAVCArchive@@@Z 0045c040 f HierElem.obj
 0001:0005b100       ??_E?$CList@PAVHierElem@@PAV1@@@UAEPAXI@Z 0045c100 f HierElem.obj
 0001:0005b100       ??_G?$CList@PAVHierElem@@PAV1@@@UAEPAXI@Z 0045c100 f HierElem.obj
 0001:0005b140       ?NewNode@?$CList@PAVHierElem@@PAV1@@@IAEPAUCNode@1@PAU21@0@Z 0045c140 f HierElem.obj
 0001:0005b210       ?SerializeElements@@YGXAAVCArchive@@PAPAVHierElem@@H@Z 0045c210 f HierElem.obj
 0001:0005b260       ?ConstructElements@@YGXPAPAVHierElem@@H@Z 0045c260 f HierElem.obj
 0001:0005b2c0       ?CreateObject@Construction@@SGPAVCObject@@XZ 0045c2c0 f construct.obj
 0001:0005b34b       ?_GetBaseClass@Construction@@KGPAUCRuntimeClass@@XZ 0045c34b f construct.obj
 0001:0005b360       ?GetRuntimeClass@Construction@@UBEPAUCRuntimeClass@@XZ 0045c360 f construct.obj
 0001:0005b37b       ??0Construction@@QAE@XZ    0045c37b f construct.obj
 0001:0005b3f1       ??1Construction@@UAE@XZ    0045c3f1 f construct.obj
 0001:0005b459       ?DoDataExchange@Construction@@MAEXPAVCDataExchange@@@Z 0045c459 f construct.obj
 0001:0005b47d       ?_GetBaseMessageMap@Construction@@KGPBUAFX_MSGMAP@@XZ 0045c47d f construct.obj
 0001:0005b492       ?GetMessageMap@Construction@@MBEPBUAFX_MSGMAP@@XZ 0045c492 f construct.obj
 0001:0005b4b0       ??_GConstruction@@UAEPAXI@Z 0045c4b0 f construct.obj
 0001:0005b4b0       ??_EConstruction@@UAEPAXI@Z 0045c4b0 f construct.obj
 0001:0005b4f0       ?GetFont@CDTCell@@QAE?AVCOleFont@@XZ 0045c4f0 f dtcell.obj
 0001:0005b56e       ?SetFont@CDTCell@@QAEXPAUIDispatch@@@Z 0045c56e f dtcell.obj
 0001:0005b59a       ?GetBackColor@CDTCell@@QAEKXZ 0045c59a f dtcell.obj
 0001:0005b5c3       ?SetBackColor@CDTCell@@QAEXK@Z 0045c5c3 f dtcell.obj
 0001:0005b5ef       ?GetForeColor@CDTCell@@QAEKXZ 0045c5ef f dtcell.obj
 0001:0005b618       ?SetForeColor@CDTCell@@QAEXK@Z 0045c618 f dtcell.obj
 0001:0005b644       ?GetSelBackColor@CDTCell@@QAEKXZ 0045c644 f dtcell.obj
 0001:0005b66d       ?SetSelBackColor@CDTCell@@QAEXK@Z 0045c66d f dtcell.obj
 0001:0005b699       ?GetSelForeColor@CDTCell@@QAEKXZ 0045c699 f dtcell.obj
 0001:0005b6c2       ?SetSelForeColor@CDTCell@@QAEXK@Z 0045c6c2 f dtcell.obj
 0001:0005b6ee       ?GetNullFlag@CDTCell@@QAEHXZ 0045c6ee f dtcell.obj
 0001:0005b717       ?SetNullFlag@CDTCell@@QAEXH@Z 0045c717 f dtcell.obj
 0001:0005b743       ?GetValue@CDTCell@@QAE?AUtagVARIANT@@XZ 0045c743 f dtcell.obj
 0001:0005b78a       ?SetValue@CDTCell@@QAEXABUtagVARIANT@@@Z 0045c78a f dtcell.obj
 0001:0005b7b6       ?GetSelected@CDTCell@@QAEHXZ 0045c7b6 f dtcell.obj
 0001:0005b7df       ?SetSelected@CDTCell@@QAEXH@Z 0045c7df f dtcell.obj
 0001:0005b80b       ?Invalidate@CDTCell@@QAEXXZ 0045c80b f dtcell.obj
 0001:0005b837       ?MakeVisible@CDTCell@@QAEXXZ 0045c837 f dtcell.obj
 0001:0005b863       ?GetRect@CDTCell@@QAEHJPAM000@Z 0045c863 f dtcell.obj
 0001:0005b8b0       ?drawSolid@Ptg3DPyramidObj@@MAEXXZ 0045c8b0 f Ptg3DPyramidObjOGL.obj
 0001:0005bd87       ?drawWireframe@Ptg3DPyramidObj@@MAEXXZ 0045cd87 f Ptg3DPyramidObjOGL.obj
 0001:0005c180       ??0CColorMenu@@QAE@XZ      0045d180 f colormenu.obj
 0001:0005c202       ??1CColorMenu@@UAE@XZ      0045d202 f colormenu.obj
 0001:0005c272       ?MeasureItem@CColorMenu@@UAEXPAUtagMEASUREITEMSTRUCT@@@Z 0045d272 f colormenu.obj
 0001:0005c2ae       ?DrawItem@CColorMenu@@UAEXPAUtagDRAWITEMSTRUCT@@@Z 0045d2ae f colormenu.obj
 0001:0005c43a       ?AppendColorMenuItem@CColorMenu@@QAEXIK@Z 0045d43a f colormenu.obj
 0001:0005c470       ??0CMenu@@QAE@XZ           0045d470 f colormenu.obj
 0001:0005c4f0       ??_GCMenu@@UAEPAXI@Z       0045d4f0 f colormenu.obj
 0001:0005c4f0       ??_ECMenu@@UAEPAXI@Z       0045d4f0 f colormenu.obj
 0001:0005c530       ??1CMenu@@UAE@XZ           0045d530 f colormenu.obj
 0001:0005c5a0       ?CreateMenu@CMenu@@QAEHXZ  0045d5a0 f colormenu.obj
 0001:0005c5d0       ??_GCColorMenu@@UAEPAXI@Z  0045d5d0 f colormenu.obj
 0001:0005c5d0       ??_ECColorMenu@@UAEPAXI@Z  0045d5d0 f colormenu.obj
 0001:0005c610       ?FillRect@CDC@@QAEXPBUtagRECT@@PAVCBrush@@@Z 0045d610 f colormenu.obj
 0001:0005c650       ?AppendMenuA@CMenu@@QAEHIIPBD@Z 0045d650 f colormenu.obj
 0001:0005c690       ??0CCreateCylinderByEdgeDlg@@QAE@PAVCWnd@@@Z 0045d690 f CreateCylinderByEdgeDlg.obj
 0001:0005c817       ??1CCreateCylinderByEdgeDlg@@UAE@XZ 0045d817 f CreateCylinderByEdgeDlg.obj
 0001:0005c994       ?DoDataExchange@CCreateCylinderByEdgeDlg@@MAEXPAVCDataExchange@@@Z 0045d994 f CreateCylinderByEdgeDlg.obj
 0001:0005ca23       ?_GetBaseMessageMap@CCreateCylinderByEdgeDlg@@KGPBUAFX_MSGMAP@@XZ 0045da23 f CreateCylinderByEdgeDlg.obj
 0001:0005ca38       ?GetMessageMap@CCreateCylinderByEdgeDlg@@MBEPBUAFX_MSGMAP@@XZ 0045da38 f CreateCylinderByEdgeDlg.obj
 0001:0005ca53       ?OnBack@CCreateCylinderByEdgeDlg@@IAEXXZ 0045da53 f CreateCylinderByEdgeDlg.obj
 0001:0005ca69       ?OnNext@CCreateCylinderByEdgeDlg@@IAEXXZ 0045da69 f CreateCylinderByEdgeDlg.obj
 0001:0005cabc       ?OnOK@CCreateCylinderByEdgeDlg@@MAEXXZ 0045dabc f CreateCylinderByEdgeDlg.obj
 0001:0005d8b0       ?OnCancel@CCreateCylinderByEdgeDlg@@MAEXXZ 0045e8b0 f CreateCylinderByEdgeDlg.obj
 0001:0005d8e0       ?OnInitDialog@CCreateCylinderByEdgeDlg@@MAEHXZ 0045e8e0 f CreateCylinderByEdgeDlg.obj
 0001:0005d9c9       ?UpdateLabel@CCreateCylinderByEdgeDlg@@QAEXPAD@Z 0045e9c9 f CreateCylinderByEdgeDlg.obj
 0001:0005da4d       ?processEdge@CCreateCylinderByEdgeDlg@@QAEXXZ 0045ea4d f CreateCylinderByEdgeDlg.obj
 0001:0005dacf       ?processDirPoint@CCreateCylinderByEdgeDlg@@QAEXXZ 0045eacf f CreateCylinderByEdgeDlg.obj
 0001:0005dc0b       ?processEndPoint@CCreateCylinderByEdgeDlg@@QAEHXZ 0045ec0b f CreateCylinderByEdgeDlg.obj
 0001:0005dce9       ?PrintMakeCylData@@YAXHPAHPAPAPAPANPAPAPAN222@Z 0045ece9 f CreateCylinderByEdgeDlg.obj
 0001:0005df59       ?OnClose@CCreateCylinderByEdgeDlg@@IAEXXZ 0045ef59 f CreateCylinderByEdgeDlg.obj
 0001:0005dfc2       ?OnDestroy@CCreateCylinderByEdgeDlg@@IAEXXZ 0045efc2 f CreateCylinderByEdgeDlg.obj
 0001:0005e02b       ?UpdateButtons@CCreateCylinderByEdgeDlg@@QAEXXZ 0045f02b f CreateCylinderByEdgeDlg.obj
 0001:0005e1b0       ??0CButton@@QAE@XZ         0045f1b0 f CreateCylinderByEdgeDlg.obj
 0001:0005e220       ??_GCButton@@UAEPAXI@Z     0045f220 f CreateCylinderByEdgeDlg.obj
 0001:0005e220       ??_ECButton@@UAEPAXI@Z     0045f220 f CreateCylinderByEdgeDlg.obj
 0001:0005e260       ??0Point_2D@@QAE@XZ        0045f260 f CreateCylinderByEdgeDlg.obj
 0001:0005e290       ??1Point_2D@@QAE@XZ        0045f290 f CreateCylinderByEdgeDlg.obj
 0001:0005e2f0       ??_ECCreateCylinderByEdgeDlg@@UAEPAXI@Z 0045f2f0 f CreateCylinderByEdgeDlg.obj
 0001:0005e2f0       ??_GCCreateCylinderByEdgeDlg@@UAEPAXI@Z 0045f2f0 f CreateCylinderByEdgeDlg.obj
 0001:0005e330       ??_GEdge_2D@@QAEPAXI@Z     0045f330 f CreateCylinderByEdgeDlg.obj
 0001:0005e370       ??1Edge_2D@@QAE@XZ         0045f370 f CreateCylinderByEdgeDlg.obj
 0001:0005e420       ?getImageName@Point_2D@@QAEPBDXZ 0045f420 f CreateCylinderByEdgeDlg.obj
 0001:0005e440       ?getPoint@Point_2D@@QAEPANXZ 0045f440 f CreateCylinderByEdgeDlg.obj
 0001:0005e460       ??0Edge_2D@@QAE@XZ         0045f460 f CreateCylinderByEdgeDlg.obj
 0001:0005e4f0       ?OnClose@CWnd@@IAEXXZ      0045f4f0 f CreateCylinderByEdgeDlg.obj
 0001:0005e510       ?OnDestroy@CWnd@@IAEXXZ    0045f510 f CreateCylinderByEdgeDlg.obj
 0001:0005e530       ??0?$CList@PAVEdge_2D@@PAV1@@@QAE@H@Z 0045f530 f CreateCylinderByEdgeDlg.obj
 0001:0005e5e0       ?GetCount@?$CList@PAVEdge_2D@@PAV1@@@QBEHXZ 0045f5e0 f CreateCylinderByEdgeDlg.obj
 0001:0005e600       ?RemoveTail@?$CList@PAVEdge_2D@@PAV1@@@QAEPAVEdge_2D@@XZ 0045f600 f CreateCylinderByEdgeDlg.obj
 0001:0005e670       ?AddTail@?$CList@PAVEdge_2D@@PAV1@@@QAEPAU__POSITION@@PAVEdge_2D@@@Z 0045f670 f CreateCylinderByEdgeDlg.obj
 0001:0005e6e0       ?GetHeadPosition@?$CList@PAVEdge_2D@@PAV1@@@QBEPAU__POSITION@@XZ 0045f6e0 f CreateCylinderByEdgeDlg.obj
 0001:0005e700       ?GetNext@?$CList@PAVEdge_2D@@PAV1@@@QAEAAPAVEdge_2D@@AAPAU__POSITION@@@Z 0045f700 f CreateCylinderByEdgeDlg.obj
 0001:0005e730       ??1?$CList@PAVEdge_2D@@PAV1@@@UAE@XZ 0045f730 f CreateCylinderByEdgeDlg.obj
 0001:0005e7a0       ?Serialize@?$CList@PAVEdge_2D@@PAV1@@@UAEXAAVCArchive@@@Z 0045f7a0 f CreateCylinderByEdgeDlg.obj
 0001:0005e860       ??_G?$CList@PAVEdge_2D@@PAV1@@@UAEPAXI@Z 0045f860 f CreateCylinderByEdgeDlg.obj
 0001:0005e860       ??_E?$CList@PAVEdge_2D@@PAV1@@@UAEPAXI@Z 0045f860 f CreateCylinderByEdgeDlg.obj
 0001:0005e8a0       ?SerializeElements@@YGXAAVCArchive@@PAPAVEdge_2D@@H@Z 0045f8a0 f CreateCylinderByEdgeDlg.obj
 0001:0005e8f0       ?RemoveAll@?$CList@PAVEdge_2D@@PAV1@@@QAEXXZ 0045f8f0 f CreateCylinderByEdgeDlg.obj
 0001:0005e980       ?NewNode@?$CList@PAVEdge_2D@@PAV1@@@IAEPAUCNode@1@PAU21@0@Z 0045f980 f CreateCylinderByEdgeDlg.obj
 0001:0005ea50       ?FreeNode@?$CList@PAVEdge_2D@@PAV1@@@IAEXPAUCNode@1@@Z 0045fa50 f CreateCylinderByEdgeDlg.obj
 0001:0005eab0       ?DestructElements@@YGXPAPAVEdge_2D@@H@Z 0045fab0 f CreateCylinderByEdgeDlg.obj
 0001:0005eaf0       ?ConstructElements@@YGXPAPAVEdge_2D@@H@Z 0045faf0 f CreateCylinderByEdgeDlg.obj
 0001:0005eb50       ?getSurveyModelTransform@@YAHPANPBD@Z 0045fb50 f regfuncs.obj
 0001:0005eb75       ?saveSurveyModelTransform@@YAHPANPBD@Z 0045fb75 f regfuncs.obj
 0001:0005eb9a       ?getMeasurementTransform@@YAHPANPBD@Z 0045fb9a f regfuncs.obj
 0001:0005ebbf       ?saveMeasurementTransform@@YAHPANPBD@Z 0045fbbf f regfuncs.obj
 0001:0005ebe4       ?getTransform@@YAHPBDPAN0@Z 0045fbe4 f regfuncs.obj
 0001:0005f025       ?saveTransform@@YAHPBDPAN0@Z 00460025 f regfuncs.obj
 0001:0005f394       ?getUnits@@YAHXZ           00460394 f regfuncs.obj
 0001:0005f461       ?saveUnits@@YAHH@Z         00460461 f regfuncs.obj
 0001:0005f510       ??0CProjectSettings@@QAE@PAVCWnd@@@Z 00460510 f projects.obj
 0001:0005f6a9       ?DoDataExchange@CProjectSettings@@MAEXPAVCDataExchange@@@Z 004606a9 f projects.obj
 0001:0005f755       ?_GetBaseMessageMap@CProjectSettings@@KGPBUAFX_MSGMAP@@XZ 00460755 f projects.obj
 0001:0005f76a       ?GetMessageMap@CProjectSettings@@MBEPBUAFX_MSGMAP@@XZ 0046076a f projects.obj
 0001:0005f785       ?OnInitDialog@CProjectSettings@@MAEHXZ 00460785 f projects.obj
 0001:0005fba4       ?OnRemove@CProjectSettings@@IAEXXZ 00460ba4 f projects.obj
 0001:0005fbc8       ?OnApply@CProjectSettings@@IAEXXZ 00460bc8 f projects.obj
 0001:0005fff7       ?OnOK@CProjectSettings@@MAEXXZ 00460ff7 f projects.obj
 0001:00060112       ?OnDblclkProjlist@CProjectSettings@@IAEXXZ 00461112 f projects.obj
 0001:000601be       ?OnSurveyXform@CProjectSettings@@IAEXXZ 004611be f projects.obj
 0001:00060260       ??_GCProjectSettings@@UAEPAXI@Z 00461260 f projects.obj
 0001:00060260       ??_ECProjectSettings@@UAEPAXI@Z 00461260 f projects.obj
 0001:000602a0       ??1CTransformDlg@@UAE@XZ   004612a0 f projects.obj
 0001:00060320       ??_9@$BMM@AE               00461320 f projects.obj
 0001:00060330       ??0Ptg3DCylinderObj@@QAE@XZ 00461330 f Ptg3DCylinderObj.obj
 0001:000603a7       ??1Ptg3DCylinderObj@@UAE@XZ 004613a7 f Ptg3DCylinderObj.obj
 0001:0006040f       ?initVars@Ptg3DCylinderObj@@AAEXXZ 0046140f f Ptg3DCylinderObj.obj
 0001:00060450       ?getType@Ptg3DCylinderObj@@UAEPBDXZ 00461450 f Ptg3DCylinderObj.obj
 0001:00060470       ??_EPtg3DCylinderObj@@UAEPAXI@Z 00461470 f Ptg3DCylinderObj.obj
 0001:00060470       ??_GPtg3DCylinderObj@@UAEPAXI@Z 00461470 f Ptg3DCylinderObj.obj
 0001:000604b0       ?GetCalcPnt@@YAXKKAAPANAAK@Z 004614b0 f bundleutils.obj
 0001:00060611       ?GetSurvPnt@@YAXKAAPAN@Z   00461611 f bundleutils.obj
 0001:000606d6       ?IsValidTMatrix@@YAHUtmatrix@@@Z 004616d6 f bundleutils.obj
 0001:00060750       ?CreateObject@Commisioning@@SGPAVCObject@@XZ 00461750 f comision.obj
 0001:000607db       ?_GetBaseClass@Commisioning@@KGPAUCRuntimeClass@@XZ 004617db f comision.obj
 0001:000607f0       ?GetRuntimeClass@Commisioning@@UBEPAUCRuntimeClass@@XZ 004617f0 f comision.obj
 0001:0006080b       ??0Commisioning@@QAE@XZ    0046180b f comision.obj
 0001:00060881       ??1Commisioning@@UAE@XZ    00461881 f comision.obj
 0001:000608e9       ?DoDataExchange@Commisioning@@MAEXPAVCDataExchange@@@Z 004618e9 f comision.obj
 0001:0006090d       ?_GetBaseMessageMap@Commisioning@@KGPBUAFX_MSGMAP@@XZ 0046190d f comision.obj
 0001:00060922       ?GetMessageMap@Commisioning@@MBEPBUAFX_MSGMAP@@XZ 00461922 f comision.obj
 0001:00060940       ??_ECommisioning@@UAEPAXI@Z 00461940 f comision.obj
 0001:00060940       ??_GCommisioning@@UAEPAXI@Z 00461940 f comision.obj
 0001:00060980       ??0PtgCamera@@QAE@XZ       00461980 f PtgCamera.obj
 0001:000609a1       ??1PtgCamera@@QAE@XZ       004619a1 f PtgCamera.obj
 0001:000609ca       ?initVars@PtgCamera@@AAEXXZ 004619ca f PtgCamera.obj
 0001:00060abd       ?setPosition@PtgCamera@@QAEXNNN@Z 00461abd f PtgCamera.obj
 0001:00060b0b       ?setLookAt@PtgCamera@@QAEXNNN@Z 00461b0b f PtgCamera.obj
 0001:00060b50       ?setAspectRatio@PtgCamera@@QAEXN@Z 00461b50 f PtgCamera.obj
 0001:00060b77       ?setFieldOfViewY@PtgCamera@@QAEXN@Z 00461b77 f PtgCamera.obj
 0001:00060b9e       ?movePosBy@PtgCamera@@QAEXNNN@Z 00461b9e f PtgCamera.obj
 0001:00060bf5       ?setClipping@PtgCamera@@QAEXNN@Z 00461bf5 f PtgCamera.obj
 0001:00060c2b       ?setOrthoClip@PtgCamera@@QAEXNNNN@Z 00461c2b f PtgCamera.obj
 0001:00060c82       ?setDirection@PtgCamera@@QAEXNNN@Z 00461c82 f PtgCamera.obj
 0001:00060cd0       ?setUpDirection@PtgCamera@@QAEXNNN@Z 00461cd0 f PtgCamera.obj
 0001:00060d1e       ?setRotation@PtgCamera@@QAEXNNN@Z 00461d1e f PtgCamera.obj
 0001:00060d70       ??0CBundleCalcDlg@@QAE@PAVCWnd@@@Z 00461d70 f BundleCalcDlg.obj
 0001:00060e0d       ?OnFinalRelease@CBundleCalcDlg@@UAEXXZ 00461e0d f BundleCalcDlg.obj
 0001:00060e2b       ?DoDataExchange@CBundleCalcDlg@@MAEXPAVCDataExchange@@@Z 00461e2b f BundleCalcDlg.obj
 0001:00060e64       ?_GetBaseMessageMap@CBundleCalcDlg@@KGPBUAFX_MSGMAP@@XZ 00461e64 f BundleCalcDlg.obj
 0001:00060e79       ?GetMessageMap@CBundleCalcDlg@@MBEPBUAFX_MSGMAP@@XZ 00461e79 f BundleCalcDlg.obj
 0001:00060e94       ?_GetBaseDispatchMap@CBundleCalcDlg@@KGPBUAFX_DISPMAP@@XZ 00461e94 f BundleCalcDlg.obj
 0001:00060ea9       ?GetDispatchMap@CBundleCalcDlg@@MBEPBUAFX_DISPMAP@@XZ 00461ea9 f BundleCalcDlg.obj
 0001:00060ec4       ?_GetBaseInterfaceMap@CBundleCalcDlg@@KGPBUAFX_INTERFACEMAP@@XZ 00461ec4 f BundleCalcDlg.obj
 0001:00060ed9       ?GetInterfaceMap@CBundleCalcDlg@@MBEPBUAFX_INTERFACEMAP@@XZ 00461ed9 f BundleCalcDlg.obj
 0001:00060ef4       ?OnCalculate@CBundleCalcDlg@@IAEXXZ 00461ef4 f BundleCalcDlg.obj
 0001:00060fd2       ?OnCancel@CBundleCalcDlg@@MAEXXZ 00461fd2 f BundleCalcDlg.obj
 0001:00060ff0       ?OnInitDialog@CBundleCalcDlg@@MAEHXZ 00461ff0 f BundleCalcDlg.obj
 0001:000610c0       ??_GCBundleCalcDlg@@UAEPAXI@Z 004620c0 f BundleCalcDlg.obj
 0001:000610c0       ??_ECBundleCalcDlg@@UAEPAXI@Z 004620c0 f BundleCalcDlg.obj
 0001:00061100       ?GetState@CButton@@QBEIXZ  00462100 f BundleCalcDlg.obj
 0001:00061130       ??0CAssignEquipDlg@@QAE@PAVCWnd@@@Z 00462130 f assigneq.obj
 0001:00061204       ?DoDataExchange@CAssignEquipDlg@@MAEXPAVCDataExchange@@@Z 00462204 f assigneq.obj
 0001:00061254       ?_GetBaseMessageMap@CAssignEquipDlg@@KGPBUAFX_MSGMAP@@XZ 00462254 f assigneq.obj
 0001:00061269       ?GetMessageMap@CAssignEquipDlg@@MBEPBUAFX_MSGMAP@@XZ 00462269 f assigneq.obj
 0001:00061284       ?OnInitDialog@CAssignEquipDlg@@MAEHXZ 00462284 f assigneq.obj
 0001:0006137b       ?SetImageData@CAssignEquipDlg@@QAEXAAVCRect@@J@Z 0046237b f assigneq.obj
 0001:000613bb       ?OnOK@CAssignEquipDlg@@MAEXXZ 004623bb f assigneq.obj
 0001:000616e0       ??_GCAssignEquipDlg@@UAEPAXI@Z 004626e0 f assigneq.obj
 0001:000616e0       ??_ECAssignEquipDlg@@UAEPAXI@Z 004626e0 f assigneq.obj
 0001:00061720       ?AddString@CComboBox@@QAEHPBD@Z 00462720 f assigneq.obj
 0001:00061750       ?IsInUse@equipObj@@QAEHXZ  00462750 f rvqConnect.obj
 0001:00061830       ?matmat@@YAPANPAN0@Z       00462830 f mathsubs.obj
 0001:00061aa0       ?matinv@@YAPANPAN@Z        00462aa0 f mathsubs.obj
 0001:00061db0       ?matinv@@YAPANPAPAPAN@Z    00462db0 f mathsubs.obj
 0001:00061ef6       ?decomp_matrix@@YAPANPAN0@Z 00462ef6 f mathsubs.obj
 0001:00062275       ?get_matrix_scales@@YAPANPAN@Z 00463275 f mathsubs.obj
 0001:000622bd       ?pythag@@YANNN@Z           004632bd f mathsubs.obj
 0001:000623ed       ?getquad@@YAHPAN@Z         004633ed f mathsubs.obj
 0001:00062474       ?getinitrot@@YAPANPAN0@Z   00463474 f mathsubs.obj
 0001:000625f1       ?getinittm@@YAPANHPAPAPAN0@Z 004635f1 f mathsubs.obj
 0001:000627d0       ?memcount@@YAJH@Z          004637d0 f mathsubs.obj
 0001:00062808       ?myalloc@@YAPAXI@Z         00463808 f mathsubs.obj
 0001:0006284f       ?myfree@@YAXPAD@Z          0046384f f mathsubs.obj
 0001:000628ab       ?nrerror@@YAXPAD@Z         004638ab f mathsubs.obj
 0001:00062925       ?clear_vector@@YAXPANHH@Z  00463925 f mathsubs.obj
 0001:0006296d       ?vector@@YAPANHH@Z         0046396d f mathsubs.obj
 0001:000629dd       ?print_vector@@YAPANPANHH@Z 004639dd f mathsubs.obj
 0001:00062a49       ?print_matrix@@YAPAPAPANPAPAPANHHHH@Z 00463a49 f mathsubs.obj
 0001:00062b00       ?add_vector@@YAXPANHH0HH@Z 00463b00 f mathsubs.obj
 0001:00062b56       ?subtract_vector@@YAXPANHH0HH@Z 00463b56 f mathsubs.obj
 0001:00062bac       ?copy_vector@@YAXPANHH0HH@Z 00463bac f mathsubs.obj
 0001:00062c01       ?clone_vector@@YAPANPANHHHH@Z 00463c01 f mathsubs.obj
 0001:00062c4a       ?subvector@@YAPANPANHHH@Z  00463c4a f mathsubs.obj
 0001:00062c74       ?free_vector@@YAXAAPANHH@Z 00463c74 f mathsubs.obj
 0001:00062cb8       ?clear_matrix@@YAXPAPAPANHHHH@Z 00463cb8 f mathsubs.obj
 0001:00062d26       ?cross_vector@@YAPANPAN0@Z 00463d26 f mathsubs.obj
 0001:00062dab       ?dot_vector@@YANHPAN0@Z    00463dab f mathsubs.obj
 0001:00062e07       ?vector_length@@YANHPAN@Z  00463e07 f mathsubs.obj
 0001:00062e41       ?multvector@@YAXHPANN@Z    00463e41 f mathsubs.obj
 0001:00062e89       ?unit_vector@@YAPANHPAN@Z  00463e89 f mathsubs.obj
 0001:00062ee6       ?mathdr@@YAPAUmat_hdr_st@@PAPAPAN@Z 00463ee6 f mathsubs.obj
 0001:00062ef9       ?get_matrix_nr@@YAHPAPAPAN@Z 00463ef9 f mathsubs.obj
 0001:00062f28       ?get_matrix_rl@@YAHPAPAPAN@Z 00463f28 f mathsubs.obj
 0001:00062f50       ?get_matrix_rh@@YAHPAPAPAN@Z 00463f50 f mathsubs.obj
 0001:00062f78       ?free_matrix_shell@@YAXAAPAPAPAN@Z 00463f78 f mathsubs.obj
 0001:00062fde       ?matrix_shell@@YAPAPAPANHHHH@Z 00463fde f mathsubs.obj
 0001:00063105       ?matrix@@YAPAPAPANHHHH@Z   00464105 f mathsubs.obj
 0001:000631d6       ?add_matrix_rows@@YAHPAPAPANH@Z 004641d6 f mathsubs.obj
 0001:0006334f       ?add_matrix_shell_rows@@YAHPAPAPANH@Z 0046434f f mathsubs.obj
 0001:000634b6       ?copy_matrix@@YAXPAPAPANHHHH0HHHH@Z 004644b6 f mathsubs.obj
 0001:00063575       ?clone_matrix@@YAPAPAPANPAPAPANHHHHHHHH@Z 00464575 f mathsubs.obj
 0001:000635d6       ?free_matrix@@YAXAAPAPAPANHHHH@Z 004645d6 f mathsubs.obj
 0001:0006367b       ?submatrix@@YAPAPAPANPAPAPANHHHHHH@Z 0046467b f mathsubs.obj
 0001:00063704       ?free_submatrix@@YAXAAPAPAPANHHHH@Z 00464704 f mathsubs.obj
 0001:0006373a       ?normalize_matrix@@YAXPAN00@Z 0046473a f mathsubs.obj
 0001:0006380b       ?transpose@@YAPAPAPANPAPAPANHHHH@Z 0046480b f mathsubs.obj
 0001:000638a4       ?matrix_mult@@YAPAPAPANPAPAPANHHHH0HHHHHHHH@Z 004648a4 f mathsubs.obj
 0001:000639b8       ?dot@@YANPANHH0HH@Z        004649b8 f mathsubs.obj
 0001:00063a1c       ?matrix_vector@@YAPANPAPAPANHHHHPANHH@Z 00464a1c f mathsubs.obj
 0001:00063a9e       ?ludcmp@@YAXPAPANHPAHPAN@Z 00464a9e f mathsubs.obj
 0001:00063e98       ?lubksb@@YAXPAPANHPAHPAN@Z 00464e98 f mathsubs.obj
 0001:0006400e       ?mprove@@YAXPAPAN0HPAHPAN2@Z 0046500e f mathsubs.obj
 0001:00064116       ?pivit@@YAXFPAPAN@Z        00465116 f mathsubs.obj
 0001:000642bd       ?solve@@YAPANPAPAPANPANH@Z 004652bd f mathsubs.obj
 0001:00064389       ?lsq@@YAPANPAPAPANPANHH@Z  00465389 f mathsubs.obj
 0001:0006448d       ?svdcmp@@YAXPAPAPANHHPAN0@Z 0046548d f mathsubs.obj
 0001:0006575e       ?svbksb@@YAXPAPAPANPAN0HH11@Z 0046675e f mathsubs.obj
 0001:000658bf       ?svdvar@@YAXPAPAPANHPAN0@Z 004668bf f mathsubs.obj
 0001:00065a49       ?svdfit@@YAXPAPAPANPAN1H1H0011P6AXN0H@Z@Z 00466a49 f mathsubs.obj
 0001:00065cba       ?covsrt@@YAXPAPAPANHQAHH@Z 00466cba f mathsubs.obj
 0001:00065e8a       ?mrqcof@@YAXPAN00H0QAHHPAPAPAN00P6AX0000H@Z@Z 00466e8a f mathsubs.obj
 0001:00066127       ?mrqmin@@YAXPAN00H0QAHHPAPAPAN20P6AXN000H@Z0@Z 00467127 f mathsubs.obj
 0001:00066594       ?BBlsq@@YAXPAPAPAN000PAN11HHHH11PAPAPAPANHH1@Z 00467594 f mathsubs.obj
 0001:00067035       ?choldc@@YAXPAPAPANHPAN@Z  00468035 f mathsubs.obj
 0001:0006715e       ?choldcinv@@YAXPAPAPANH@Z  0046815e f mathsubs.obj
 0001:000673a7       ?pnt2film@@YAXNPAN000@Z    004683a7 f mathsubs.obj
 0001:00067466       ?pnt2film_error@@YAXNPAN0000@Z 00468466 f mathsubs.obj
 0001:000674d0       ??0rvqLiteTask@@QAE@XZ     004684d0 f rvqLite.obj
 0001:00067612       ??0rvqLiteTask@@QAE@PAD@Z  00468612 f rvqLite.obj
 0001:000676f6       ??1rvqLiteTask@@QAE@XZ     004686f6 f rvqLite.obj
 0001:00067793       ?openDatabase@rvqLiteTask@@QAE?AW4T_F@@PAD@Z 00468793 f rvqLite.obj
 0001:00067817       ?closeDatabase@rvqLiteTask@@QAE?AW4T_F@@XZ 00468817 f rvqLite.obj
 0001:0006784f       ?initializeDatabase@rvqLiteTask@@QAE?AW4T_F@@PAD@Z 0046884f f rvqLite.obj
 0001:000678a0       ?GetCount@CDTColumnSet@@QAEJXZ 004688a0 f dtcolumnset.obj
 0001:000678c9       ?SetCount@CDTColumnSet@@QAEXJ@Z 004688c9 f dtcolumnset.obj
 0001:000678f5       ?GetAllowResize@CDTColumnSet@@QAEHXZ 004688f5 f dtcolumnset.obj
 0001:0006791e       ?SetAllowResize@CDTColumnSet@@QAEXH@Z 0046891e f dtcolumnset.obj
 0001:0006794a       ?GetSelectType@CDTColumnSet@@QAEJXZ 0046894a f dtcolumnset.obj
 0001:00067973       ?SetSelectType@CDTColumnSet@@QAEXJ@Z 00468973 f dtcolumnset.obj
 0001:0006799f       ?GetNumListItems@CDTColumnSet@@QAEFXZ 0046899f f dtcolumnset.obj
 0001:000679c9       ?SetNumListItems@CDTColumnSet@@QAEXF@Z 004689c9 f dtcolumnset.obj
 0001:000679f6       ?GetHideListArrow@CDTColumnSet@@QAEHXZ 004689f6 f dtcolumnset.obj
 0001:00067a1f       ?SetHideListArrow@CDTColumnSet@@QAEXH@Z 00468a1f f dtcolumnset.obj
 0001:00067a4b       ?GetLabelType@CDTColumnSet@@QAEFXZ 00468a4b f dtcolumnset.obj
 0001:00067a75       ?SetLabelType@CDTColumnSet@@QAEXF@Z 00468a75 f dtcolumnset.obj
 0001:00067aa2       ?GetSortEnabled@CDTColumnSet@@QAEHXZ 00468aa2 f dtcolumnset.obj
 0001:00067acb       ?SetSortEnabled@CDTColumnSet@@QAEXH@Z 00468acb f dtcolumnset.obj
 0001:00067af7       ?Remove@CDTColumnSet@@QAEXJ@Z 00468af7 f dtcolumnset.obj
 0001:00067b2c       ?Move@CDTColumnSet@@QAEXJJ@Z 00468b2c f dtcolumnset.obj
 0001:00067b65       ?Copy@CDTColumnSet@@QAEXJJ@Z 00468b65 f dtcolumnset.obj
 0001:00067b9e       ?GetSelectCount@CDTColumnSet@@QAEJXZ 00468b9e f dtcolumnset.obj
 0001:00067bcf       ?SelectRange@CDTColumnSet@@QAEXJJH@Z 00468bcf f dtcolumnset.obj
 0001:00067c0c       ?GetVisCount@CDTColumnSet@@QAEJJ@Z 00468c0c f dtcolumnset.obj
 0001:00067c46       ?GetSortKey@CDTColumnSet@@QAEJJ@Z 00468c46 f dtcolumnset.obj
 0001:00067c80       ?SetSortKey@CDTColumnSet@@QAEXJJ@Z 00468c80 f dtcolumnset.obj
 0001:00067cb9       ?GetSortAsc@CDTColumnSet@@QAEHJ@Z 00468cb9 f dtcolumnset.obj
 0001:00067cf3       ?SetSortAsc@CDTColumnSet@@QAEXJH@Z 00468cf3 f dtcolumnset.obj
 0001:00067d2c       ?GetSortCaseI@CDTColumnSet@@QAEHJ@Z 00468d2c f dtcolumnset.obj
 0001:00067d66       ?SetSortCaseI@CDTColumnSet@@QAEXJH@Z 00468d66 f dtcolumnset.obj
 0001:00067d9f       ?GetFirstVisible@CDTColumnSet@@QAEJJ@Z 00468d9f f dtcolumnset.obj
 0001:00067dd9       ?SetFirstVisible@CDTColumnSet@@QAEXJJ@Z 00468dd9 f dtcolumnset.obj
 0001:00067e12       ?Add@CDTColumnSet@@QAEXJ@Z 00468e12 f dtcolumnset.obj
 0001:00067e47       ?GetColWithName@CDTColumnSet@@QAEJPBD@Z 00468e47 f dtcolumnset.obj
 0001:00067e81       ?GetItem@CDTColumnSet@@QAE?AVCDTColumn@@J@Z 00468e81 f dtcolumnset.obj
 0001:00067f0e       ?SetItem@CDTColumnSet@@QAEXJPAUIDispatch@@@Z 00468f0e f dtcolumnset.obj
 0001:00067f47       ?Get_Item@CDTColumnSet@@QAE?AVCDTColumn@@J@Z 00468f47 f dtcolumnset.obj
 0001:00067fd4       ?Set_Item@CDTColumnSet@@QAEXJPAUIDispatch@@@Z 00468fd4 f dtcolumnset.obj
 0001:0006800d       ?GetSelect@CDTColumnSet@@QAEJJ@Z 0046900d f dtcolumnset.obj
 0001:00068050       ??0CDTColumn@@QAE@PAUIDispatch@@@Z 00469050 f dtcolumnset.obj
 0001:000680c0       ??1CDTColumn@@QAE@XZ       004690c0 f dtcolumnset.obj
 0001:00068120       ?rotpnt@@YAXPAN0@Z         00469120 f ele_math.obj
 0001:000681f4       ?prj_pnt_onto_line@@YAPANPAN00@Z 004691f4 f ele_math.obj
 0001:00068295       ?dist_pnt_to_line@@YANPANPAPAPAN@Z 00469295 f ele_math.obj
 0001:00068328       ?dist_pnt_to_line@@YANPAN00@Z 00469328 f ele_math.obj
 0001:000683b1       ?intersect_lines_dir@@YANPAN00000@Z 004693b1 f ele_math.obj
 0001:00068589       ?prj_pnt_onto_plane@@YAPANPAN00@Z 00469589 f ele_math.obj
 0001:00068634       ?intersect_line_plane@@YAPANPAN000@Z 00469634 f ele_math.obj
 0001:00068713       ?intersect_line_beamSide@@YAPANPAN00NN00@Z 00469713 f ele_math.obj
 0001:00068816       ?intersect_line_sphere@@YAPAPAPANNPAN00@Z 00469816 f ele_math.obj
 0001:00068963       ?intersect_line_cyl@@YAPAPAPANNPAN000@Z 00469963 f ele_math.obj
 0001:00068b8a       ?intersect_line_cone@@YAPAPAPANNPAN000@Z 00469b8a f ele_math.obj
 0001:00068ef0       ?centroid@@YAPANHPAPAPAN0@Z 00469ef0 f ele_math.obj
 0001:000690aa       ?cvec@@YAPANHPAPAPAN@Z     0046a0aa f ele_math.obj
 0001:000693e2       ?norm_circ@@YAXHPAPAPANPANH01@Z 0046a3e2 f ele_math.obj
 0001:0006a347       ?init_circ@@YAXHPAPAPANPANH01@Z 0046b347 f ele_math.obj
 0001:0006afe9       ?find_ellipse@@YAPAPAPANHPAPAPAN@Z 0046bfe9 f ele_math.obj
 0001:0006b43a       ?xfind_ellipse@@YAPAPAPANHPAPAPAN@Z 0046c43a f ele_math.obj
 0001:0006c0e2       ?circle_by_edge@@YAPANHPAPAPAN0PAN1@Z 0046d0e2 f ele_math.obj
 0001:0006d0d9       ?xxcircle_by_edge@@YAPANHPAPAPAN0PAN@Z 0046e0d9 f ele_math.obj
 0001:0006e06c       ?xcircle_by_edge@@YAPANHPAPAPAN0@Z 0046f06c f ele_math.obj
 0001:0006eff5       ?con_circles@@YAPANHPAH0PAPAPAPANPAPAPAN2@Z 0046fff5 f ele_math.obj
 0001:0007040b       ?sphere_by_edge@@YAPANHPAPAPAN0@Z 0047140b f ele_math.obj
 0001:00070d3f       ?make_sphere_by_edge@@YAHHPAPAPAN0AAUSphere@@AAU_transform@@@Z 00471d3f f ele_math.obj
 0001:00070f07       ?MakeCirc@@YAHHPAHPAPAPAPANPAPAPANAANAAU_transform@@@Z 00471f07 f ele_math.obj
 0001:000719d2       ?make_rtorus_by_edge@@YAHPAH0PAPAPAPANPAPAPAN22AAUrect_torus@@AAU_transform@@@Z 004729d2 f ele_math.obj
 0001:00071c1f       ?make_snout_by_circle@@YAHPAH0PAPAPAPANPAPAPANAAUsnout@@AAU_transform@@@Z 00472c1f f ele_math.obj
 0001:00071c52       ?torus_by_edge@@YAPAPAPANHPAPAPAN0@Z 00472c52 f ele_math.obj
 0001:00074182       ?make_ctorus_by_edge@@YAHHPAPAPAN0AAUCirTorus@@AAU_transform@@@Z 00475182 f ele_math.obj
 0001:000744a0       ?cone_by_edge@@YAPAPAPANHPAHPAPAPAPANPAPAPAN@Z 004754a0 f ele_math.obj
 0001:0007591e       ?make_cone_by_lines@@YAHHPAHPAPAPAPANPAPAPAN22AAUCone@@AAU_transform@@@Z 0047691e f ele_math.obj
 0001:00075e80       ?multipl@@YAPAPAPANHPAH0PAPAPAPANPAPAPAN@Z 00476e80 f ele_math.obj
 0001:0007719d       ?MakeLineBy2DLines@@YAHPAH0PAPAPAPANPAPAPAN22AAULine2p@@@Z 0047819d f ele_math.obj
 0001:00077476       ?make_box_by_perp_lines@@YAHPAH0PAPAPAPANPAPAPAN22AAUBox@@AAU_transform@@@Z 00478476 f ele_math.obj
 0001:000788e2       ?make_box_by_lines@@YAHPAH0PAPAPAPANPAPAPAN22AAUBox@@AAU_transform@@@Z 004798e2 f ele_math.obj
 0001:0007975a       ?make_cyl_by_endpnts@@YAXNPAN0AAUCylinder@@AAU_transform@@@Z 0047a75a f ele_math.obj
 0001:00079b59       ?make_cyl_by_lines@@YAHHPAHPAPAPAPANPAPAPAN222AAUCylinder@@AAU_transform@@@Z 0047ab59 f ele_math.obj
 0001:0007ae78       ?xmake_cyl_by_3dpnts@@YAXHPAPAPAN00AAUCylinder@@AAU_transform@@@Z 0047be78 f ele_math.obj
 0001:0007bb8b       ?ccc@@YAPANHPAPAPAN@Z      0047cb8b f ele_math.obj
 0001:0007c76f       ?cccp@@YAPANHPAPAPANPAN@Z  0047d76f f ele_math.obj
 0001:0007d6df       ?make_cyl_by_3dpnts@@YAHHPAPAPAN00AAUCylinder@@AAU_transform@@@Z 0047e6df f ele_math.obj
 0001:0007d8a1       ?get_plane_of_pnts@@YAXHPAPAPANPAN1@Z 0047e8a1 f ele_math.obj
 0001:0007dbe6       ?make_circle_by_3dpnts@@YAHHPAPAPANAANAAU_transform@@@Z 0047ebe6 f ele_math.obj
 0001:0007e540       ??0Ptg3DRtorObj@@QAE@XZ    0047f540 f Ptg3DRtorObj.obj
 0001:0007e5b7       ??1Ptg3DRtorObj@@UAE@XZ    0047f5b7 f Ptg3DRtorObj.obj
 0001:0007e61f       ?initVars@Ptg3DRtorObj@@AAEXXZ 0047f61f f Ptg3DRtorObj.obj
 0001:0007e680       ?getType@Ptg3DRtorObj@@UAEPBDXZ 0047f680 f Ptg3DRtorObj.obj
 0001:0007e6a0       ??_GPtg3DRtorObj@@UAEPAXI@Z 0047f6a0 f Ptg3DRtorObj.obj
 0001:0007e6a0       ??_EPtg3DRtorObj@@UAEPAXI@Z 0047f6a0 f Ptg3DRtorObj.obj
 0001:0007e6e0       ?CreateObject@CGeneralPageDlg@@SGPAVCObject@@XZ 0047f6e0 f generalp.obj
 0001:0007e76b       ?_GetBaseClass@CGeneralPageDlg@@KGPAUCRuntimeClass@@XZ 0047f76b f generalp.obj
 0001:0007e780       ?GetRuntimeClass@CGeneralPageDlg@@UBEPAUCRuntimeClass@@XZ 0047f780 f generalp.obj
 0001:0007e79b       ??0CGeneralPageDlg@@QAE@XZ 0047f79b f generalp.obj
 0001:0007e811       ??1CGeneralPageDlg@@UAE@XZ 0047f811 f generalp.obj
 0001:0007e879       ?DoDataExchange@CGeneralPageDlg@@MAEXPAVCDataExchange@@@Z 0047f879 f generalp.obj
 0001:0007e89d       ?_GetBaseMessageMap@CGeneralPageDlg@@KGPBUAFX_MSGMAP@@XZ 0047f89d f generalp.obj
 0001:0007e8b2       ?GetMessageMap@CGeneralPageDlg@@MBEPBUAFX_MSGMAP@@XZ 0047f8b2 f generalp.obj
 0001:0007e8d0       ??_ECGeneralPageDlg@@UAEPAXI@Z 0047f8d0 f generalp.obj
 0001:0007e8d0       ??_GCGeneralPageDlg@@UAEPAXI@Z 0047f8d0 f generalp.obj
 0001:0007e910       ?CreateObject@CRaimaDatabaseDoc@@SGPAVCObject@@XZ 0047f910 f tritondb.obj
 0001:0007e998       ?_GetBaseClass@CRaimaDatabaseDoc@@KGPAUCRuntimeClass@@XZ 0047f998 f tritondb.obj
 0001:0007e9ad       ?GetRuntimeClass@CRaimaDatabaseDoc@@UBEPAUCRuntimeClass@@XZ 0047f9ad f tritondb.obj
 0001:0007e9c8       ??0CRaimaDatabaseDoc@@IAE@XZ 0047f9c8 f tritondb.obj
 0001:0007ea37       ?OnNewDocument@CRaimaDatabaseDoc@@MAEHXZ 0047fa37 f tritondb.obj
 0001:0007ea69       ??1CRaimaDatabaseDoc@@UAE@XZ 0047fa69 f tritondb.obj
 0001:0007ead1       ?_GetBaseMessageMap@CRaimaDatabaseDoc@@KGPBUAFX_MSGMAP@@XZ 0047fad1 f tritondb.obj
 0001:0007eae6       ?GetMessageMap@CRaimaDatabaseDoc@@MBEPBUAFX_MSGMAP@@XZ 0047fae6 f tritondb.obj
 0001:0007eb01       ?Serialize@CRaimaDatabaseDoc@@UAEXAAVCArchive@@@Z 0047fb01 f tritondb.obj
 0001:0007eb30       ??_GCRaimaDatabaseDoc@@UAEPAXI@Z 0047fb30 f tritondb.obj
 0001:0007eb30       ??_ECRaimaDatabaseDoc@@UAEPAXI@Z 0047fb30 f tritondb.obj
 0001:0007eb70       ??0CCircleByEdge@@QAE@PAVCWnd@@@Z 0047fb70 f CircleByEdge.obj
 0001:0007ebea       ?DoDataExchange@CCircleByEdge@@MAEXPAVCDataExchange@@@Z 0047fbea f CircleByEdge.obj
 0001:0007ec0e       ?_GetBaseMessageMap@CCircleByEdge@@KGPBUAFX_MSGMAP@@XZ 0047fc0e f CircleByEdge.obj
 0001:0007ec23       ?GetMessageMap@CCircleByEdge@@MBEPBUAFX_MSGMAP@@XZ 0047fc23 f CircleByEdge.obj
 0001:0007ec3e       ?OnOK@CCircleByEdge@@MAEXXZ 0047fc3e f CircleByEdge.obj
 0001:0007f5e9       ?OnCancel@CCircleByEdge@@MAEXXZ 004805e9 f CircleByEdge.obj
 0001:0007f607       ?OnInitDialog@CCircleByEdge@@MAEHXZ 00480607 f CircleByEdge.obj
 0001:0007f639       ?PrintMakeCircData@@YAXHPAHPAPAPAPANPAPAPAN@Z 00480639 f CircleByEdge.obj
 0001:0007f890       ??_GCCircleByEdge@@UAEPAXI@Z 00480890 f CircleByEdge.obj
 0001:0007f890       ??_ECCircleByEdge@@UAEPAXI@Z 00480890 f CircleByEdge.obj
 0001:0007f8d0       ??1CCircleByEdge@@UAE@XZ   004808d0 f CircleByEdge.obj
 0001:0007f930       ??0CCoordXformDlg@@QAE@PAVCWnd@@@Z 00480930 f coordxfo.obj
 0001:0007fa85       ?DoDataExchange@CCoordXformDlg@@MAEXPAVCDataExchange@@@Z 00480a85 f coordxfo.obj
 0001:0007fb9e       ?_GetBaseMessageMap@CCoordXformDlg@@KGPBUAFX_MSGMAP@@XZ 00480b9e f coordxfo.obj
 0001:0007fbb3       ?GetMessageMap@CCoordXformDlg@@MBEPBUAFX_MSGMAP@@XZ 00480bb3 f coordxfo.obj
 0001:0007fbce       ?OnOK@CCoordXformDlg@@MAEXXZ 00480bce f coordxfo.obj
 0001:00080112       ?OnMakeIdentity@CCoordXformDlg@@IAEXXZ 00481112 f coordxfo.obj
 0001:000801ee       ?OnImportData@CCoordXformDlg@@IAEXXZ 004811ee f coordxfo.obj
 0001:00080210       ??_GCCoordXformDlg@@UAEPAXI@Z 00481210 f coordxfo.obj
 0001:00080210       ??_ECCoordXformDlg@@UAEPAXI@Z 00481210 f coordxfo.obj
 0001:00080250       ??0CCreateQuickCylinderDlg@@QAE@PAVCWnd@@@Z 00481250 f CreateQuickCylinderDlg.obj
 0001:000802fc       ?DoDataExchange@CCreateQuickCylinderDlg@@MAEXPAVCDataExchange@@@Z 004812fc f CreateQuickCylinderDlg.obj
 0001:00080335       ?_GetBaseMessageMap@CCreateQuickCylinderDlg@@KGPBUAFX_MSGMAP@@XZ 00481335 f CreateQuickCylinderDlg.obj
 0001:0008034a       ?GetMessageMap@CCreateQuickCylinderDlg@@MBEPBUAFX_MSGMAP@@XZ 0048134a f CreateQuickCylinderDlg.obj
 0001:00080365       ?OnCancel@CCreateQuickCylinderDlg@@MAEXXZ 00481365 f CreateQuickCylinderDlg.obj
 0001:00080383       ?OnCalculate@CCreateQuickCylinderDlg@@IAEXXZ 00481383 f CreateQuickCylinderDlg.obj
 0001:00080b06       ?OnAcceptPoint@CCreateQuickCylinderDlg@@IAEXXZ 00481b06 f CreateQuickCylinderDlg.obj
 0001:00080d1f       ?OnInitDialog@CCreateQuickCylinderDlg@@MAEHXZ 00481d1f f CreateQuickCylinderDlg.obj
 0001:00080d50       ??_GCCreateQuickCylinderDlg@@UAEPAXI@Z 00481d50 f CreateQuickCylinderDlg.obj
 0001:00080d50       ??_ECCreateQuickCylinderDlg@@UAEPAXI@Z 00481d50 f CreateQuickCylinderDlg.obj
 0001:00080d90       ??1CCreateQuickCylinderDlg@@UAE@XZ 00481d90 f CreateQuickCylinderDlg.obj
 0001:00080df0       ??0CCreateCylinderByEndpointsDlg@@QAE@PAVCWnd@@@Z 00481df0 f CreateCylinderByEndpointsDlg.obj
 0001:00080e6a       ?DoDataExchange@CCreateCylinderByEndpointsDlg@@MAEXPAVCDataExchange@@@Z 00481e6a f CreateCylinderByEndpointsDlg.obj
 0001:00080e8e       ?_GetBaseMessageMap@CCreateCylinderByEndpointsDlg@@KGPBUAFX_MSGMAP@@XZ 00481e8e f CreateCylinderByEndpointsDlg.obj
 0001:00080ea3       ?GetMessageMap@CCreateCylinderByEndpointsDlg@@MBEPBUAFX_MSGMAP@@XZ 00481ea3 f CreateCylinderByEndpointsDlg.obj
 0001:00080ec0       ??_ECCreateCylinderByEndpointsDlg@@UAEPAXI@Z 00481ec0 f CreateCylinderByEndpointsDlg.obj
 0001:00080ec0       ??_GCCreateCylinderByEndpointsDlg@@UAEPAXI@Z 00481ec0 f CreateCylinderByEndpointsDlg.obj
 0001:00080f00       ??1CCreateCylinderByEndpointsDlg@@UAE@XZ 00481f00 f CreateCylinderByEndpointsDlg.obj
 0001:00080f60       ??0Ptg3DLineObj@@QAE@XZ    00481f60 f Ptg3DLineObj.obj
 0001:00080fd7       ??1Ptg3DLineObj@@UAE@XZ    00481fd7 f Ptg3DLineObj.obj
 0001:00081065       ?initVars@Ptg3DLineObj@@AAEXXZ 00482065 f Ptg3DLineObj.obj
 0001:000810b0       ?setLength@Ptg3DLineObj@@QAEXN@Z 004820b0 f Ptg3DLineObj.obj
 0001:000810d7       ?setOrigin@Ptg3DLineObj@@QAEXNNN@Z 004820d7 f Ptg3DLineObj.obj
 0001:00081125       ?setDirection@Ptg3DLineObj@@QAEXNNN@Z 00482125 f Ptg3DLineObj.obj
 0001:0008118e       ?setEndPoint@Ptg3DLineObj@@QAEXNNN@Z 0048218e f Ptg3DLineObj.obj
 0001:00081230       ?getType@Ptg3DLineObj@@UAEPBDXZ 00482230 f Ptg3DLineObj.obj
 0001:00081250       ??_EPtg3DLineObj@@UAEPAXI@Z 00482250 f Ptg3DLineObj.obj
 0001:00081250       ??_GPtg3DLineObj@@UAEPAXI@Z 00482250 f Ptg3DLineObj.obj
 0001:00081290       ?ElementListRightClick@@YAHPAU_func_table@@PAU_TREEITEM@@AAVCWnd@@AAVCPoint@@H@Z 00482290 f treemenu.obj
 0001:00081430       ?GetMenuStringA@CMenu@@QBEHIPADHI@Z 00482430 f treemenu.obj
 0001:00081470       ?GetSubMenu@CMenu@@QBEPAV1@H@Z 00482470 f treemenu.obj
 0001:000814a0       ?ModifyMenuA@CMenu@@QAEHIIIPBD@Z 004824a0 f treemenu.obj
 0001:000814e0       ?LoadMenuA@CMenu@@QAEHI@Z  004824e0 f treemenu.obj
 0001:00081530       ?GetColumn@CDTCurCell@@QAEJXZ 00482530 f dtcurcell.obj
 0001:00081559       ?SetColumn@CDTCurCell@@QAEXJ@Z 00482559 f dtcurcell.obj
 0001:00081585       ?GetRow@CDTCurCell@@QAEJXZ 00482585 f dtcurcell.obj
 0001:000815ae       ?SetRow@CDTCurCell@@QAEXJ@Z 004825ae f dtcurcell.obj
 0001:000815da       ?GetPane@CDTCurCell@@QAEJXZ 004825da f dtcurcell.obj
 0001:00081603       ?SetPane@CDTCurCell@@QAEXJ@Z 00482603 f dtcurcell.obj
 0001:0008162f       ?GetFont@CDTCurCell@@QAE?AVCOleFont@@XZ 0048262f f dtcurcell.obj
 0001:000816ad       ?SetFont@CDTCurCell@@QAEXPAUIDispatch@@@Z 004826ad f dtcurcell.obj
 0001:000816d9       ?GetEditValue@CDTCurCell@@QAE?AUtagVARIANT@@XZ 004826d9 f dtcurcell.obj
 0001:00081720       ?SetEditValue@CDTCurCell@@QAEXABUtagVARIANT@@@Z 00482720 f dtcurcell.obj
 0001:0008174c       ?GetBackColor@CDTCurCell@@QAEKXZ 0048274c f dtcurcell.obj
 0001:00081775       ?SetBackColor@CDTCurCell@@QAEXK@Z 00482775 f dtcurcell.obj
 0001:000817a1       ?GetForeColor@CDTCurCell@@QAEKXZ 004827a1 f dtcurcell.obj
 0001:000817ca       ?SetForeColor@CDTCurCell@@QAEXK@Z 004827ca f dtcurcell.obj
 0001:000817f6       ?GetSelBackColor@CDTCurCell@@QAEKXZ 004827f6 f dtcurcell.obj
 0001:0008181f       ?SetSelBackColor@CDTCurCell@@QAEXK@Z 0048281f f dtcurcell.obj
 0001:0008184b       ?GetSelForeColor@CDTCurCell@@QAEKXZ 0048284b f dtcurcell.obj
 0001:00081874       ?SetSelForeColor@CDTCurCell@@QAEXK@Z 00482874 f dtcurcell.obj
 0001:000818a0       ?GetFocusPenColor@CDTCurCell@@QAEKXZ 004828a0 f dtcurcell.obj
 0001:000818c9       ?SetFocusPenColor@CDTCurCell@@QAEXK@Z 004828c9 f dtcurcell.obj
 0001:000818f5       ?GetFocusPenWidth@CDTCurCell@@QAEFXZ 004828f5 f dtcurcell.obj
 0001:0008191f       ?SetFocusPenWidth@CDTCurCell@@QAEXF@Z 0048291f f dtcurcell.obj
 0001:0008194c       ?GetFocusPenStyle@CDTCurCell@@QAEFXZ 0048294c f dtcurcell.obj
 0001:00081976       ?SetFocusPenStyle@CDTCurCell@@QAEXF@Z 00482976 f dtcurcell.obj
 0001:000819a3       ?GetKeyForAbortEdit@CDTCurCell@@QAEFXZ 004829a3 f dtcurcell.obj
 0001:000819cd       ?SetKeyForAbortEdit@CDTCurCell@@QAEXF@Z 004829cd f dtcurcell.obj
 0001:000819fa       ?GetKeyForBeginEdit@CDTCurCell@@QAEFXZ 004829fa f dtcurcell.obj
 0001:00081a24       ?SetKeyForBeginEdit@CDTCurCell@@QAEXF@Z 00482a24 f dtcurcell.obj
 0001:00081a51       ?GetKeyForEndEdit@CDTCurCell@@QAEFXZ 00482a51 f dtcurcell.obj
 0001:00081a7b       ?SetKeyForEndEdit@CDTCurCell@@QAEXF@Z 00482a7b f dtcurcell.obj
 0001:00081aa8       ?GetEndEditTab@CDTCurCell@@QAEHXZ 00482aa8 f dtcurcell.obj
 0001:00081ad1       ?SetEndEditTab@CDTCurCell@@QAEXH@Z 00482ad1 f dtcurcell.obj
 0001:00081afd       ?GetEndEditCtrlTab@CDTCurCell@@QAEHXZ 00482afd f dtcurcell.obj
 0001:00081b26       ?SetEndEditCtrlTab@CDTCurCell@@QAEXH@Z 00482b26 f dtcurcell.obj
 0001:00081b52       ?GetEndEditLfRtArrows@CDTCurCell@@QAEHXZ 00482b52 f dtcurcell.obj
 0001:00081b7b       ?SetEndEditLfRtArrows@CDTCurCell@@QAEXH@Z 00482b7b f dtcurcell.obj
 0001:00081ba7       ?GetEndEditUpDnArrows@CDTCurCell@@QAEHXZ 00482ba7 f dtcurcell.obj
 0001:00081bd0       ?SetEndEditUpDnArrows@CDTCurCell@@QAEXH@Z 00482bd0 f dtcurcell.obj
 0001:00081bfc       ?GetEndEditClick@CDTCurCell@@QAEHXZ 00482bfc f dtcurcell.obj
 0001:00081c25       ?SetEndEditClick@CDTCurCell@@QAEXH@Z 00482c25 f dtcurcell.obj
 0001:00081c51       ?GetValue@CDTCurCell@@QAE?AUtagVARIANT@@XZ 00482c51 f dtcurcell.obj
 0001:00081c98       ?SetValue@CDTCurCell@@QAEXABUtagVARIANT@@@Z 00482c98 f dtcurcell.obj
 0001:00081cc4       ?GetAllowCellEdit@CDTCurCell@@QAEHXZ 00482cc4 f dtcurcell.obj
 0001:00081ced       ?SetAllowCellEdit@CDTCurCell@@QAEXH@Z 00482ced f dtcurcell.obj
 0001:00081d19       ?GetTabToNextCell@CDTCurCell@@QAEHXZ 00482d19 f dtcurcell.obj
 0001:00081d42       ?SetTabToNextCell@CDTCurCell@@QAEXH@Z 00482d42 f dtcurcell.obj
 0001:00081d6e       ?GetMoveColMajor@CDTCurCell@@QAEHXZ 00482d6e f dtcurcell.obj
 0001:00081d97       ?SetMoveColMajor@CDTCurCell@@QAEXH@Z 00482d97 f dtcurcell.obj
 0001:00081dc3       ?GetHWndListBox@CDTCurCell@@QAEJXZ 00482dc3 f dtcurcell.obj
 0001:00081dec       ?SetHWndListBox@CDTCurCell@@QAEXJ@Z 00482dec f dtcurcell.obj
 0001:00081e18       ?GetHWndEditBox@CDTCurCell@@QAEJXZ 00482e18 f dtcurcell.obj
 0001:00081e41       ?SetHWndEditBox@CDTCurCell@@QAEXJ@Z 00482e41 f dtcurcell.obj
 0001:00081e6d       ?GetSelStart@CDTCurCell@@QAEJXZ 00482e6d f dtcurcell.obj
 0001:00081e96       ?SetSelStart@CDTCurCell@@QAEXJ@Z 00482e96 f dtcurcell.obj
 0001:00081ec2       ?GetSelLength@CDTCurCell@@QAEJXZ 00482ec2 f dtcurcell.obj
 0001:00081eeb       ?SetSelLength@CDTCurCell@@QAEXJ@Z 00482eeb f dtcurcell.obj
 0001:00081f17       ?MoveToNext@CDTCurCell@@QAEXXZ 00482f17 f dtcurcell.obj
 0001:00081f43       ?MoveToPrev@CDTCurCell@@QAEXXZ 00482f43 f dtcurcell.obj
 0001:00081f6f       ?BeginEdit@CDTCurCell@@QAEXXZ 00482f6f f dtcurcell.obj
 0001:00081f9b       ?EndEdit@CDTCurCell@@QAEXXZ 00482f9b f dtcurcell.obj
 0001:00081fc7       ?AbortEdit@CDTCurCell@@QAEXXZ 00482fc7 f dtcurcell.obj
 0001:00082000       ?draw@PtgTransMatrix@@QAEXXZ 00483000 f PtgTransMatrixOGL.obj
 0001:00082170       ??0CTransformDlg@@QAE@PAVCWnd@@@Z 00483170 f transfor.obj
 0001:00082307       ?DoDataExchange@CTransformDlg@@MAEXPAVCDataExchange@@@Z 00483307 f transfor.obj
 0001:00082437       ?_GetBaseMessageMap@CTransformDlg@@KGPBUAFX_MSGMAP@@XZ 00483437 f transfor.obj
 0001:0008244c       ?GetMessageMap@CTransformDlg@@MBEPBUAFX_MSGMAP@@XZ 0048344c f transfor.obj
 0001:00082467       ?OnInitDialog@CTransformDlg@@MAEHXZ 00483467 f transfor.obj
 0001:00082593       ?OnOK@CTransformDlg@@MAEXXZ 00483593 f transfor.obj
 0001:000826ba       ?setProjectID@CTransformDlg@@QAEXPBD@Z 004836ba f transfor.obj
 0001:000826f0       ??_GCTransformDlg@@UAEPAXI@Z 004836f0 f transfor.obj
 0001:000826f0       ??_ECTransformDlg@@UAEPAXI@Z 004836f0 f transfor.obj
 0001:00082730       ?CreateObject@Maintenance@@SGPAVCObject@@XZ 00483730 f maintena.obj
 0001:000827bb       ?_GetBaseClass@Maintenance@@KGPAUCRuntimeClass@@XZ 004837bb f maintena.obj
 0001:000827d0       ?GetRuntimeClass@Maintenance@@UBEPAUCRuntimeClass@@XZ 004837d0 f maintena.obj
 0001:000827eb       ??0Maintenance@@QAE@XZ     004837eb f maintena.obj
 0001:00082a48       ??1Maintenance@@UAE@XZ     00483a48 f maintena.obj
 0001:00082b19       ?DoDataExchange@Maintenance@@MAEXPAVCDataExchange@@@Z 00483b19 f maintena.obj
 0001:00082b6b       ?_GetBaseMessageMap@Maintenance@@KGPBUAFX_MSGMAP@@XZ 00483b6b f maintena.obj
 0001:00082b80       ?GetMessageMap@Maintenance@@MBEPBUAFX_MSGMAP@@XZ 00483b80 f maintena.obj
 0001:00082b9b       ?OnInitDialog@Maintenance@@MAEHXZ 00483b9b f maintena.obj
 0001:00082cf8       ?OnRadiographyData@Maintenance@@IAEXXZ 00483cf8 f maintena.obj
 0001:00082d70       ??_EMaintenance@@UAEPAXI@Z 00483d70 f maintena.obj
 0001:00082d70       ??_GMaintenance@@UAEPAXI@Z 00483d70 f maintena.obj
 0001:00082db0       ?SetTabStops@CListBox@@QAEHHPAH@Z 00483db0 f maintena.obj
 0001:00082df0       ??1CRadiographyData@@UAE@XZ 00483df0 f maintena.obj
 0001:00082e90       ?cyliErrorCB@@YGXI@Z       00483e90 f Ptg3DCtorObjOGL.obj
 0001:00082ec8       ?drawCircTorus@@YAXMMMM@Z  00483ec8 f Ptg3DCtorObjOGL.obj
 0001:000833db       ?drawWireframe@Ptg3DCtorObj@@MAEXXZ 004843db f Ptg3DCtorObjOGL.obj
 0001:0008346c       ?drawSolid@Ptg3DCtorObj@@MAEXXZ 0048446c f Ptg3DCtorObjOGL.obj
 0001:00083500       ??0Ptg3DPyramidObj@@QAE@XZ 00484500 f Ptg3DPyramidObj.obj
 0001:00083577       ??1Ptg3DPyramidObj@@UAE@XZ 00484577 f Ptg3DPyramidObj.obj
 0001:000835df       ?initVars@Ptg3DPyramidObj@@AAEXXZ 004845df f Ptg3DPyramidObj.obj
 0001:0008366f       ?setHeight@Ptg3DPyramidObj@@QAEXN@Z 0048466f f Ptg3DPyramidObj.obj
 0001:00083696       ?setBaseDims@Ptg3DPyramidObj@@QAEXNN@Z 00484696 f Ptg3DPyramidObj.obj
 0001:000836cc       ?setTopDims@Ptg3DPyramidObj@@QAEXNN@Z 004846cc f Ptg3DPyramidObj.obj
 0001:00083702       ?setOffsets@Ptg3DPyramidObj@@QAEXNN@Z 00484702 f Ptg3DPyramidObj.obj
 0001:00083740       ?getType@Ptg3DPyramidObj@@UAEPBDXZ 00484740 f Ptg3DPyramidObj.obj
 0001:00083760       ??_EPtg3DPyramidObj@@UAEPAXI@Z 00484760 f Ptg3DPyramidObj.obj
 0001:00083760       ??_GPtg3DPyramidObj@@UAEPAXI@Z 00484760 f Ptg3DPyramidObj.obj
 0001:000837a0       ?GetCount@CDTRowSet@@QAEJXZ 004847a0 f dtrowset.obj
 0001:000837c9       ?SetCount@CDTRowSet@@QAEXJ@Z 004847c9 f dtrowset.obj
 0001:000837f5       ?GetAllowResize@CDTRowSet@@QAEHXZ 004847f5 f dtrowset.obj
 0001:0008381e       ?SetAllowResize@CDTRowSet@@QAEXH@Z 0048481e f dtrowset.obj
 0001:0008384a       ?GetSelectType@CDTRowSet@@QAEJXZ 0048484a f dtrowset.obj
 0001:00083873       ?SetSelectType@CDTRowSet@@QAEXJ@Z 00484873 f dtrowset.obj
 0001:0008389f       ?GetVertAlign@CDTRowSet@@QAEJXZ 0048489f f dtrowset.obj
 0001:000838c8       ?SetVertAlign@CDTRowSet@@QAEXJ@Z 004848c8 f dtrowset.obj
 0001:000838f4       ?GetHeadingType@CDTRowSet@@QAEFXZ 004848f4 f dtrowset.obj
 0001:0008391e       ?SetHeadingType@CDTRowSet@@QAEXF@Z 0048491e f dtrowset.obj
 0001:0008394b       ?GetHeight@CDTRowSet@@QAEMXZ 0048494b f dtrowset.obj
 0001:00083974       ?SetHeight@CDTRowSet@@QAEXM@Z 00484974 f dtrowset.obj
 0001:000839a5       ?GetTrapDeleteKey@CDTRowSet@@QAEHXZ 004849a5 f dtrowset.obj
 0001:000839ce       ?SetTrapDeleteKey@CDTRowSet@@QAEXH@Z 004849ce f dtrowset.obj
 0001:000839fa       ?GetTrapInsertKey@CDTRowSet@@QAEHXZ 004849fa f dtrowset.obj
 0001:00083a23       ?SetTrapInsertKey@CDTRowSet@@QAEXH@Z 00484a23 f dtrowset.obj
 0001:00083a4f       ?GetAllowAutoRowInsert@CDTRowSet@@QAEHXZ 00484a4f f dtrowset.obj
 0001:00083a78       ?SetAllowAutoRowInsert@CDTRowSet@@QAEXH@Z 00484a78 f dtrowset.obj
 0001:00083aa4       ?Copy@CDTRowSet@@QAEXJJ@Z  00484aa4 f dtrowset.obj
 0001:00083add       ?Move@CDTRowSet@@QAEXJJ@Z  00484add f dtrowset.obj
 0001:00083b16       ?Remove@CDTRowSet@@QAEXJ@Z 00484b16 f dtrowset.obj
 0001:00083b4b       ?GetSelectCount@CDTRowSet@@QAEJXZ 00484b4b f dtrowset.obj
 0001:00083b7c       ?SelectRange@CDTRowSet@@QAEXJJH@Z 00484b7c f dtrowset.obj
 0001:00083bb9       ?GetVisCount@CDTRowSet@@QAEJJ@Z 00484bb9 f dtrowset.obj
 0001:00083bf3       ?GetFirstVisible@CDTRowSet@@QAEJJ@Z 00484bf3 f dtrowset.obj
 0001:00083c2d       ?SetFirstVisible@CDTRowSet@@QAEXJJ@Z 00484c2d f dtrowset.obj
 0001:00083c66       ?Reset@CDTRowSet@@QAEXXZ   00484c66 f dtrowset.obj
 0001:00083c92       ?Add@CDTRowSet@@QAEJJABUtagVARIANT@@@Z 00484c92 f dtrowset.obj
 0001:00083cd0       ?GetItem@CDTRowSet@@QAE?AVCDTRow@@J@Z 00484cd0 f dtrowset.obj
 0001:00083d5d       ?SetItem@CDTRowSet@@QAEXJPAUIDispatch@@@Z 00484d5d f dtrowset.obj
 0001:00083d96       ?Get_Item@CDTRowSet@@QAE?AVCDTRow@@J@Z 00484d96 f dtrowset.obj
 0001:00083e23       ?Set_Item@CDTRowSet@@QAEXJPAUIDispatch@@@Z 00484e23 f dtrowset.obj
 0001:00083e5c       ?GetSelect@CDTRowSet@@QAEJJ@Z 00484e5c f dtrowset.obj
 0001:00083ea0       ??0CDTRow@@QAE@PAUIDispatch@@@Z 00484ea0 f dtrowset.obj
 0001:00083f10       ?importSurveyData@@YAHPADPAVPtg3DNode@@@Z 00484f10 f importSurveyData.obj
 0001:00084170       ??0CSelectEqImageDlg@@QAE@PAVCWnd@@@Z 00485170 f selecteq.obj
 0001:0008434e       ?DoDataExchange@CSelectEqImageDlg@@MAEXPAVCDataExchange@@@Z 0048534e f selecteq.obj
 0001:0008439b       ?_GetBaseMessageMap@CSelectEqImageDlg@@KGPBUAFX_MSGMAP@@XZ 0048539b f selecteq.obj
 0001:000843b0       ?GetMessageMap@CSelectEqImageDlg@@MBEPBUAFX_MSGMAP@@XZ 004853b0 f selecteq.obj
 0001:000843cb       ?OnInitDialog@CSelectEqImageDlg@@MAEHXZ 004853cb f selecteq.obj
 0001:000847d3       ?OnDblclkEqList@CSelectEqImageDlg@@IAEXPAUtagNMHDR@@PAJ@Z 004857d3 f selecteq.obj
 0001:00084918       ?OnRdblclkEqList@CSelectEqImageDlg@@IAEXPAUtagNMHDR@@PAJ@Z 00485918 f selecteq.obj
 0001:00084930       ?OnSelchangedEqList@CSelectEqImageDlg@@IAEXPAUtagNMHDR@@PAJ@Z 00485930 f selecteq.obj
 0001:00084957       ?DestroyWindow@CSelectEqImageDlg@@UAEHXZ 00485957 f selecteq.obj
 0001:00084a6a       ?OnUnlink@CSelectEqImageDlg@@IAEXXZ 00485a6a f selecteq.obj
 0001:00084e0a       ?OnOK@CSelectEqImageDlg@@MAEXXZ 00485e0a f selecteq.obj
 0001:00084e28       ?OnOpenImage@CSelectEqImageDlg@@IAEXXZ 00485e28 f selecteq.obj
 0001:00084f84       ?OnEndlabeleditEqList@CSelectEqImageDlg@@IAEXPAUtagNMHDR@@PAJ@Z 00485f84 f selecteq.obj
 0001:000850e4       ?OpenImageByDba@CSelectEqImageDlg@@QAEXK@Z 004860e4 f selecteq.obj
 0001:00085171       ?OnEquipTagData@CSelectEqImageDlg@@IAEXXZ 00486171 f selecteq.obj
 0001:0008552c       ?OnBeginlabeleditEqList@CSelectEqImageDlg@@IAEXPAUtagNMHDR@@PAJ@Z 0048652c f selecteq.obj
 0001:00085570       ??_ECSelectEqImageDlg@@UAEPAXI@Z 00486570 f selecteq.obj
 0001:00085570       ??_GCSelectEqImageDlg@@UAEPAXI@Z 00486570 f selecteq.obj
 0001:000855b0       ?GetButtonStyle@CButton@@QBEIXZ 004865b0 f selecteq.obj
 0001:000855e0       ?SetButtonStyle@CButton@@QAEXIH@Z 004865e0 f selecteq.obj
 0001:00085620       ?SetItemText@CTreeCtrl@@QAEHPAU_TREEITEM@@PBD@Z 00486620 f selecteq.obj
 0001:00085660       ?SetActiveWindow@CWnd@@QAEPAV1@XZ 00486660 f selecteq.obj
 0001:00085690       ?drawWireframe@Ptg3DLineObj@@MAEXXZ 00486690 f Ptg3DLineObjOGL.obj
 0001:00085744       ?drawSolid@Ptg3DLineObj@@MAEXXZ 00486744 f Ptg3DLineObjOGL.obj
 0001:00085770       ??0CRadiographyData@@QAE@PAVCWnd@@@Z 00486770 f RadiographyData.obj
 0001:00085840       ?DoDataExchange@CRadiographyData@@MAEXPAVCDataExchange@@@Z 00486840 f RadiographyData.obj
 0001:0008588e       ?_GetBaseMessageMap@CRadiographyData@@KGPBUAFX_MSGMAP@@XZ 0048688e f RadiographyData.obj
 0001:000858a3       ?GetMessageMap@CRadiographyData@@MBEPBUAFX_MSGMAP@@XZ 004868a3 f RadiographyData.obj
 0001:000858be       ?OnBrowseApp@CRadiographyData@@IAEXXZ 004868be f RadiographyData.obj
 0001:00085999       ?OnBrowseDatafile@CRadiographyData@@IAEXXZ 00486999 f RadiographyData.obj
 0001:00085a74       ?OnOK@CRadiographyData@@MAEXXZ 00486a74 f RadiographyData.obj
 0001:00085a92       ?OnCancel@CRadiographyData@@MAEXXZ 00486a92 f RadiographyData.obj
 0001:00085ab0       ?OnViewfile@CRadiographyData@@IAEXXZ 00486ab0 f RadiographyData.obj
 0001:00085b90       ??_GCRadiographyData@@UAEPAXI@Z 00486b90 f RadiographyData.obj
 0001:00085b90       ??_ECRadiographyData@@UAEPAXI@Z 00486b90 f RadiographyData.obj
 0001:00085bd0       ??0CBrowserDlg@@QAE@HPBD0K0PAVCWnd@@@Z 00486bd0 f RadiographyData.obj
 0001:00085c60       ?OnInitDialog@CBrowserDlg@@UAEHXZ 00486c60 f RadiographyData.obj
 0001:00085c90       ??_ECBrowserDlg@@UAEPAXI@Z 00486c90 f RadiographyData.obj
 0001:00085c90       ??_GCBrowserDlg@@UAEPAXI@Z 00486c90 f RadiographyData.obj
 0001:00085cd0       ??1CBrowserDlg@@UAE@XZ     00486cd0 f RadiographyData.obj
 0001:00085d30       ??0CSplashWnd@@IAE@XZ      00486d30 f Splash.obj
 0001:00085dba       ??1CSplashWnd@@UAE@XZ      00486dba f Splash.obj
 0001:00085e45       ?_GetBaseMessageMap@CSplashWnd@@KGPBUAFX_MSGMAP@@XZ 00486e45 f Splash.obj
 0001:00085e5a       ?GetMessageMap@CSplashWnd@@MBEPBUAFX_MSGMAP@@XZ 00486e5a f Splash.obj
 0001:00085e75       ?EnableSplashScreen@CSplashWnd@@SAXH@Z 00486e75 f Splash.obj
 0001:00085e8d       ?ShowSplashScreen@CSplashWnd@@SAXPAVCWnd@@@Z 00486e8d f Splash.obj
 0001:00085f83       ?PreTranslateAppMessage@CSplashWnd@@SAXPAUtagMSG@@@Z 00486f83 f Splash.obj
 0001:00086030       ?Create@CSplashWnd@@IAEHPAVCWnd@@@Z 00487030 f Splash.obj
 0001:000860cc       ?HideSplashScreen@CSplashWnd@@IAEXXZ 004870cc f Splash.obj
 0001:000860f9       ?PostNcDestroy@CSplashWnd@@UAEXXZ 004870f9 f Splash.obj
 0001:00086137       ?OnCreate@CSplashWnd@@IAEHPAUtagCREATESTRUCTA@@@Z 00487137 f Splash.obj
 0001:0008618b       ?OnPaint@CSplashWnd@@IAEXXZ 0048718b f Splash.obj
 0001:000862ac       ?OnTimer@CSplashWnd@@IAEXI@Z 004872ac f Splash.obj
 0001:000862d0       ??_ECSplashWnd@@UAEPAXI@Z  004872d0 f Splash.obj
 0001:000862d0       ??_GCSplashWnd@@UAEPAXI@Z  004872d0 f Splash.obj
 0001:00086310       ?GetBitmap@CBitmap@@QAEHPAUtagBITMAP@@@Z 00487310 f Splash.obj
 0001:00086340       ?LoadStandardCursor@CWinApp@@QBEPAUHICON__@@PBD@Z 00487340 f Splash.obj
 0001:00086370       ?AfxGetMainWnd@@YGPAVCWnd@@XZ 00487370 f Splash.obj
 0001:000863b0       ?OnCreate@CWnd@@IAEHPAUtagCREATESTRUCTA@@@Z 004873b0 f Splash.obj
 0001:000863d0       ?BitBlt@CDC@@QAEHHHHHPAV1@HHK@Z 004873d0 f Splash.obj
 0001:00086420       ??0Ptg3DCalcPointObj@@QAE@XZ 00487420 f Ptg3DCalcPointObj.obj
 0001:00086497       ??1Ptg3DCalcPointObj@@UAE@XZ 00487497 f Ptg3DCalcPointObj.obj
 0001:00086512       ?initVars@Ptg3DCalcPointObj@@QAEXXZ 00487512 f Ptg3DCalcPointObj.obj
 0001:0008654b       ?setStdDev@Ptg3DCalcPointObj@@QAEXNNN@Z 0048754b f Ptg3DCalcPointObj.obj
 0001:00086599       ?setRayMiss@Ptg3DCalcPointObj@@QAEXN@Z 00487599 f Ptg3DCalcPointObj.obj
 0001:000865c0       ?getType@Ptg3DCalcPointObj@@UAEPBDXZ 004875c0 f Ptg3DCalcPointObj.obj
 0001:000865e0       ??_GPtg3DCalcPointObj@@UAEPAXI@Z 004875e0 f Ptg3DCalcPointObj.obj
 0001:000865e0       ??_EPtg3DCalcPointObj@@UAEPAXI@Z 004875e0 f Ptg3DCalcPointObj.obj
 0001:00086620       ??0Ptg3DFacetVertexObj@@QAE@XZ 00487620 f Ptg3DFacetObj.obj
 0001:0008664a       ??0Ptg3DFacetVertexObj@@QAE@AAV0@@Z 0048764a f Ptg3DFacetObj.obj
 0001:000866da       ??1Ptg3DFacetVertexObj@@UAE@XZ 004876da f Ptg3DFacetObj.obj
 0001:0008674d       ?setVertex@Ptg3DFacetVertexObj@@QAEXNNN@Z 0048774d f Ptg3DFacetObj.obj
 0001:0008679b       ?setNormal@Ptg3DFacetVertexObj@@QAEXNNN@Z 0048779b f Ptg3DFacetObj.obj
 0001:000867e9       ?initVars@Ptg3DFacetVertexObj@@AAEXXZ 004877e9 f Ptg3DFacetObj.obj
 0001:0008684e       ?getVertex@Ptg3DFacetVertexObj@@QAEPANXZ 0048784e f Ptg3DFacetObj.obj
 0001:00086894       ?getNormal@Ptg3DFacetVertexObj@@QAEPANXZ 00487894 f Ptg3DFacetObj.obj
 0001:000868da       ??0Ptg3DFacetObj@@QAE@XZ   004878da f Ptg3DFacetObj.obj
 0001:0008696e       ??1Ptg3DFacetObj@@UAE@XZ   0048796e f Ptg3DFacetObj.obj
 0001:00086a36       ?initVars@Ptg3DFacetObj@@AAEXXZ 00487a36 f Ptg3DFacetObj.obj
 0001:00086a4c       ?addVertex@Ptg3DFacetObj@@QAEXAAVPtg3DFacetVertexObj@@@Z 00487a4c f Ptg3DFacetObj.obj
 0001:00086af0       ??_EPtg3DFacetVertexObj@@UAEPAXI@Z 00487af0 f Ptg3DFacetObj.obj
 0001:00086af0       ??_GPtg3DFacetVertexObj@@UAEPAXI@Z 00487af0 f Ptg3DFacetObj.obj
 0001:00086b30       ?getType@Ptg3DFacetObj@@UAEPBDXZ 00487b30 f Ptg3DFacetObj.obj
 0001:00086b50       ??_GPtg3DFacetObj@@UAEPAXI@Z 00487b50 f Ptg3DFacetObj.obj
 0001:00086b50       ??_EPtg3DFacetObj@@UAEPAXI@Z 00487b50 f Ptg3DFacetObj.obj
 0001:00086b90       ??0?$CList@PAVPtg3DFacetVertexObj@@PAV1@@@QAE@H@Z 00487b90 f Ptg3DFacetObj.obj
 0001:00086c40       ?GetCount@?$CList@PAVPtg3DFacetVertexObj@@PAV1@@@QBEHXZ 00487c40 f Ptg3DFacetObj.obj
 0001:00086c60       ?RemoveTail@?$CList@PAVPtg3DFacetVertexObj@@PAV1@@@QAEPAVPtg3DFacetVertexObj@@XZ 00487c60 f Ptg3DFacetObj.obj
 0001:00086cd0       ?AddTail@?$CList@PAVPtg3DFacetVertexObj@@PAV1@@@QAEPAU__POSITION@@PAVPtg3DFacetVertexObj@@@Z 00487cd0 f Ptg3DFacetObj.obj
 0001:00086d40       ??1?$CList@PAVPtg3DFacetVertexObj@@PAV1@@@UAE@XZ 00487d40 f Ptg3DFacetObj.obj
 0001:00086db0       ?Serialize@?$CList@PAVPtg3DFacetVertexObj@@PAV1@@@UAEXAAVCArchive@@@Z 00487db0 f Ptg3DFacetObj.obj
 0001:00086e70       ??_E?$CList@PAVPtg3DFacetVertexObj@@PAV1@@@UAEPAXI@Z 00487e70 f Ptg3DFacetObj.obj
 0001:00086e70       ??_G?$CList@PAVPtg3DFacetVertexObj@@PAV1@@@UAEPAXI@Z 00487e70 f Ptg3DFacetObj.obj
 0001:00086eb0       ?SerializeElements@@YGXAAVCArchive@@PAPAVPtg3DFacetVertexObj@@H@Z 00487eb0 f Ptg3DFacetObj.obj
 0001:00086f00       ?RemoveAll@?$CList@PAVPtg3DFacetVertexObj@@PAV1@@@QAEXXZ 00487f00 f Ptg3DFacetObj.obj
 0001:00086f90       ?NewNode@?$CList@PAVPtg3DFacetVertexObj@@PAV1@@@IAEPAUCNode@1@PAU21@0@Z 00487f90 f Ptg3DFacetObj.obj
 0001:00087060       ?FreeNode@?$CList@PAVPtg3DFacetVertexObj@@PAV1@@@IAEXPAUCNode@1@@Z 00488060 f Ptg3DFacetObj.obj
 0001:000870c0       ?DestructElements@@YGXPAPAVPtg3DFacetVertexObj@@H@Z 004880c0 f Ptg3DFacetObj.obj
 0001:00087100       ?ConstructElements@@YGXPAPAVPtg3DFacetVertexObj@@H@Z 00488100 f Ptg3DFacetObj.obj
 0001:00087160       ?getSelectedEdge@@YAHPAVEdge_2D@@H@Z 00488160 f elem_help.obj
 0001:00087408       ?getSelectedPoint@@YAHAAVPoint_2D@@PAD@Z 00488408 f elem_help.obj
 0001:00087660       ?setImageName@Point_2D@@QAEXPAD@Z 00488660 f elem_help.obj
 0001:000876c0       ?setPoint@Point_2D@@QAEXPAN@Z 004886c0 f elem_help.obj
 0001:00087740       ?CreateObject@CDatatbl@@SGPAVCObject@@XZ 00488740 f datatbl.obj
 0001:000877c8       ?_GetBaseClass@CDatatbl@@KGPAUCRuntimeClass@@XZ 004887c8 f datatbl.obj
 0001:000877dd       ?GetRuntimeClass@CDatatbl@@UBEPAUCRuntimeClass@@XZ 004887dd f datatbl.obj
 0001:000877f8       ?GetGridLineColor@CDatatbl@@QAEKXZ 004887f8 f datatbl.obj
 0001:00087821       ?SetGridLineColor@CDatatbl@@QAEXK@Z 00488821 f datatbl.obj
 0001:0008784d       ?GetAllowPaintCellEvent@CDatatbl@@QAEHXZ 0048884d f datatbl.obj
 0001:00087876       ?SetAllowPaintCellEvent@CDatatbl@@QAEXH@Z 00488876 f datatbl.obj
 0001:000878a2       ?GetVertGridLines@CDatatbl@@QAEHXZ 004888a2 f datatbl.obj
 0001:000878cb       ?SetVertGridLines@CDatatbl@@QAEXH@Z 004888cb f datatbl.obj
 0001:000878f7       ?GetVertScrollBar@CDatatbl@@QAEJXZ 004888f7 f datatbl.obj
 0001:00087920       ?SetVertScrollBar@CDatatbl@@QAEXJ@Z 00488920 f datatbl.obj
 0001:0008794c       ?GetVertSplitPane@CDatatbl@@QAEHXZ 0048894c f datatbl.obj
 0001:00087975       ?SetVertSplitPane@CDatatbl@@QAEXH@Z 00488975 f datatbl.obj
 0001:000879a1       ?GetHorzSplitPane@CDatatbl@@QAEHXZ 004889a1 f datatbl.obj
 0001:000879ca       ?SetHorzSplitPane@CDatatbl@@QAEXH@Z 004889ca f datatbl.obj
 0001:000879f6       ?GetSelBackColor@CDatatbl@@QAEKXZ 004889f6 f datatbl.obj
 0001:00087a1f       ?SetSelBackColor@CDatatbl@@QAEXK@Z 00488a1f f datatbl.obj
 0001:00087a4b       ?GetHorzScrollBar@CDatatbl@@QAEJXZ 00488a4b f datatbl.obj
 0001:00087a74       ?SetHorzScrollBar@CDatatbl@@QAEXJ@Z 00488a74 f datatbl.obj
 0001:00087aa0       ?GetHorzGridLines@CDatatbl@@QAEHXZ 00488aa0 f datatbl.obj
 0001:00087ac9       ?SetHorzGridLines@CDatatbl@@QAEXH@Z 00488ac9 f datatbl.obj
 0001:00087af5       ?GetSelForeColor@CDatatbl@@QAEKXZ 00488af5 f datatbl.obj
 0001:00087b1e       ?SetSelForeColor@CDatatbl@@QAEXK@Z 00488b1e f datatbl.obj
 0001:00087b4a       ?GetBackColor@CDatatbl@@QAEKXZ 00488b4a f datatbl.obj
 0001:00087b76       ?SetBackColor@CDatatbl@@QAEXK@Z 00488b76 f datatbl.obj
 0001:00087ba5       ?GetEnabled@CDatatbl@@QAEHXZ 00488ba5 f datatbl.obj
 0001:00087bd1       ?SetEnabled@CDatatbl@@QAEXH@Z 00488bd1 f datatbl.obj
 0001:00087c00       ?GetFont@CDatatbl@@QAE?AVCOleFont@@XZ 00488c00 f datatbl.obj
 0001:00087c81       ?SetFont@CDatatbl@@QAEXPAUIDispatch@@@Z 00488c81 f datatbl.obj
 0001:00087cb0       ?GetForeColor@CDatatbl@@QAEKXZ 00488cb0 f datatbl.obj
 0001:00087cdc       ?SetForeColor@CDatatbl@@QAEXK@Z 00488cdc f datatbl.obj
 0001:00087d0b       ?GetHWnd@CDatatbl@@QAEIXZ  00488d0b f datatbl.obj
 0001:00087d37       ?SetHWnd@CDatatbl@@QAEXI@Z 00488d37 f datatbl.obj
 0001:00087d66       ?GetDropDownType@CDatatbl@@QAEJXZ 00488d66 f datatbl.obj
 0001:00087d8f       ?SetDropDownType@CDatatbl@@QAEXJ@Z 00488d8f f datatbl.obj
 0001:00087dbb       ?GetVirtualMemType@CDatatbl@@QAEJXZ 00488dbb f datatbl.obj
 0001:00087de4       ?SetVirtualMemType@CDatatbl@@QAEXJ@Z 00488de4 f datatbl.obj
 0001:00087e10       ?GetDroppedState@CDatatbl@@QAEHXZ 00488e10 f datatbl.obj
 0001:00087e39       ?SetDroppedState@CDatatbl@@QAEXH@Z 00488e39 f datatbl.obj
 0001:00087e65       ?GetCurCell@CDatatbl@@QAE?AVCDTCurCell@@XZ 00488e65 f datatbl.obj
 0001:00087ee3       ?SetCurCell@CDatatbl@@QAEXPAUIDispatch@@@Z 00488ee3 f datatbl.obj
 0001:00087f0f       ?GetRowSet@CDatatbl@@QAE?AVCDTRowSet@@XZ 00488f0f f datatbl.obj
 0001:00087f8d       ?SetRowSet@CDatatbl@@QAEXPAUIDispatch@@@Z 00488f8d f datatbl.obj
 0001:00087fb9       ?GetColumnSet@CDatatbl@@QAE?AVCDTColumnSet@@XZ 00488fb9 f datatbl.obj
 0001:00088037       ?SetColumnSet@CDatatbl@@QAEXPAUIDispatch@@@Z 00489037 f datatbl.obj
 0001:00088063       ?GetCellSet@CDatatbl@@QAE?AVCDTCellSet@@XZ 00489063 f datatbl.obj
 0001:000880e1       ?SetCellSet@CDatatbl@@QAEXPAUIDispatch@@@Z 004890e1 f datatbl.obj
 0001:0008810d       ?GetVMDataKey@CDatatbl@@QAEJXZ 0048910d f datatbl.obj
 0001:00088136       ?SetVMDataKey@CDatatbl@@QAEXJ@Z 00489136 f datatbl.obj
 0001:00088162       ?GetLeftPaneWidth@CDatatbl@@QAEMXZ 00489162 f datatbl.obj
 0001:0008818b       ?SetLeftPaneWidth@CDatatbl@@QAEXM@Z 0048918b f datatbl.obj
 0001:000881bc       ?GetTopPaneHeight@CDatatbl@@QAEMXZ 004891bc f datatbl.obj
 0001:000881e5       ?SetTopPaneHeight@CDatatbl@@QAEXM@Z 004891e5 f datatbl.obj
 0001:00088216       ?GetRedraw@CDatatbl@@QAEHXZ 00489216 f datatbl.obj
 0001:0008823f       ?SetRedraw@CDatatbl@@QAEXH@Z 0048923f f datatbl.obj
 0001:0008826b       ?GetDataSource@CDatatbl@@QAEPAUIUnknown@@XZ 0048926b f datatbl.obj
 0001:00088294       ?SetDataSource@CDatatbl@@QAEXPAUIUnknown@@@Z 00489294 f datatbl.obj
 0001:000882c0       ?GetBorderStyle@CDatatbl@@QAEJXZ 004892c0 f datatbl.obj
 0001:000882e9       ?SetBorderStyle@CDatatbl@@QAEXJ@Z 004892e9 f datatbl.obj
 0001:00088315       ?GetAppearance@CDatatbl@@QAEJXZ 00489315 f datatbl.obj
 0001:0008833e       ?SetAppearance@CDatatbl@@QAEXJ@Z 0048933e f datatbl.obj
 0001:0008836a       ?GetMousePointer@CDatatbl@@QAEJXZ 0048936a f datatbl.obj
 0001:00088393       ?SetMousePointer@CDatatbl@@QAEXJ@Z 00489393 f datatbl.obj
 0001:000883bf       ?GetLargeData@CDatatbl@@QAEHXZ 004893bf f datatbl.obj
 0001:000883e8       ?SetLargeData@CDatatbl@@QAEXH@Z 004893e8 f datatbl.obj
 0001:00088414       ?Reset@CDatatbl@@QAEXXZ    00489414 f datatbl.obj
 0001:00088440       ?VMReady@CDatatbl@@QAEXJ@Z 00489440 f datatbl.obj
 0001:00088475       ?DBAutoConfig@CDatatbl@@QAEXXZ 00489475 f datatbl.obj
 0001:000884a1       ?AboutBox@CDatatbl@@QAEXXZ 004894a1 f datatbl.obj
 0001:000884d0       ??0CDatatbl@@QAE@XZ        004894d0 f datatbl.obj
 0001:00088540       ?Create@CDatatbl@@UAEHPBD0KABUtagRECT@@PAVCWnd@@IPAUCCreateContext@@@Z 00489540 f datatbl.obj
 0001:00088590       ?GetClsid@CDatatbl@@QAEABU_GUID@@XZ 00489590 f datatbl.obj
 0001:000885b0       ??_GCDatatbl@@UAEPAXI@Z    004895b0 f datatbl.obj
 0001:000885b0       ??_ECDatatbl@@UAEPAXI@Z    004895b0 f datatbl.obj
 0001:000885f0       ??1CDatatbl@@UAE@XZ        004895f0 f datatbl.obj
 0001:00088650       ??0CDTCurCell@@QAE@PAUIDispatch@@@Z 00489650 f datatbl.obj
 0001:000886c0       ??0CDTRowSet@@QAE@PAUIDispatch@@@Z 004896c0 f datatbl.obj
 0001:00088730       ??0CDTColumnSet@@QAE@PAUIDispatch@@@Z 00489730 f datatbl.obj
 0001:000887a0       ??0CDTCellSet@@QAE@PAUIDispatch@@@Z 004897a0 f datatbl.obj
 0001:00088810       ??1CDTCellSet@@QAE@XZ      00489810 f datatbl.obj
 0001:00088870       ?CreateObject@CFotogDoc@@SGPAVCObject@@XZ 00489870 f fotogdoc.obj
 0001:000888f8       ?_GetBaseClass@CFotogDoc@@KGPAUCRuntimeClass@@XZ 004898f8 f fotogdoc.obj
 0001:0008890d       ?GetRuntimeClass@CFotogDoc@@UBEPAUCRuntimeClass@@XZ 0048990d f fotogdoc.obj
 0001:00088928       ??0CFotogDoc@@IAE@XZ       00489928 f fotogdoc.obj
 0001:000889a9       ?OnNewDocument@CFotogDoc@@MAEHXZ 004899a9 f fotogdoc.obj
 0001:000889db       ??1CFotogDoc@@UAE@XZ       004899db f fotogdoc.obj
 0001:00088a6e       ?OnFinalRelease@CFotogDoc@@UAEXXZ 00489a6e f fotogdoc.obj
 0001:00088aac       ?_GetBaseMessageMap@CFotogDoc@@KGPBUAFX_MSGMAP@@XZ 00489aac f fotogdoc.obj
 0001:00088ac1       ?GetMessageMap@CFotogDoc@@MBEPBUAFX_MSGMAP@@XZ 00489ac1 f fotogdoc.obj
 0001:00088adc       ?_GetBaseDispatchMap@CFotogDoc@@KGPBUAFX_DISPMAP@@XZ 00489adc f fotogdoc.obj
 0001:00088af1       ?GetDispatchMap@CFotogDoc@@MBEPBUAFX_DISPMAP@@XZ 00489af1 f fotogdoc.obj
 0001:00088b0c       ?Serialize@CFotogDoc@@UAEXAAVCArchive@@@Z 00489b0c f fotogdoc.obj
 0001:00088c00       ?OnCloseDocument@CFotogDoc@@UAEXXZ 00489c00 f fotogdoc.obj
 0001:00088c1e       ?OnOpenDocument@CFotogDoc@@UAEHPBD@Z 00489c1e f fotogdoc.obj
 0001:00088c60       ??_GCFotogDoc@@UAEPAXI@Z   00489c60 f fotogdoc.obj
 0001:00088c60       ??_ECFotogDoc@@UAEPAXI@Z   00489c60 f fotogdoc.obj
 0001:00088ca0       ??0CMyMdi@@QAE@XZ          00489ca0 f mymdi.obj
 0001:00088d39       ??1CMyMdi@@UAE@XZ          00489d39 f mymdi.obj
 0001:00088dba       ?_GetBaseMessageMap@CMyMdi@@KGPBUAFX_MSGMAP@@XZ 00489dba f mymdi.obj
 0001:00088dcf       ?GetMessageMap@CMyMdi@@MBEPBUAFX_MSGMAP@@XZ 00489dcf f mymdi.obj
 0001:00088dea       ?OnEraseBkgnd@CMyMdi@@IAEHPAVCDC@@@Z 00489dea f mymdi.obj
 0001:00088eca       ?GetSuperWndProcAddr@CMyMdi@@UAEPAP6GJPAUHWND__@@IIJ@ZXZ 00489eca f mymdi.obj
 0001:00088ee5       ?OnSize@CMyMdi@@IAEXIHH@Z  00489ee5 f mymdi.obj
 0001:00088f80       ??0CSize@@QAE@HH@Z         00489f80 f mymdi.obj
 0001:00088fb0       ??_ECMyMdi@@UAEPAXI@Z      00489fb0 f mymdi.obj
 0001:00088fb0       ??_GCMyMdi@@UAEPAXI@Z      00489fb0 f mymdi.obj
 0001:00088ff0       ?SetBrushOrg@CDC@@QAE?AVCPoint@@HH@Z 00489ff0 f mymdi.obj
 0001:00089040       ??0CPoint@@QAE@UtagPOINT@@@Z 0048a040 f mymdi.obj
 0001:00089070       ?PatBlt@CDC@@QAEHHHHHK@Z   0048a070 f mymdi.obj
 0001:000890b0       ?RedrawWindow@CWnd@@QAEHPBUtagRECT@@PAVCRgn@@I@Z 0048a0b0 f mymdi.obj
 0001:000890f0       ?drawbox@@YAXMNNN@Z        0048a0f0 f Ptg3DBoxObjOGL.obj
 0001:000894fd       ?drawWireframe@Ptg3DBoxObj@@MAEXXZ 0048a4fd f Ptg3DBoxObjOGL.obj
 0001:0008958b       ?drawSolid@Ptg3DBoxObj@@MAEXXZ 0048a58b f Ptg3DBoxObjOGL.obj
 0001:00089620       ??0Ptg3DBoxObj@@QAE@XZ     0048a620 f Ptg3DBoxObj.obj
 0001:00089697       ?initVars@Ptg3DBoxObj@@AAEXXZ 0048a697 f Ptg3DBoxObj.obj
 0001:000896e2       ??1Ptg3DBoxObj@@UAE@XZ     0048a6e2 f Ptg3DBoxObj.obj
 0001:00089750       ?getType@Ptg3DBoxObj@@UAEPBDXZ 0048a750 f Ptg3DBoxObj.obj
 0001:00089770       ??_GPtg3DBoxObj@@UAEPAXI@Z 0048a770 f Ptg3DBoxObj.obj
 0001:00089770       ??_EPtg3DBoxObj@@UAEPAXI@Z 0048a770 f Ptg3DBoxObj.obj
 0001:000897b0       ??0CLightAdjust@@QAE@PAVCWnd@@@Z 0048a7b0 f LightAdjust.obj
 0001:000898e9       ?DoDataExchange@CLightAdjust@@MAEXPAVCDataExchange@@@Z 0048a8e9 f LightAdjust.obj
 0001:000899da       ?_GetBaseMessageMap@CLightAdjust@@KGPBUAFX_MSGMAP@@XZ 0048a9da f LightAdjust.obj
 0001:000899ef       ?GetMessageMap@CLightAdjust@@MBEPBUAFX_MSGMAP@@XZ 0048a9ef f LightAdjust.obj
 0001:00089a0a       ?OnInitDialog@CLightAdjust@@MAEHXZ 0048aa0a f LightAdjust.obj
 0001:00089b40       ?OnOK@CLightAdjust@@MAEXXZ 0048ab40 f LightAdjust.obj
 0001:00089be7       ?OnCancel@CLightAdjust@@MAEXXZ 0048abe7 f LightAdjust.obj
 0001:00089c05       ?OnHScroll@CLightAdjust@@IAEXIIPAVCScrollBar@@@Z 0048ac05 f LightAdjust.obj
 0001:00089c3f       ?OnVScroll@CLightAdjust@@IAEXIIPAVCScrollBar@@@Z 0048ac3f f LightAdjust.obj
 0001:00089e50       ??0CSliderCtrl@@QAE@XZ     0048ae50 f LightAdjust.obj
 0001:00089ec0       ??_ECSliderCtrl@@UAEPAXI@Z 0048aec0 f LightAdjust.obj
 0001:00089ec0       ??_GCSliderCtrl@@UAEPAXI@Z 0048aec0 f LightAdjust.obj
 0001:00089f00       ??_GCLightAdjust@@UAEPAXI@Z 0048af00 f LightAdjust.obj
 0001:00089f00       ??_ECLightAdjust@@UAEPAXI@Z 0048af00 f LightAdjust.obj
 0001:00089f40       ?SetPos@CSliderCtrl@@QAEXH@Z 0048af40 f LightAdjust.obj
 0001:00089f70       ?SetTicFreq@CSliderCtrl@@QAEXH@Z 0048af70 f LightAdjust.obj
 0001:00089fa0       ?GetPos@CSliderCtrl@@QBEHXZ 0048afa0 f LightAdjust.obj
 0001:00089fd0       ?vOutput@@YAHHPBDPAD@Z     0048afd0 f output.obj
 0001:0008a074       ?Output@@YAHHPBDZZ         0048b074 f output.obj
 0001:0008a0ae       ?vDebugOutput@@YAHHPBDPAD@Z 0048b0ae f output.obj
 0001:0008a0ed       ?DebugOutput@@YAHHPBDZZ    0048b0ed f output.obj
 0001:0008a127       ?vErrorOutput@@YAHPBDPAD@Z 0048b127 f output.obj
 0001:0008a152       ?ErrorOutput@@YAHPBDZZ     0048b152 f output.obj
 0001:0008a190       ??0PtgTransMatrix@@QAE@XZ  0048b190 f PtgTransMatrix.obj
 0001:0008a1b1       ??0PtgTransMatrix@@QAE@PAN@Z 0048b1b1 f PtgTransMatrix.obj
 0001:0008a1e0       ?initVars@PtgTransMatrix@@AAEXXZ 0048b1e0 f PtgTransMatrix.obj
 0001:0008a20f       ??1PtgTransMatrix@@QAE@XZ  0048b20f f PtgTransMatrix.obj
 0001:0008a24a       ?setMatrix@PtgTransMatrix@@QAEXPAN@Z 0048b24a f PtgTransMatrix.obj
 0001:0008a299       ?setMatrix@PtgTransMatrix@@QAEXAAV1@@Z 0048b299 f PtgTransMatrix.obj
 0001:0008a30a       ?getMatrix@PtgTransMatrix@@QAEPANXZ 0048b30a f PtgTransMatrix.obj
 0001:0008a34e       ??APtgTransMatrix@@QAENH@Z 0048b34e f PtgTransMatrix.obj
 0001:0008a38d       ?setIdentity@PtgTransMatrix@@QAEXXZ 0048b38d f PtgTransMatrix.obj
 0001:0008a430       ?Delete@equipObj@@UAEXXZ   0048b430 f rvqDelete.obj
 0001:0008a44e       ?Delete@image_equip_boxObj@@UAEXXZ 0048b44e f rvqDelete.obj
 0001:0008a577       ?Delete@image_ptrObj@@UAEXXZ 0048b577 f rvqDelete.obj
 0001:0008a595       ?Delete@eq_docs_intObj@@UAEXXZ 0048b595 f rvqDelete.obj
 0001:0008a6be       ?Delete@eq_mproc_intObj@@UAEXXZ 0048b6be f rvqDelete.obj
 0001:0008a7e7       ?Delete@commsysObj@@UAEXXZ 0048b7e7 f rvqDelete.obj
 0001:0008a8de       ?Delete@vendorObj@@UAEXXZ  0048b8de f rvqDelete.obj
 0001:0008a9a9       ?Delete@engdocObj@@UAEXXZ  0048b9a9 f rvqDelete.obj
 0001:0008ab0d       ?Delete@progressObj@@UAEXXZ 0048bb0d f rvqDelete.obj
 0001:0008abcc       ?Delete@mprocObj@@UAEXXZ   0048bbcc f rvqDelete.obj
 0001:0008ad30       ?Delete@mhistObj@@UAEXXZ   0048bd30 f rvqDelete.obj
 0001:0008ae9c       ?Delete@mhist_mproc_intObj@@UAEXXZ 0048be9c f rvqDelete.obj
 0001:0008afc5       ?Delete@partsObj@@UAEXXZ   0048bfc5 f rvqDelete.obj
 0001:0008b1de       ?Delete@eq_parts_intObj@@UAEXXZ 0048c1de f rvqDelete.obj
 0001:0008b307       ?Delete@parts_docs_intObj@@UAEXXZ 0048c307 f rvqDelete.obj
 0001:0008b430       _dt_dbdpath@8              0048c430   rdmwin32:RDMWIN32.DLL
 0001:0008b436       _dt_dbfpath@8              0048c436   rdmwin32:RDMWIN32.DLL
 0001:0008b43c       _dt_dblog@8                0048c43c   rdmwin32:RDMWIN32.DLL
 0001:0008b442       _dt_dbtaf@8                0048c442   rdmwin32:RDMWIN32.DLL
 0001:0008b448       _dt_dbuserid@8             0048c448   rdmwin32:RDMWIN32.DLL
 0001:0008b44e       _dt_checkid@8              0048c44e   rdmwin32:RDMWIN32.DLL
 0001:0008b454       _dt_internals@24           0048c454   rdmwin32:RDMWIN32.DLL
 0001:0008b45a       _dt_destroy@8              0048c45a   rdmwin32:RDMWIN32.DLL
 0001:0008b460       _dt_freeall@4              0048c460   rdmwin32:RDMWIN32.DLL
 0001:0008b466       _dt_lockcomm@8             0048c466   rdmwin32:RDMWIN32.DLL
 0001:0008b46c       _dt_lockmgr@8              0048c46c   rdmwin32:RDMWIN32.DLL
 0001:0008b472       _dt_off_opt@8              0048c472   rdmwin32:RDMWIN32.DLL
 0001:0008b478       _dt_on_opt@8               0048c478   rdmwin32:RDMWIN32.DLL
 0001:0008b47e       _dt_recover@8              0048c47e   rdmwin32:RDMWIN32.DLL
 0001:0008b484       _dt_renfile@16             0048c484   rdmwin32:RDMWIN32.DLL
 0001:0008b48a       _dt_renclean@4             0048c48a   rdmwin32:RDMWIN32.DLL
 0001:0008b490       _dt_setpages@12            0048c490   rdmwin32:RDMWIN32.DLL
 0001:0008b496       _dt_setfiles@8             0048c496   rdmwin32:RDMWIN32.DLL
 0001:0008b49c       _dt_set_dberr@8            0048c49c   rdmwin32:RDMWIN32.DLL
 0001:0008b4a2       _dt_timeout@8              0048c4a2   rdmwin32:RDMWIN32.DLL
 0001:0008b4a8       _dt_trabort@4              0048c4a8   rdmwin32:RDMWIN32.DLL
 0001:0008b4ae       _dt_trbegin@8              0048c4ae   rdmwin32:RDMWIN32.DLL
 0001:0008b4b4       _dt_trend@4                0048c4b4   rdmwin32:RDMWIN32.DLL
 0001:0008b4ba       _dt_recstat@16             0048c4ba   rdmwin32:RDMWIN32.DLL
 0001:0008b4c0       _dt_rlbclr@8               0048c4c0   rdmwin32:RDMWIN32.DLL
 0001:0008b4c6       _dt_rlbset@8               0048c4c6   rdmwin32:RDMWIN32.DLL
 0001:0008b4cc       _dt_rlbtst@8               0048c4cc   rdmwin32:RDMWIN32.DLL
 0001:0008b4d2       _dt_cmstat@12              0048c4d2   rdmwin32:RDMWIN32.DLL
 0001:0008b4d8       _dt_cmtype@16              0048c4d8   rdmwin32:RDMWIN32.DLL
 0001:0008b4de       _dt_connect@12             0048c4de   rdmwin32:RDMWIN32.DLL
 0001:0008b4e4       _dt_costat@12              0048c4e4   rdmwin32:RDMWIN32.DLL
 0001:0008b4ea       _dt_cotype@16              0048c4ea   rdmwin32:RDMWIN32.DLL
 0001:0008b4f0       _dt_crget@12               0048c4f0   rdmwin32:RDMWIN32.DLL
 0001:0008b4f6       _dt_crread@16              0048c4f6   rdmwin32:RDMWIN32.DLL
 0001:0008b4fc       _dt_crset@12               0048c4fc   rdmwin32:RDMWIN32.DLL
 0001:0008b502       _dt_crstat@8               0048c502   rdmwin32:RDMWIN32.DLL
 0001:0008b508       _dt_crtype@12              0048c508   rdmwin32:RDMWIN32.DLL
 0001:0008b50e       _dt_crwrite@16             0048c50e   rdmwin32:RDMWIN32.DLL
 0001:0008b514       _dt_csmget@16              0048c514   rdmwin32:RDMWIN32.DLL
 0001:0008b51a       _dt_csmread@20             0048c51a   rdmwin32:RDMWIN32.DLL
 0001:0008b520       _dt_csmset@16              0048c520   rdmwin32:RDMWIN32.DLL
 0001:0008b526       _dt_csmwrite@20            0048c526   rdmwin32:RDMWIN32.DLL
 0001:0008b52c       _dt_csoget@16              0048c52c   rdmwin32:RDMWIN32.DLL
 0001:0008b532       _dt_csoread@20             0048c532   rdmwin32:RDMWIN32.DLL
 0001:0008b538       _dt_csoset@16              0048c538   rdmwin32:RDMWIN32.DLL
 0001:0008b53e       _dt_csowrite@20            0048c53e   rdmwin32:RDMWIN32.DLL
 0001:0008b544       _dt_csstat@12              0048c544   rdmwin32:RDMWIN32.DLL
 0001:0008b54a       _dt_ctbpath@8              0048c54a   rdmwin32:RDMWIN32.DLL
 0001:0008b550       _dt_ctscm@16               0048c550   rdmwin32:RDMWIN32.DLL
 0001:0008b556       _dt_ctsco@16               0048c556   rdmwin32:RDMWIN32.DLL
 0001:0008b55c       _dt_ctscr@12               0048c55c   rdmwin32:RDMWIN32.DLL
 0001:0008b562       _dt_curkey@8               0048c562   rdmwin32:RDMWIN32.DLL
 0001:0008b568       _dt_delete@8               0048c568   rdmwin32:RDMWIN32.DLL
 0001:0008b56e       _dt_disdel@8               0048c56e   rdmwin32:RDMWIN32.DLL
 0001:0008b574       _dt_recnext@8              0048c574   rdmwin32:RDMWIN32.DLL
 0001:0008b57a       _dt_recprev@8              0048c57a   rdmwin32:RDMWIN32.DLL
 0001:0008b580       _dt_discon@12              0048c580   rdmwin32:RDMWIN32.DLL
 0001:0008b586       _dt_fillnew@16             0048c586   rdmwin32:RDMWIN32.DLL
 0001:0008b58c       _dt_findco@12              0048c58c   rdmwin32:RDMWIN32.DLL
 0001:0008b592       _dt_findfm@12              0048c592   rdmwin32:RDMWIN32.DLL
 0001:0008b598       _dt_findlm@12              0048c598   rdmwin32:RDMWIN32.DLL
 0001:0008b59e       _dt_findnm@12              0048c59e   rdmwin32:RDMWIN32.DLL
 0001:0008b5a4       _dt_findpm@12              0048c5a4   rdmwin32:RDMWIN32.DLL
 0001:0008b5aa       _dt_gtscm@16               0048c5aa   rdmwin32:RDMWIN32.DLL
 0001:0008b5b0       _dt_gtsco@16               0048c5b0   rdmwin32:RDMWIN32.DLL
 0001:0008b5b6       _dt_gtscr@12               0048c5b6   rdmwin32:RDMWIN32.DLL
 0001:0008b5bc       _dt_gtscs@16               0048c5bc   rdmwin32:RDMWIN32.DLL
 0001:0008b5c2       _dt_initialize@8           0048c5c2   rdmwin32:RDMWIN32.DLL
 0001:0008b5c8       _dt_initfile@12            0048c5c8   rdmwin32:RDMWIN32.DLL
 0001:0008b5ce       _dt_ismember@12            0048c5ce   rdmwin32:RDMWIN32.DLL
 0001:0008b5d4       _dt_isowner@12             0048c5d4   rdmwin32:RDMWIN32.DLL
 0001:0008b5da       _dt_keybuild@8             0048c5da   rdmwin32:RDMWIN32.DLL
 0001:0008b5e0       _dt_keydel@12              0048c5e0   rdmwin32:RDMWIN32.DLL
 0001:0008b5e6       _dt_keyexist@12            0048c5e6   rdmwin32:RDMWIN32.DLL
 0001:0008b5ec       _dt_keyfind@16             0048c5ec   rdmwin32:RDMWIN32.DLL
 0001:0008b5f2       _dt_keyfree@12             0048c5f2   rdmwin32:RDMWIN32.DLL
 0001:0008b5f8       _dt_keyfrst@12             0048c5f8   rdmwin32:RDMWIN32.DLL
 0001:0008b5fe       _dt_keylast@12             0048c5fe   rdmwin32:RDMWIN32.DLL
 0001:0008b604       _dt_keylock@16             0048c604   rdmwin32:RDMWIN32.DLL
 0001:0008b60a       _dt_keylstat@16            0048c60a   rdmwin32:RDMWIN32.DLL
 0001:0008b610       _dt_keynext@12             0048c610   rdmwin32:RDMWIN32.DLL
 0001:0008b616       _dt_keyprev@12             0048c616   rdmwin32:RDMWIN32.DLL
 0001:0008b61c       _dt_keyread@8              0048c61c   rdmwin32:RDMWIN32.DLL
 0001:0008b622       _dt_keystore@12            0048c622   rdmwin32:RDMWIN32.DLL
 0001:0008b628       _dt_lock@16                0048c628   rdmwin32:RDMWIN32.DLL
 0001:0008b62e       _dt_makenew@12             0048c62e   rdmwin32:RDMWIN32.DLL
 0001:0008b634       _dt_members@16             0048c634   rdmwin32:RDMWIN32.DLL
 0001:0008b63a       _dt_recfree@12             0048c63a   rdmwin32:RDMWIN32.DLL
 0001:0008b640       _dt_recfrst@12             0048c640   rdmwin32:RDMWIN32.DLL
 0001:0008b646       _dt_reclast@12             0048c646   rdmwin32:RDMWIN32.DLL
 0001:0008b64c       _dt_reclock@16             0048c64c   rdmwin32:RDMWIN32.DLL
 0001:0008b652       _dt_reclstat@16            0048c652   rdmwin32:RDMWIN32.DLL
 0001:0008b658       _dt_recread@12             0048c658   rdmwin32:RDMWIN32.DLL
 0001:0008b65e       _dt_recset@12              0048c65e   rdmwin32:RDMWIN32.DLL
 0001:0008b664       _dt_recwrite@12            0048c664   rdmwin32:RDMWIN32.DLL
 0001:0008b66a       _dt_setfree@12             0048c66a   rdmwin32:RDMWIN32.DLL
 0001:0008b670       _dt_setkey@16              0048c670   rdmwin32:RDMWIN32.DLL
 0001:0008b676       _dt_setlock@16             0048c676   rdmwin32:RDMWIN32.DLL
 0001:0008b67c       _dt_setlstat@16            0048c67c   rdmwin32:RDMWIN32.DLL
 0001:0008b682       _dt_setmm@16               0048c682   rdmwin32:RDMWIN32.DLL
 0001:0008b688       _dt_setmo@16               0048c688   rdmwin32:RDMWIN32.DLL
 0001:0008b68e       _dt_setmr@12               0048c68e   rdmwin32:RDMWIN32.DLL
 0001:0008b694       _dt_setom@16               0048c694   rdmwin32:RDMWIN32.DLL
 0001:0008b69a       _dt_setoo@16               0048c69a   rdmwin32:RDMWIN32.DLL
 0001:0008b6a0       _dt_setor@12               0048c6a0   rdmwin32:RDMWIN32.DLL
 0001:0008b6a6       _dt_setrm@12               0048c6a6   rdmwin32:RDMWIN32.DLL
 0001:0008b6ac       _dt_setro@12               0048c6ac   rdmwin32:RDMWIN32.DLL
 0001:0008b6b2       _dt_stscm@16               0048c6b2   rdmwin32:RDMWIN32.DLL
 0001:0008b6b8       _dt_stsco@16               0048c6b8   rdmwin32:RDMWIN32.DLL
 0001:0008b6be       _dt_stscr@12               0048c6be   rdmwin32:RDMWIN32.DLL
 0001:0008b6c4       _dt_stscs@16               0048c6c4   rdmwin32:RDMWIN32.DLL
 0001:0008b6ca       _dt_utscm@16               0048c6ca   rdmwin32:RDMWIN32.DLL
 0001:0008b6d0       _dt_utsco@16               0048c6d0   rdmwin32:RDMWIN32.DLL
 0001:0008b6d6       _dt_utscr@12               0048c6d6   rdmwin32:RDMWIN32.DLL
 0001:0008b6dc       _dt_utscs@16               0048c6dc   rdmwin32:RDMWIN32.DLL
 0001:0008b6e2       _dt_wrcurr@20              0048c6e2   rdmwin32:RDMWIN32.DLL
 0001:0008b6e8       _dt_rdcurr@16              0048c6e8   rdmwin32:RDMWIN32.DLL
 0001:0008b6ee       _dt_closetask@4            0048c6ee   rdmwin32:RDMWIN32.DLL
 0001:0008b6f4       _dt_open@12                0048c6f4   rdmwin32:RDMWIN32.DLL
 0001:0008b6fa       _dt_opentask@4             0048c6fa   rdmwin32:RDMWIN32.DLL
 0001:0008b700       _dt_close@4                0048c700   rdmwin32:RDMWIN32.DLL
 0001:0008b706       ?Read@VistaObj@@UAEXXZ     0048c706   omrdmimp:OMRDM.dll
 0001:0008b70c       ?SetDefaultValues@VistaObj@@UAEXXZ 0048c70c   omrdmimp:OMRDM.dll
 0001:0008b712       ?TotalSize@VistaObj@@UAEJXZ 0048c712   omrdmimp:OMRDM.dll
 0001:0008b718       ?RecData@VistaObj@@UAEPAXXZ 0048c718   omrdmimp:OMRDM.dll
 0001:0008b71e       ?RecType@VistaObj@@UAEHXZ  0048c71e   omrdmimp:OMRDM.dll
 0001:0008b724       ?_GetDb@VistaObj@@UAEPAVVistaDb@@XZ 0048c724   omrdmimp:OMRDM.dll
 0001:0008b72a       ??1RDXTask@@QAE@XZ         0048c72a   omrdmimp:OMRDM.dll
 0001:0008b730       ?MakeCurrent@VistaTask@@UAEXXZ 0048c730   omrdmimp:OMRDM.dll
 0001:0008b736       ??1VistaTask@@QAE@XZ       0048c736   omrdmimp:OMRDM.dll
 0001:0008b73c       ??1RDXDb@@UAE@XZ           0048c73c   omrdmimp:OMRDM.dll
 0001:0008b742       ??1VistaDb@@UAE@XZ         0048c742   omrdmimp:OMRDM.dll
 0001:0008b748       ??0VistaTask@@QAE@PAD@Z    0048c748   omrdmimp:OMRDM.dll
 0001:0008b74e       ??0VistaTask@@QAE@PADAAVActivateTask@@@Z 0048c74e   omrdmimp:OMRDM.dll
 0001:0008b754       ?Find@StoreObj@@QAEAAV1@AAVKeyObj@@@Z 0048c754   omrdmimp:OMRDM.dll
 0001:0008b75a       ?GotoDirect@StoreObj@@QAEAAV1@AAVDbAddr@@@Z 0048c75a   omrdmimp:OMRDM.dll
 0001:0008b760       ?Goto@StoreObj@@QAEAAV1@W4NavCtrl@@@Z 0048c760   omrdmimp:OMRDM.dll
 0001:0008b766       ?Goto@StoreObj@@QAEAAV1@AAVKeyObj@@W4NavCtrl@@@Z 0048c766   omrdmimp:OMRDM.dll
 0001:0008b76c       ?Lock@StoreObj@@QAE?AW4T_F@@PAD@Z 0048c76c   omrdmimp:OMRDM.dll
 0001:0008b772       ??0StoreObj@@IAE@PAVVistaDb@@@Z 0048c772   omrdmimp:OMRDM.dll
 0001:0008b778       ??1StoreObj@@UAE@XZ        0048c778   omrdmimp:OMRDM.dll
 0001:0008b77e       ?Clone@StoreObj@@UAEPAV1@XZ 0048c77e   omrdmimp:OMRDM.dll
 0001:0008b784       ?Read@Polymorph@@MAEXXZ    0048c784   omrdmimp:OMRDM.dll
 0001:0008b78a       ?RecData@StoreObj@@MAEPAXXZ 0048c78a   omrdmimp:OMRDM.dll
 0001:0008b790       ?Delete@StoreObj@@UAEXXZ   0048c790   omrdmimp:OMRDM.dll
 0001:0008b796       ?Write@StoreObj@@UAEXXZ    0048c796   omrdmimp:OMRDM.dll
 0001:0008b79c       ?NewObj@StoreObj@@UAEXXZ   0048c79c   omrdmimp:OMRDM.dll
 0001:0008b7a2       ??0StoreObj@@QAE@AAV0@@Z   0048c7a2   omrdmimp:OMRDM.dll
 0001:0008b7a8       ??4StoreObj@@QAEAAV0@AAV0@@Z 0048c7a8   omrdmimp:OMRDM.dll
 0001:0008b7ae       ??1Polymorph@@UAE@XZ       0048c7ae   omrdmimp:OMRDM.dll
 0001:0008b7b4       ??0StoreDb@@IAE@PADPAPAV0@@Z 0048c7b4   omrdmimp:OMRDM.dll
 0001:0008b7ba       ?Open@VistaDb@@QAE?AW4T_F@@XZ 0048c7ba   omrdmimp:OMRDM.dll
 0001:0008b7c0       ?Read@StoreObj@@MAEXXZ     0048c7c0   omrdmimp:OMRDM.dll
 0001:0008b7c6       ??AStoreObj@@QAEAAV0@W4NavCtrl@@@Z 0048c7c6   omrdmimp:OMRDM.dll
 0001:0008b7cc       ??EStoreObj@@QAEAAV0@XZ    0048c7cc   omrdmimp:OMRDM.dll
 0001:0008b7d2       ??FStoreObj@@QAEAAV0@XZ    0048c7d2   omrdmimp:OMRDM.dll
 0001:0008b7d8       ?FromOwner@StoreObj@@QAEAAV1@PAV1@H@Z 0048c7d8   omrdmimp:OMRDM.dll
 0001:0008b7de       ?MemCount@StoreObj@@IAEJAAV1@H@Z 0048c7de   omrdmimp:OMRDM.dll
 0001:0008b7e4       ??0StoreObj@@IAE@AAVSetObj@@PAVVistaDb@@@Z 0048c7e4   omrdmimp:OMRDM.dll
 0001:0008b7ea       ??0StoreObj@@IAE@AAVKeyObj@@PAVVistaDb@@@Z 0048c7ea   omrdmimp:OMRDM.dll
 0001:0008b7f0       ?ConnectTo@StoreObj@@QAE?AW4T_F@@AAV1@H@Z 0048c7f0   omrdmimp:OMRDM.dll
 0001:0008b7f6       ?GotoMember@StoreObj@@QAEAAV1@AAV1@HW4NavCtrl@@@Z 0048c7f6   omrdmimp:OMRDM.dll
 0001:0008b7fc       ?DisConFrom@StoreObj@@QAE?AW4T_F@@AAV1@H@Z 0048c7fc   omrdmimp:OMRDM.dll
 0001:0008b802       ?FromMember@StoreObj@@QAEAAV1@PAV1@H@Z 0048c802   omrdmimp:OMRDM.dll
 0001:0008b808       ??0StoreDb@@IAE@PAPAV0@@Z  0048c808   omrdmimp:OMRDM.dll
 0001:0008b80e       ??0TransAction@@QAE@PAVVistaTask@@@Z 0048c80e   omrdmimp:OMRDM.dll
 0001:0008b814       ??1TransAction@@QAE@XZ     0048c814   omrdmimp:OMRDM.dll
 0001:0008b81a       ?End@TransAction@@QAEXXZ   0048c81a   omrdmimp:OMRDM.dll
 0001:0008b820       ?Begin@TransAction@@QAEHQAD@Z 0048c820   omrdmimp:OMRDM.dll
 0001:0008b826       ?Abort@TransAction@@QAEXXZ 0048c826   omrdmimp:OMRDM.dll
 0001:0008b82c       ?IsOwner@StoreObj@@QAE?AW4T_F@@H@Z 0048c82c   omrdmimp:OMRDM.dll
 0001:0008b832       ?Select@Polymorph@@IAE?AW4T_F@@H@Z 0048c832   omrdmimp:OMRDM.dll
 0001:0008b838       ?SetPaths@RDXTask@@QAEXPAD0000@Z 0048c838   omrdmimp:OMRDM.dll
 0001:0008b83e       ?FreeLock@StoreObj@@QAE?AW4T_F@@XZ 0048c83e   omrdmimp:OMRDM.dll
 0001:0008b844       ?IsMember@StoreObj@@QAE?AW4T_F@@H@Z 0048c844   omrdmimp:OMRDM.dll
 0001:0008b84a       ?Register@Polymorph@@QAE?AW4T_F@@AAVStoreObj@@@Z 0048c84a   omrdmimp:OMRDM.dll
 0001:0008b850       ??0Polymorph@@IAE@HHPAVVistaDb@@@Z 0048c850   omrdmimp:OMRDM.dll
 0001:0008b856       ?SetName@StoreDb@@QAEXPAD@Z 0048c856   omrdmimp:OMRDM.dll
 0001:0008b85c       ?Close@VistaDb@@QAE?AW4T_F@@XZ 0048c85c   omrdmimp:OMRDM.dll
 0001:0008b862       _gluDeleteQuadric@4        0048c862 f glu32:GLU32.dll
 0001:0008b868       _gluDisk@28                0048c868 f glu32:GLU32.dll
 0001:0008b86e       _gluQuadricDrawStyle@8     0048c86e f glu32:GLU32.dll
 0001:0008b874       _gluNewQuadric@0           0048c874 f glu32:GLU32.dll
 0001:0008b87a       _gluCylinder@36            0048c87a f glu32:GLU32.dll
 0001:0008b880       _gluDeleteTess@4           0048c880 f glu32:GLU32.dll
 0001:0008b886       _gluEndPolygon@4           0048c886 f glu32:GLU32.dll
 0001:0008b88c       _gluTessVertex@12          0048c88c f glu32:GLU32.dll
 0001:0008b892       _gluBeginPolygon@4         0048c892 f glu32:GLU32.dll
 0001:0008b898       _gluTessCallback@12        0048c898 f glu32:GLU32.dll
 0001:0008b89e       _gluNewTess@0              0048c89e f glu32:GLU32.dll
 0001:0008b8a4       _gluErrorString@4          0048c8a4 f glu32:GLU32.dll
 0001:0008b8aa       _gluPerspective@32         0048c8aa f glu32:GLU32.dll
 0001:0008b8b0       _gluOrtho2D@32             0048c8b0 f glu32:GLU32.dll
 0001:0008b8b6       _gluPickMatrix@36          0048c8b6 f glu32:GLU32.dll
 0001:0008b8bc       _gluDeleteNurbsRenderer@4  0048c8bc f glu32:GLU32.dll
 0001:0008b8c2       _gluEndSurface@4           0048c8c2 f glu32:GLU32.dll
 0001:0008b8c8       _gluNurbsSurface@44        0048c8c8 f glu32:GLU32.dll
 0001:0008b8ce       _gluBeginSurface@4         0048c8ce f glu32:GLU32.dll
 0001:0008b8d4       _gluNurbsProperty@12       0048c8d4 f glu32:GLU32.dll
 0001:0008b8da       _gluNewNurbsRenderer@0     0048c8da f glu32:GLU32.dll
 0001:0008b8e0       _gluNurbsCallback@12       0048c8e0 f glu32:GLU32.dll
 0001:0008b8e6       _WNetGetUserA@12           0048c8e6 f mpr:MPR.dll
 0001:0008b8ec       ??3@YAXPAX@Z               0048c8ec f mfc42:MFC42.DLL
 0001:0008b8f2       ?PreInitDialog@CDialog@@MAEXXZ 0048c8f2 f mfc42:MFC42.DLL
 0001:0008b8f8       ?OnSetFont@CDialog@@UAEXPAVCFont@@@Z 0048c8f8 f mfc42:MFC42.DLL
 0001:0008b8fe       ?OnInitDialog@CDialog@@UAEHXZ 0048c8fe f mfc42:MFC42.DLL
 0001:0008b904       ?DoModal@CDialog@@UAEHXZ   0048c904 f mfc42:MFC42.DLL
 0001:0008b90a       ?SetOccDialogInfo@CDialog@@MAEHPAU_AFX_OCC_DIALOG_INFO@@@Z 0048c90a f mfc42:MFC42.DLL
 0001:0008b910       ?IsFrameWnd@CWnd@@UBEHXZ   0048c910 f mfc42:MFC42.DLL
 0001:0008b916       ?CheckAutoCenter@CDialog@@UAEHXZ 0048c916 f mfc42:MFC42.DLL
 0001:0008b91c       ?OnChildNotify@CWnd@@MAEHIIJPAJ@Z 0048c91c f mfc42:MFC42.DLL
 0001:0008b922       ?PostNcDestroy@CWnd@@MAEXXZ 0048c922 f mfc42:MFC42.DLL
 0001:0008b928       ?DefWindowProcA@CWnd@@MAEJIIJ@Z 0048c928 f mfc42:MFC42.DLL
 0001:0008b92e       ?OnWndMsg@CWnd@@MAEHIIJPAJ@Z 0048c92e f mfc42:MFC42.DLL
 0001:0008b934       ?WindowProc@CWnd@@MAEJIIJ@Z 0048c934 f mfc42:MFC42.DLL
 0001:0008b93a       ?OnAmbientProperty@CWnd@@UAEHPAVCOleControlSite@@JPAUtagVARIANT@@@Z 0048c93a f mfc42:MFC42.DLL
 0001:0008b940       ?PreTranslateMessage@CDialog@@UAEHPAUtagMSG@@@Z 0048c940 f mfc42:MFC42.DLL
 0001:0008b946       ?GetSuperWndProcAddr@CWnd@@MAEPAP6GJPAUHWND__@@IIJ@ZXZ 0048c946 f mfc42:MFC42.DLL
 0001:0008b94c       ?OnNotify@CWnd@@MAEHIJPAJ@Z 0048c94c f mfc42:MFC42.DLL
 0001:0008b952       ?OnCommand@CWnd@@MAEHIJ@Z  0048c952 f mfc42:MFC42.DLL
 0001:0008b958       ?EndModalLoop@CWnd@@UAEXH@Z 0048c958 f mfc42:MFC42.DLL
 0001:0008b95e       ?ContinueModal@CWnd@@UAEHXZ 0048c95e f mfc42:MFC42.DLL
 0001:0008b964       ?WinHelpA@CWnd@@UAEXKI@Z   0048c964 f mfc42:MFC42.DLL
 0001:0008b96a       ?GetScrollBarCtrl@CWnd@@UBEPAVCScrollBar@@H@Z 0048c96a f mfc42:MFC42.DLL
 0001:0008b970       ?OnToolHitTest@CWnd@@UBEHVCPoint@@PAUtagTOOLINFOA@@@Z 0048c970 f mfc42:MFC42.DLL
 0001:0008b976       ?CalcWindowRect@CWnd@@UAEXPAUtagRECT@@I@Z 0048c976 f mfc42:MFC42.DLL
 0001:0008b97c       ?PreCreateWindow@CWnd@@UAEHAAUtagCREATESTRUCTA@@@Z 0048c97c f mfc42:MFC42.DLL
 0001:0008b982       ?DestroyWindow@CWnd@@UAEHXZ 0048c982 f mfc42:MFC42.DLL
 0001:0008b988       ?Create@CWnd@@UAEHPBD0KABUtagRECT@@PAV1@IPAUCCreateContext@@@Z 0048c988 f mfc42:MFC42.DLL
 0001:0008b98e       ?PreSubclassWindow@CWnd@@UAEXXZ 0048c98e f mfc42:MFC42.DLL
 0001:0008b994       ?GetConnectionHook@CCmdTarget@@MAEPAUIConnectionPoint@@ABU_GUID@@@Z 0048c994 f mfc42:MFC42.DLL
 0001:0008b99a       ?GetExtraConnectionPoints@CCmdTarget@@MAEHPAVCPtrArray@@@Z 0048c99a f mfc42:MFC42.DLL
 0001:0008b9a0       ?GetInterfaceHook@CCmdTarget@@UAEPAUIUnknown@@PBX@Z 0048c9a0 f mfc42:MFC42.DLL
 0001:0008b9a6       ?OnCreateAggregates@CCmdTarget@@UAEHXZ 0048c9a6 f mfc42:MFC42.DLL
 0001:0008b9ac       ?GetEventSinkMap@CCmdTarget@@MBEPBUAFX_EVENTSINKMAP@@XZ 0048c9ac f mfc42:MFC42.DLL
 0001:0008b9b2       ?GetInterfaceMap@CCmdTarget@@MBEPBUAFX_INTERFACEMAP@@XZ 0048c9b2 f mfc42:MFC42.DLL
 0001:0008b9b8       ?GetConnectionMap@CCmdTarget@@MBEPBUAFX_CONNECTIONMAP@@XZ 0048c9b8 f mfc42:MFC42.DLL
 0001:0008b9be       ?GetDispatchMap@CCmdTarget@@MBEPBUAFX_DISPMAP@@XZ 0048c9be f mfc42:MFC42.DLL
 0001:0008b9c4       ?GetCommandMap@CCmdTarget@@MBEPBUAFX_OLECMDMAP@@XZ 0048c9c4 f mfc42:MFC42.DLL
 0001:0008b9ca       ?GetTypeLib@CCmdTarget@@UAEJKPAPAUITypeLib@@@Z 0048c9ca f mfc42:MFC42.DLL
 0001:0008b9d0       ?GetTypeLibCache@CCmdTarget@@UAEPAVCTypeLibCache@@XZ 0048c9d0 f mfc42:MFC42.DLL
 0001:0008b9d6       ?GetTypeInfoCount@CCmdTarget@@UAEIXZ 0048c9d6 f mfc42:MFC42.DLL
 0001:0008b9dc       ?GetDispatchIID@CCmdTarget@@UAEHPAU_GUID@@@Z 0048c9dc f mfc42:MFC42.DLL
 0001:0008b9e2       ?IsInvokeAllowed@CCmdTarget@@UAEHJ@Z 0048c9e2 f mfc42:MFC42.DLL
 0001:0008b9e8       ?OnFinalRelease@CWnd@@UAEXXZ 0048c9e8 f mfc42:MFC42.DLL
 0001:0008b9ee       ?OnCmdMsg@CDialog@@UAEHIHPAXPAUAFX_CMDHANDLERINFO@@@Z 0048c9ee f mfc42:MFC42.DLL
 0001:0008b9f4       ?GetRuntimeClass@CDialog@@UBEPAUCRuntimeClass@@XZ 0048c9f4 f mfc42:MFC42.DLL
 0001:0008b9fa       ??1CDialog@@UAE@XZ         0048c9fa f mfc42:MFC42.DLL
 0001:0008ba00       ??0CDialog@@QAE@IPAVCWnd@@@Z 0048ca00 f mfc42:MFC42.DLL
 0001:0008ba06       ?DDX_Check@@YGXPAVCDataExchange@@HAAH@Z 0048ca06 f mfc42:MFC42.DLL
 0001:0008ba0c       ?OnCancel@CDialog@@MAEXXZ  0048ca0c f mfc42:MFC42.DLL
 0001:0008ba12       ?OnOK@CDialog@@MAEXXZ      0048ca12 f mfc42:MFC42.DLL
 0001:0008ba18       ?UpdateData@CWnd@@QAEHH@Z  0048ca18 f mfc42:MFC42.DLL
 0001:0008ba1e       ?GetProperty@COleDispatchDriver@@QBEXJGPAX@Z 0048ca1e f mfc42:MFC42.DLL
 0001:0008ba24       ?SetProperty@COleDispatchDriver@@QAAXJGZZ 0048ca24 f mfc42:MFC42.DLL
 0001:0008ba2a       ??1CString@@QAE@XZ         0048ca2a f mfc42:MFC42.DLL
 0001:0008ba30       ??0CString@@QAE@ABV0@@Z    0048ca30 f mfc42:MFC42.DLL
 0001:0008ba36       ??0CString@@QAE@XZ         0048ca36 f mfc42:MFC42.DLL
 0001:0008ba3c       ?InvokeHelper@COleDispatchDriver@@QAAXJGGPAXPBEZZ 0048ca3c f mfc42:MFC42.DLL
 0001:0008ba42       ??0COleDispatchDriver@@QAE@PAUIDispatch@@H@Z 0048ca42 f mfc42:MFC42.DLL
 0001:0008ba48       ?ReleaseDispatch@COleDispatchDriver@@QAEXXZ 0048ca48 f mfc42:MFC42.DLL
 0001:0008ba4e       ??2@YAPAXI@Z               0048ca4e f mfc42:MFC42.DLL
 0001:0008ba54       ?AfxGetModuleState@@YGPAVAFX_MODULE_STATE@@XZ 0048ca54 f mfc42:MFC42.DLL
 0001:0008ba5a       ?AfxMessageBox@@YGHPBDII@Z 0048ca5a f mfc42:MFC42.DLL
 0001:0008ba60       ?OnUpdateFrameMenu@CMDIChildWnd@@UAEXHPAVCWnd@@PAUHMENU__@@@Z 0048ca60 f mfc42:MFC42.DLL
 0001:0008ba66       ?Create@CMDIChildWnd@@UAEHPBD0KABUtagRECT@@PAVCMDIFrameWnd@@PAUCCreateContext@@@Z 0048ca66 f mfc42:MFC42.DLL
 0001:0008ba6c       ?ExitHelpMode@CFrameWnd@@UAEXXZ 0048ca6c f mfc42:MFC42.DLL
 0001:0008ba72       ?DelayUpdateFrameMenu@CFrameWnd@@UAEXPAUHMENU__@@@Z 0048ca72 f mfc42:MFC42.DLL
 0001:0008ba78       ?GetDefaultAccelerator@CFrameWnd@@UAEPAUHACCEL__@@XZ 0048ca78 f mfc42:MFC42.DLL
 0001:0008ba7e       ?OnUpdateFrameMenu@CFrameWnd@@UAEXPAUHMENU__@@@Z 0048ca7e f mfc42:MFC42.DLL
 0001:0008ba84       ?OnUpdateFrameTitle@CMDIChildWnd@@MAEXH@Z 0048ca84 f mfc42:MFC42.DLL
 0001:0008ba8a       ?OnCreateClient@CFrameWnd@@MAEHPAUtagCREATESTRUCTA@@PAUCCreateContext@@@Z 0048ca8a f mfc42:MFC42.DLL
 0001:0008ba90       ?NegotiateBorderSpace@CFrameWnd@@UAEHIPAUtagRECT@@@Z 0048ca90 f mfc42:MFC42.DLL
 0001:0008ba96       ?GetMessageBar@CMDIChildWnd@@MAEPAVCWnd@@XZ 0048ca96 f mfc42:MFC42.DLL
 0001:0008ba9c       ?OnSetPreviewMode@CFrameWnd@@UAEXHPAUCPrintPreviewState@@@Z 0048ca9c f mfc42:MFC42.DLL
 0001:0008baa2       ?ActivateFrame@CMDIChildWnd@@UAEXH@Z 0048caa2 f mfc42:MFC42.DLL
 0001:0008baa8       ?RecalcLayout@CFrameWnd@@UAEXH@Z 0048caa8 f mfc42:MFC42.DLL
 0001:0008baae       ?GetMessageString@CFrameWnd@@UBEXIAAVCString@@@Z 0048caae f mfc42:MFC42.DLL
 0001:0008bab4       ?GetActiveFrame@CFrameWnd@@UAEPAV1@XZ 0048cab4 f mfc42:MFC42.DLL
 0001:0008baba       ?GetActiveDocument@CFrameWnd@@UAEPAVCDocument@@XZ 0048caba f mfc42:MFC42.DLL
 0001:0008bac0       ?SetOccDialogInfo@CWnd@@MAEHPAU_AFX_OCC_DIALOG_INFO@@@Z 0048cac0 f mfc42:MFC42.DLL
 0001:0008bac6       ?IsFrameWnd@CFrameWnd@@UBEHXZ 0048cac6 f mfc42:MFC42.DLL
 0001:0008bacc       ?CheckAutoCenter@CWnd@@UAEHXZ 0048cacc f mfc42:MFC42.DLL
 0001:0008bad2       ?PostNcDestroy@CFrameWnd@@MAEXXZ 0048cad2 f mfc42:MFC42.DLL
 0001:0008bad8       ?DefWindowProcA@CMDIChildWnd@@MAEJIIJ@Z 0048cad8 f mfc42:MFC42.DLL
 0001:0008bade       ?PreTranslateMessage@CMDIChildWnd@@UAEHPAUtagMSG@@@Z 0048cade f mfc42:MFC42.DLL
 0001:0008bae4       ?EndModalState@CFrameWnd@@UAEXXZ 0048cae4 f mfc42:MFC42.DLL
 0001:0008baea       ?BeginModalState@CFrameWnd@@UAEXXZ 0048caea f mfc42:MFC42.DLL
 0001:0008baf0       ?OnCommand@CFrameWnd@@MAEHIJ@Z 0048caf0 f mfc42:MFC42.DLL
 0001:0008baf6       ?DestroyWindow@CMDIChildWnd@@UAEHXZ 0048caf6 f mfc42:MFC42.DLL
 0001:0008bafc       ?OnCmdMsg@CFrameWnd@@UAEHIHPAXPAUAFX_CMDHANDLERINFO@@@Z 0048cafc f mfc42:MFC42.DLL
 0001:0008bb02       ??0CMDIChildWnd@@QAE@XZ    0048cb02 f mfc42:MFC42.DLL
 0001:0008bb08       ??1CFrameWnd@@UAE@XZ       0048cb08 f mfc42:MFC42.DLL
 0001:0008bb0e       ?GetIconWndClass@CFrameWnd@@IAEPBDKI@Z 0048cb0e f mfc42:MFC42.DLL
 0001:0008bb14       ?AfxExtractSubString@@YGHAAVCString@@PBDHD@Z 0048cb14 f mfc42:MFC42.DLL
 0001:0008bb1a       ?LoadStringA@CString@@QAEHI@Z 0048cb1a f mfc42:MFC42.DLL
 0001:0008bb20       ??4CString@@QAEABV0@PBD@Z  0048cb20 f mfc42:MFC42.DLL
 0001:0008bb26       ?PreCreateWindow@CMDIChildWnd@@UAEHAAUtagCREATESTRUCTA@@@Z 0048cb26 f mfc42:MFC42.DLL
 0001:0008bb2c       ?OnEndPrintPreview@CView@@MAEXPAVCDC@@PAUCPrintInfo@@UtagPOINT@@PAVCPreviewView@@@Z 0048cb2c f mfc42:MFC42.DLL
 0001:0008bb32       ?OnEndPrinting@CView@@MAEXPAVCDC@@PAUCPrintInfo@@@Z 0048cb32 f mfc42:MFC42.DLL
 0001:0008bb38       ?OnPrint@CView@@MAEXPAVCDC@@PAUCPrintInfo@@@Z 0048cb38 f mfc42:MFC42.DLL
 0001:0008bb3e       ?OnBeginPrinting@CView@@MAEXPAVCDC@@PAUCPrintInfo@@@Z 0048cb3e f mfc42:MFC42.DLL
 0001:0008bb44       ?OnPreparePrinting@CView@@MAEHPAUCPrintInfo@@@Z 0048cb44 f mfc42:MFC42.DLL
 0001:0008bb4a       ?OnDraw@CFormView@@MAEXPAVCDC@@@Z 0048cb4a f mfc42:MFC42.DLL
 0001:0008bb50       ?OnUpdate@CView@@MAEXPAV1@JPAVCObject@@@Z 0048cb50 f mfc42:MFC42.DLL
 0001:0008bb56       ?OnActivateFrame@CFormView@@MAEXIPAVCFrameWnd@@@Z 0048cb56 f mfc42:MFC42.DLL
 0001:0008bb5c       ?OnActivateView@CFormView@@MAEXHPAVCView@@0@Z 0048cb5c f mfc42:MFC42.DLL
 0001:0008bb62       ?OnPrepareDC@CScrollView@@UAEXPAVCDC@@PAUCPrintInfo@@@Z 0048cb62 f mfc42:MFC42.DLL
 0001:0008bb68       ?OnDragScroll@CView@@UAEKKVCPoint@@@Z 0048cb68 f mfc42:MFC42.DLL
 0001:0008bb6e       ?OnDropEx@CView@@UAEKPAVCOleDataObject@@KKVCPoint@@@Z 0048cb6e f mfc42:MFC42.DLL
 0001:0008bb74       ?OnDrop@CView@@UAEHPAVCOleDataObject@@KVCPoint@@@Z 0048cb74 f mfc42:MFC42.DLL
 0001:0008bb7a       ?OnDragLeave@CView@@UAEXXZ 0048cb7a f mfc42:MFC42.DLL
 0001:0008bb80       ?OnDragOver@CView@@UAEKPAVCOleDataObject@@KVCPoint@@@Z 0048cb80 f mfc42:MFC42.DLL
 0001:0008bb86       ?OnDragEnter@CView@@UAEKPAVCOleDataObject@@KVCPoint@@@Z 0048cb86 f mfc42:MFC42.DLL
 0001:0008bb8c       ?OnScrollBy@CScrollView@@UAEHVCSize@@H@Z 0048cb8c f mfc42:MFC42.DLL
 0001:0008bb92       ?OnScroll@CScrollView@@UAEHIIH@Z 0048cb92 f mfc42:MFC42.DLL
 0001:0008bb98       ?IsSelected@CView@@UBEHPBVCObject@@@Z 0048cb98 f mfc42:MFC42.DLL
 0001:0008bb9e       ?SetOccDialogInfo@CFormView@@MAEHPAU_AFX_OCC_DIALOG_INFO@@@Z 0048cb9e f mfc42:MFC42.DLL
 0001:0008bba4       ?PostNcDestroy@CView@@MAEXXZ 0048cba4 f mfc42:MFC42.DLL
 0001:0008bbaa       ?PreTranslateMessage@CFormView@@MAEHPAUtagMSG@@@Z 0048cbaa f mfc42:MFC42.DLL
 0001:0008bbb0       ?GetScrollBarCtrl@CView@@UBEPAVCScrollBar@@H@Z 0048cbb0 f mfc42:MFC42.DLL
 0001:0008bbb6       ?CalcWindowRect@CScrollView@@UAEXPAUtagRECT@@I@Z 0048cbb6 f mfc42:MFC42.DLL
 0001:0008bbbc       ?PreCreateWindow@CView@@MAEHAAUtagCREATESTRUCTA@@@Z 0048cbbc f mfc42:MFC42.DLL
 0001:0008bbc2       ?Create@CFormView@@MAEHPBD0KABUtagRECT@@PAVCWnd@@IPAUCCreateContext@@@Z 0048cbc2 f mfc42:MFC42.DLL
 0001:0008bbc8       ?OnCmdMsg@CView@@MAEHIHPAXPAUAFX_CMDHANDLERINFO@@@Z 0048cbc8 f mfc42:MFC42.DLL
 0001:0008bbce       ??0CFormView@@IAE@I@Z      0048cbce f mfc42:MFC42.DLL
 0001:0008bbd4       ??1CScrollView@@UAE@XZ     0048cbd4 f mfc42:MFC42.DLL
 0001:0008bbda       ?GetDlgItem@CWnd@@QBEPAV1@H@Z 0048cbda f mfc42:MFC42.DLL
 0001:0008bbe0       ??0COleVariant@@QAE@ABUtagVARIANT@@@Z 0048cbe0 f mfc42:MFC42.DLL
 0001:0008bbe6       ?AfxVariantInit@@YGXPAUtagVARIANT@@@Z 0048cbe6 f mfc42:MFC42.DLL
 0001:0008bbec       ?SetWindowTextA@CWnd@@QAEXPBD@Z 0048cbec f mfc42:MFC42.DLL
 0001:0008bbf2       ??H@YG?AVCString@@ABV0@PBD@Z 0048cbf2 f mfc42:MFC42.DLL
 0001:0008bbf8       ?OnInitialUpdate@CFormView@@UAEXXZ 0048cbf8 f mfc42:MFC42.DLL
 0001:0008bbfe       ?FromHandle@CWnd@@SGPAV1@PAUHWND__@@@Z 0048cbfe f mfc42:MFC42.DLL
 0001:0008bc04       ?SetWindowPos@CWnd@@QAEHPBV1@HHHHI@Z 0048cc04 f mfc42:MFC42.DLL
 0001:0008bc0a       ?OnSize@CScrollView@@QAEXIHH@Z 0048cc0a f mfc42:MFC42.DLL
 0001:0008bc10       ?Clear@COleVariant@@QAEXXZ 0048cc10 f mfc42:MFC42.DLL
 0001:0008bc16       ?ChangeType@COleVariant@@QAEXGPAUtagVARIANT@@@Z 0048cc16 f mfc42:MFC42.DLL
 0001:0008bc1c       ?GetBuffer@CString@@QAEPADH@Z 0048cc1c f mfc42:MFC42.DLL
 0001:0008bc22       ??0CString@@QAE@PBG@Z      0048cc22 f mfc42:MFC42.DLL
 0001:0008bc28       ??4COleVariant@@QAEABV0@QBD@Z 0048cc28 f mfc42:MFC42.DLL
 0001:0008bc2e       ??4COleVariant@@QAEABV0@J@Z 0048cc2e f mfc42:MFC42.DLL
 0001:0008bc34       ??4COleVariant@@QAEABV0@N@Z 0048cc34 f mfc42:MFC42.DLL
 0001:0008bc3a       ?DDX_Radio@@YGXPAVCDataExchange@@HAAH@Z 0048cc3a f mfc42:MFC42.DLL
 0001:0008bc40       ?OnContextHelp@CFrameWnd@@QAEXXZ 0048cc40 f mfc42:MFC42.DLL
 0001:0008bc46       ?OnHelp@CFrameWnd@@IAEXXZ  0048cc46 f mfc42:MFC42.DLL
 0001:0008bc4c       ?OnHelpUsing@CWnd@@QAEXXZ  0048cc4c f mfc42:MFC42.DLL
 0001:0008bc52       ?OnHelpIndex@CWnd@@QAEXXZ  0048cc52 f mfc42:MFC42.DLL
 0001:0008bc58       ?GetWindowMenuPopup@CMDIFrameWnd@@UAEPAUHMENU__@@PAU2@@Z 0048cc58 f mfc42:MFC42.DLL
 0001:0008bc5e       ?DelayUpdateFrameMenu@CMDIFrameWnd@@UAEXPAUHMENU__@@@Z 0048cc5e f mfc42:MFC42.DLL
 0001:0008bc64       ?OnUpdateFrameMenu@CMDIFrameWnd@@UAEXPAUHMENU__@@@Z 0048cc64 f mfc42:MFC42.DLL
 0001:0008bc6a       ?OnUpdateFrameTitle@CMDIFrameWnd@@UAEXH@Z 0048cc6a f mfc42:MFC42.DLL
 0001:0008bc70       ?OnCreateClient@CMDIFrameWnd@@UAEHPAUtagCREATESTRUCTA@@PAUCCreateContext@@@Z 0048cc70 f mfc42:MFC42.DLL
 0001:0008bc76       ?GetMessageBar@CFrameWnd@@UAEPAVCWnd@@XZ 0048cc76 f mfc42:MFC42.DLL
 0001:0008bc7c       ?ActivateFrame@CFrameWnd@@UAEXH@Z 0048cc7c f mfc42:MFC42.DLL
 0001:0008bc82       ?GetActiveFrame@CMDIFrameWnd@@UAEPAVCFrameWnd@@XZ 0048cc82 f mfc42:MFC42.DLL
 0001:0008bc88       ?LoadFrame@CMDIFrameWnd@@UAEHIKPAVCWnd@@PAUCCreateContext@@@Z 0048cc88 f mfc42:MFC42.DLL
 0001:0008bc8e       ?DefWindowProcA@CMDIFrameWnd@@MAEJIIJ@Z 0048cc8e f mfc42:MFC42.DLL
 0001:0008bc94       ?PreTranslateMessage@CMDIFrameWnd@@UAEHPAUtagMSG@@@Z 0048cc94 f mfc42:MFC42.DLL
 0001:0008bc9a       ?OnCommand@CMDIFrameWnd@@MAEHIJ@Z 0048cc9a f mfc42:MFC42.DLL
 0001:0008bca0       ?PreCreateWindow@CMDIFrameWnd@@UAEHAAUtagCREATESTRUCTA@@@Z 0048cca0 f mfc42:MFC42.DLL
 0001:0008bca6       ?OnCmdMsg@CMDIFrameWnd@@UAEHIHPAXPAUAFX_CMDHANDLERINFO@@@Z 0048cca6 f mfc42:MFC42.DLL
 0001:0008bcac       ??1CDC@@UAE@XZ             0048ccac f mfc42:MFC42.DLL
 0001:0008bcb2       ??1CMapPtrToPtr@@UAE@XZ    0048ccb2 f mfc42:MFC42.DLL
 0001:0008bcb8       ??1CStatusBar@@UAE@XZ      0048ccb8 f mfc42:MFC42.DLL
 0001:0008bcbe       ??1CToolBar@@UAE@XZ        0048ccbe f mfc42:MFC42.DLL
 0001:0008bcc4       ??0CToolBar@@QAE@XZ        0048ccc4 f mfc42:MFC42.DLL
 0001:0008bcca       ??0CStatusBar@@QAE@XZ      0048ccca f mfc42:MFC42.DLL
 0001:0008bcd0       ??0CMapPtrToPtr@@QAE@H@Z   0048ccd0 f mfc42:MFC42.DLL
 0001:0008bcd6       ??0CDC@@QAE@XZ             0048ccd6 f mfc42:MFC42.DLL
 0001:0008bcdc       ??0CMDIFrameWnd@@QAE@XZ    0048ccdc f mfc42:MFC42.DLL
 0001:0008bce2       ?GetRuntimeClass@CBitmap@@UBEPAUCRuntimeClass@@XZ 0048cce2 f mfc42:MFC42.DLL
 0001:0008bce8       ?GetRuntimeClass@CGdiObject@@UBEPAUCRuntimeClass@@XZ 0048cce8 f mfc42:MFC42.DLL
 0001:0008bcee       ?GetRuntimeClass@CObject@@UBEPAUCRuntimeClass@@XZ 0048ccee f mfc42:MFC42.DLL
 0001:0008bcf4       ?DeleteObject@CGdiObject@@QAEHXZ 0048ccf4 f mfc42:MFC42.DLL
 0001:0008bcfa       ??1CClientDC@@UAE@XZ       0048ccfa f mfc42:MFC42.DLL
 0001:0008bd00       ??0CClientDC@@QAE@PAVCWnd@@@Z 0048cd00 f mfc42:MFC42.DLL
 0001:0008bd06       ?EnableDocking@CControlBar@@QAEXK@Z 0048cd06 f mfc42:MFC42.DLL
 0001:0008bd0c       ?SetBarStyle@CControlBar@@QAEXK@Z 0048cd0c f mfc42:MFC42.DLL
 0001:0008bd12       ?Create@CToolBar@@QAEHPAVCWnd@@KI@Z 0048cd12 f mfc42:MFC42.DLL
 0001:0008bd18       ?DockControlBar@CFrameWnd@@QAEXPAVCControlBar@@IPBUtagRECT@@@Z 0048cd18 f mfc42:MFC42.DLL
 0001:0008bd1e       ?EnableDocking@CFrameWnd@@QAEXK@Z 0048cd1e f mfc42:MFC42.DLL
 0001:0008bd24       ?SetIndicators@CStatusBar@@QAEHPBIH@Z 0048cd24 f mfc42:MFC42.DLL
 0001:0008bd2a       ?Create@CStatusBar@@QAEHPAVCWnd@@KI@Z 0048cd2a f mfc42:MFC42.DLL
 0001:0008bd30       ?OnCreate@CFrameWnd@@IAEHPAUtagCREATESTRUCTA@@@Z 0048cd30 f mfc42:MFC42.DLL
 0001:0008bd36       ?Attach@CGdiObject@@QAEHPAX@Z 0048cd36 f mfc42:MFC42.DLL
 0001:0008bd3c       ?AfxFindResourceHandle@@YGPAUHINSTANCE__@@PBD0@Z 0048cd3c f mfc42:MFC42.DLL
 0001:0008bd42       ?Attach@CDC@@QAEHPAUHDC__@@@Z 0048cd42 f mfc42:MFC42.DLL
 0001:0008bd48       ?SelectGdiObject@CDC@@KGPAVCGdiObject@@PAUHDC__@@PAX@Z 0048cd48 f mfc42:MFC42.DLL
 0001:0008bd4e       ?LoadToolBar@CToolBar@@QAEHPBD@Z 0048cd4e f mfc42:MFC42.DLL
 0001:0008bd54       ?RemoveAll@CObList@@QAEXXZ 0048cd54 f mfc42:MFC42.DLL
 0001:0008bd5a       ?MDIGetActive@CMDIFrameWnd@@QBEPAVCMDIChildWnd@@PAH@Z 0048cd5a f mfc42:MFC42.DLL
 0001:0008bd60       ??0CObList@@QAE@H@Z        0048cd60 f mfc42:MFC42.DLL
 0001:0008bd66       ?OnPaletteChanged@CFrameWnd@@IAEXPAVCWnd@@@Z 0048cd66 f mfc42:MFC42.DLL
 0001:0008bd6c       ?SendMessageToDescendants@CWnd@@SGXPAUHWND__@@IIJHH@Z 0048cd6c f mfc42:MFC42.DLL
 0001:0008bd72       ?GetActiveView@CFrameWnd@@QBEPAVCView@@XZ 0048cd72 f mfc42:MFC42.DLL
 0001:0008bd78       ?IsKindOf@CObject@@QBEHPBUCRuntimeClass@@@Z 0048cd78 f mfc42:MFC42.DLL
 0001:0008bd7e       ?OnSetCursor@CFrameWnd@@IAEHPAVCWnd@@II@Z 0048cd7e f mfc42:MFC42.DLL
 0001:0008bd84       ?RemoveTail@CObList@@QAEPAVCObject@@XZ 0048cd84 f mfc42:MFC42.DLL
 0001:0008bd8a       ?OnSize@CMDIFrameWnd@@IAEXIHH@Z 0048cd8a f mfc42:MFC42.DLL
 0001:0008bd90       ??1CListBox@@UAE@XZ        0048cd90 f mfc42:MFC42.DLL
 0001:0008bd96       ?Default@CWnd@@IAEJXZ      0048cd96 f mfc42:MFC42.DLL
 0001:0008bd9c       ??1CButton@@UAE@XZ         0048cd9c f mfc42:MFC42.DLL
 0001:0008bda2       ??1CTreeCtrl@@UAE@XZ       0048cda2 f mfc42:MFC42.DLL
 0001:0008bda8       ??1CPaintDC@@UAE@XZ        0048cda8 f mfc42:MFC42.DLL
 0001:0008bdae       ??0CPaintDC@@QAE@PAVCWnd@@@Z 0048cdae f mfc42:MFC42.DLL
 0001:0008bdb4       ?FromHandle@CDC@@SGPAV1@PAUHDC__@@@Z 0048cdb4 f mfc42:MFC42.DLL
 0001:0008bdba       ?OnEraseBkgnd@CFrameWnd@@IAEHPAVCDC@@@Z 0048cdba f mfc42:MFC42.DLL
 0001:0008bdc0       ?SetPaneText@CStatusBar@@QAEHHPBDH@Z 0048cdc0 f mfc42:MFC42.DLL
 0001:0008bdc6       ?SetPaneInfo@CStatusBar@@QAEXHIIH@Z 0048cdc6 f mfc42:MFC42.DLL
 0001:0008bdcc       ?UpdateAllViews@CDocument@@QAEXPAVCView@@JPAVCObject@@@Z 0048cdcc f mfc42:MFC42.DLL
 0001:0008bdd2       ?Create@CDialog@@QAEHPBDPAVCWnd@@@Z 0048cdd2 f mfc42:MFC42.DLL
 0001:0008bdd8       ?SubclassWindow@CWnd@@QAEHPAUHWND__@@@Z 0048cdd8 f mfc42:MFC42.DLL
 0001:0008bdde       ?CreateClient@CMDIFrameWnd@@UAEHPAUtagCREATESTRUCTA@@PAVCMenu@@@Z 0048cdde f mfc42:MFC42.DLL
 0001:0008bde4       ?OnClose@CFrameWnd@@IAEXXZ 0048cde4 f mfc42:MFC42.DLL
 0001:0008bdea       ?MessageBoxA@CWnd@@QAEHPBD0I@Z 0048cdea f mfc42:MFC42.DLL
 0001:0008bdf0       ??ACMapPtrToPtr@@QAEAAPAXPAX@Z 0048cdf0 f mfc42:MFC42.DLL
 0001:0008bdf6       ?GetPathName@CFileDialog@@QBE?AVCString@@XZ 0048cdf6 f mfc42:MFC42.DLL
 0001:0008bdfc       ?DoModal@CFileDialog@@UAEHXZ 0048cdfc f mfc42:MFC42.DLL
 0001:0008be02       ??0CFileDialog@@QAE@HPBD0K0PAVCWnd@@@Z 0048ce02 f mfc42:MFC42.DLL
 0001:0008be08       ?GetFileName@CFileDialog@@QBE?AVCString@@XZ 0048ce08 f mfc42:MFC42.DLL
 0001:0008be0e       ?OnFilePrintSetup@CWinApp@@IAEXXZ 0048ce0e f mfc42:MFC42.DLL
 0001:0008be14       ?OnFileOpen@CWinApp@@IAEXXZ 0048ce14 f mfc42:MFC42.DLL
 0001:0008be1a       ?OnFileNew@CWinApp@@IAEXXZ 0048ce1a f mfc42:MFC42.DLL
 0001:0008be20       ?WinHelpA@CWinApp@@UAEXKI@Z 0048ce20 f mfc42:MFC42.DLL
 0001:0008be26       ?OnDDECommand@CWinApp@@UAEHPAD@Z 0048ce26 f mfc42:MFC42.DLL
 0001:0008be2c       ?DoWaitCursor@CWinApp@@UAEXH@Z 0048ce2c f mfc42:MFC42.DLL
 0001:0008be32       ?DoMessageBox@CWinApp@@UAEHPBDII@Z 0048ce32 f mfc42:MFC42.DLL
 0001:0008be38       ?SaveAllModified@CWinApp@@UAEHXZ 0048ce38 f mfc42:MFC42.DLL
 0001:0008be3e       ?InitApplication@CWinApp@@UAEHXZ 0048ce3e f mfc42:MFC42.DLL
 0001:0008be44       ?AddToRecentFileList@CWinApp@@UAEXPBD@Z 0048ce44 f mfc42:MFC42.DLL
 0001:0008be4a       ?OpenDocumentFile@CWinApp@@UAEPAVCDocument@@PBD@Z 0048ce4a f mfc42:MFC42.DLL
 0001:0008be50       ?Delete@CWinThread@@UAEXXZ 0048ce50 f mfc42:MFC42.DLL
 0001:0008be56       ?GetMainWnd@CWinThread@@UAEPAVCWnd@@XZ 0048ce56 f mfc42:MFC42.DLL
 0001:0008be5c       ?ProcessMessageFilter@CWinThread@@UAEHHPAUtagMSG@@@Z 0048ce5c f mfc42:MFC42.DLL
 0001:0008be62       ?ProcessWndProcException@CWinApp@@UAEJPAVCException@@PBUtagMSG@@@Z 0048ce62 f mfc42:MFC42.DLL
 0001:0008be68       ?IsIdleMessage@CWinThread@@UAEHPAUtagMSG@@@Z 0048ce68 f mfc42:MFC42.DLL
 0001:0008be6e       ?OnIdle@CWinApp@@UAEHJ@Z   0048ce6e f mfc42:MFC42.DLL
 0001:0008be74       ?PumpMessage@CWinThread@@UAEHXZ 0048ce74 f mfc42:MFC42.DLL
 0001:0008be7a       ?PreTranslateMessage@CWinThread@@UAEHPAUtagMSG@@@Z 0048ce7a f mfc42:MFC42.DLL
 0001:0008be80       ?Run@CWinApp@@UAEHXZ       0048ce80 f mfc42:MFC42.DLL
 0001:0008be86       ?OnFinalRelease@CCmdTarget@@UAEXXZ 0048ce86 f mfc42:MFC42.DLL
 0001:0008be8c       ?OnCmdMsg@CCmdTarget@@UAEHIHPAXPAUAFX_CMDHANDLERINFO@@@Z 0048ce8c f mfc42:MFC42.DLL
 0001:0008be92       ?GetRuntimeClass@CWinApp@@UBEPAUCRuntimeClass@@XZ 0048ce92 f mfc42:MFC42.DLL
 0001:0008be98       ??1CWinApp@@UAE@XZ         0048ce98 f mfc42:MFC42.DLL
 0001:0008be9e       ??1CObList@@UAE@XZ         0048ce9e f mfc42:MFC42.DLL
 0001:0008bea4       ??0COleTemplateServer@@QAE@XZ 0048cea4 f mfc42:MFC42.DLL
 0001:0008beaa       ??0CWinApp@@QAE@PBD@Z      0048ceaa f mfc42:MFC42.DLL
 0001:0008beb0       ??1COleObjectFactory@@UAE@XZ 0048ceb0 f mfc42:MFC42.DLL
 0001:0008beb6       ??1CCommandLineInfo@@UAE@XZ 0048ceb6 f mfc42:MFC42.DLL
 0001:0008bebc       ?ShowWindow@CWnd@@QAEHH@Z  0048cebc f mfc42:MFC42.DLL
 0001:0008bec2       ?DragAcceptFiles@CWnd@@QAEXH@Z 0048cec2 f mfc42:MFC42.DLL
 0001:0008bec8       ?UpdateRegistryAll@COleObjectFactory@@SGHH@Z 0048cec8 f mfc42:MFC42.DLL
 0001:0008bece       ?UpdateRegistry@COleTemplateServer@@QAEXW4OLE_APPTYPE@@PAPBD1@Z 0048cece f mfc42:MFC42.DLL
 0001:0008bed4       ?RunAutomated@CWinApp@@QAEHXZ 0048ced4 f mfc42:MFC42.DLL
 0001:0008beda       ?RunEmbedded@CWinApp@@QAEHXZ 0048ceda f mfc42:MFC42.DLL
 0001:0008bee0       ?RegisterShellFileTypes@CWinApp@@IAEXH@Z 0048cee0 f mfc42:MFC42.DLL
 0001:0008bee6       ?EnableShellOpen@CWinApp@@IAEXXZ 0048cee6 f mfc42:MFC42.DLL
 0001:0008beec       ??4CString@@QAEABV0@ABV0@@Z 0048ceec f mfc42:MFC42.DLL
 0001:0008bef2       ?RegisterAll@COleObjectFactory@@SGHXZ 0048cef2 f mfc42:MFC42.DLL
 0001:0008bef8       ?ConnectTemplate@COleTemplateServer@@QAEXABU_GUID@@PAVCDocTemplate@@H@Z 0048cef8 f mfc42:MFC42.DLL
 0001:0008befe       ?AddDocTemplate@CWinApp@@QAEXPAVCDocTemplate@@@Z 0048cefe f mfc42:MFC42.DLL
 0001:0008bf04       ??0CMultiDocTemplate@@QAE@IPAUCRuntimeClass@@00@Z 0048cf04 f mfc42:MFC42.DLL
 0001:0008bf0a       ?LoadStdProfileSettings@CWinApp@@IAEXI@Z 0048cf0a f mfc42:MFC42.DLL
 0001:0008bf10       ?Enable3dControls@CWinApp@@IAEHXZ 0048cf10 f mfc42:MFC42.DLL
 0001:0008bf16       ?AfxMessageBox@@YGHIII@Z   0048cf16 f mfc42:MFC42.DLL
 0001:0008bf1c       ?AfxOleInit@@YGHXZ         0048cf1c f mfc42:MFC42.DLL
 0001:0008bf22       ?ParseCommandLine@CWinApp@@QAEXAAVCCommandLineInfo@@@Z 0048cf22 f mfc42:MFC42.DLL
 0001:0008bf28       ??0CCommandLineInfo@@QAE@XZ 0048cf28 f mfc42:MFC42.DLL
 0001:0008bf2e       ?AfxEnableControlContainer@@YAXPAVCOccManager@@@Z 0048cf2e f mfc42:MFC42.DLL
 0001:0008bf34       ?AddHead@CObList@@QAEPAU__POSITION@@PAVCObject@@@Z 0048cf34 f mfc42:MFC42.DLL
 0001:0008bf3a       ?GetNextDocTemplate@CWinApp@@QBEPAVCDocTemplate@@AAPAU__POSITION@@@Z 0048cf3a f mfc42:MFC42.DLL
 0001:0008bf40       ?GetFirstDocTemplatePosition@CWinApp@@QBEPAU__POSITION@@XZ 0048cf40 f mfc42:MFC42.DLL
 0001:0008bf46       ??1CStdioFile@@UAE@XZ      0048cf46 f mfc42:MFC42.DLL
 0001:0008bf4c       ?Close@CStdioFile@@UAEXXZ  0048cf4c f mfc42:MFC42.DLL
 0001:0008bf52       ?Open@CStdioFile@@UAEHPBDIPAVCFileException@@@Z 0048cf52 f mfc42:MFC42.DLL
 0001:0008bf58       ??0CStdioFile@@QAE@XZ      0048cf58 f mfc42:MFC42.DLL
 0001:0008bf5e       ??1CPtrList@@UAE@XZ        0048cf5e f mfc42:MFC42.DLL
 0001:0008bf64       ?OnIdle@CDocument@@UAEXXZ  0048cf64 f mfc42:MFC42.DLL
 0001:0008bf6a       ?GetDefaultAccelerator@CDocument@@UAEPAUHACCEL__@@XZ 0048cf6a f mfc42:MFC42.DLL
 0001:0008bf70       ?GetDefaultMenu@CDocument@@UAEPAUHMENU__@@XZ 0048cf70 f mfc42:MFC42.DLL
 0001:0008bf76       ?UpdateFrameCounts@CDocument@@UAEXXZ 0048cf76 f mfc42:MFC42.DLL
 0001:0008bf7c       ?DoFileSave@CDocument@@UAEHXZ 0048cf7c f mfc42:MFC42.DLL
 0001:0008bf82       ?DoSave@CDocument@@UAEHPBDH@Z 0048cf82 f mfc42:MFC42.DLL
 0001:0008bf88       ?PreCloseFrame@CDocument@@UAEXPAVCFrameWnd@@@Z 0048cf88 f mfc42:MFC42.DLL
 0001:0008bf8e       ?SaveModified@CDocument@@UAEHXZ 0048cf8e f mfc42:MFC42.DLL
 0001:0008bf94       ?CanCloseFrame@CDocument@@UAEHPAVCFrameWnd@@@Z 0048cf94 f mfc42:MFC42.DLL
 0001:0008bf9a       ?ReleaseFile@CDocument@@UAEXPAVCFile@@H@Z 0048cf9a f mfc42:MFC42.DLL
 0001:0008bfa0       ?GetFile@CDocument@@UAEPAVCFile@@PBDIPAVCFileException@@@Z 0048cfa0 f mfc42:MFC42.DLL
 0001:0008bfa6       ?ReportSaveLoadException@CDocument@@UAEXPBDPAVCException@@HI@Z 0048cfa6 f mfc42:MFC42.DLL
 0001:0008bfac       ?OnCloseDocument@CDocument@@UAEXXZ 0048cfac f mfc42:MFC42.DLL
 0001:0008bfb2       ?OnSaveDocument@CDocument@@UAEHPBD@Z 0048cfb2 f mfc42:MFC42.DLL
 0001:0008bfb8       ?OnOpenDocument@CDocument@@UAEHPBD@Z 0048cfb8 f mfc42:MFC42.DLL
 0001:0008bfbe       ?DeleteContents@CDocument@@UAEXXZ 0048cfbe f mfc42:MFC42.DLL
 0001:0008bfc4       ?OnChangedViewList@CDocument@@UAEXXZ 0048cfc4 f mfc42:MFC42.DLL
 0001:0008bfca       ?GetNextView@CDocument@@UBEPAVCView@@AAPAU__POSITION@@@Z 0048cfca f mfc42:MFC42.DLL
 0001:0008bfd0       ?GetFirstViewPosition@CDocument@@UBEPAU__POSITION@@XZ 0048cfd0 f mfc42:MFC42.DLL
 0001:0008bfd6       ?SetPathName@CDocument@@UAEXPBDH@Z 0048cfd6 f mfc42:MFC42.DLL
 0001:0008bfdc       ?SetTitle@CDocument@@UAEXPBD@Z 0048cfdc f mfc42:MFC42.DLL
 0001:0008bfe2       ?OnFinalRelease@CDocument@@UAEXXZ 0048cfe2 f mfc42:MFC42.DLL
 0001:0008bfe8       ?OnCmdMsg@CDocument@@UAEHIHPAXPAUAFX_CMDHANDLERINFO@@@Z 0048cfe8 f mfc42:MFC42.DLL
 0001:0008bfee       ??1CDocument@@UAE@XZ       0048cfee f mfc42:MFC42.DLL
 0001:0008bff4       ?AfxOleLockApp@@YGXXZ      0048cff4 f mfc42:MFC42.DLL
 0001:0008bffa       ?EnableAutomation@CCmdTarget@@QAEXXZ 0048cffa f mfc42:MFC42.DLL
 0001:0008c000       ??0CDocument@@QAE@XZ       0048d000 f mfc42:MFC42.DLL
 0001:0008c006       ?AfxOleUnlockApp@@YGXXZ    0048d006 f mfc42:MFC42.DLL
 0001:0008c00c       ?OnNewDocument@CDocument@@UAEHXZ 0048d00c f mfc42:MFC42.DLL
 0001:0008c012       ?Flush@CArchive@@QAEXXZ    0048d012 f mfc42:MFC42.DLL
 0001:0008c018       ?CharToItem@CListBox@@UAEHII@Z 0048d018 f mfc42:MFC42.DLL
 0001:0008c01e       ?VKeyToItem@CListBox@@UAEHII@Z 0048d01e f mfc42:MFC42.DLL
 0001:0008c024       ?DeleteItem@CListBox@@UAEXPAUtagDELETEITEMSTRUCT@@@Z 0048d024 f mfc42:MFC42.DLL
 0001:0008c02a       ?CompareItem@CListBox@@UAEHPAUtagCOMPAREITEMSTRUCT@@@Z 0048d02a f mfc42:MFC42.DLL
 0001:0008c030       ?MeasureItem@CListBox@@UAEXPAUtagMEASUREITEMSTRUCT@@@Z 0048d030 f mfc42:MFC42.DLL
 0001:0008c036       ?DrawItem@CListBox@@UAEXPAUtagDRAWITEMSTRUCT@@@Z 0048d036 f mfc42:MFC42.DLL
 0001:0008c03c       ?OnChildNotify@CListBox@@MAEHIIJPAJ@Z 0048d03c f mfc42:MFC42.DLL
 0001:0008c042       ?PreTranslateMessage@CWnd@@UAEHPAUtagMSG@@@Z 0048d042 f mfc42:MFC42.DLL
 0001:0008c048       ?GetMessageMap@CWnd@@MBEPBUAFX_MSGMAP@@XZ 0048d048 f mfc42:MFC42.DLL
 0001:0008c04e       ?GetRuntimeClass@CListBox@@UBEPAUCRuntimeClass@@XZ 0048d04e f mfc42:MFC42.DLL
 0001:0008c054       ??1CWnd@@UAE@XZ            0048d054 f mfc42:MFC42.DLL
 0001:0008c05a       ??0CWnd@@QAE@XZ            0048d05a f mfc42:MFC42.DLL
 0001:0008c060       ?DDX_LBString@@YGXPAVCDataExchange@@HAAVCString@@@Z 0048d060 f mfc42:MFC42.DLL
 0001:0008c066       ?DDX_Control@@YGXPAVCDataExchange@@HAAVCWnd@@@Z 0048d066 f mfc42:MFC42.DLL
 0001:0008c06c       ??0AFX_CLASSINIT@@QAE@PAUCRuntimeClass@@@Z 0048d06c f mfc42:MFC42.DLL
 0001:0008c072       ?ReadObject@CArchive@@QAEPAVCObject@@PBUCRuntimeClass@@@Z 0048d072 f mfc42:MFC42.DLL
 0001:0008c078       ??1CFile@@UAE@XZ           0048d078 f mfc42:MFC42.DLL
 0001:0008c07e       ?Close@CFile@@UAEXXZ       0048d07e f mfc42:MFC42.DLL
 0001:0008c084       ?Open@CFile@@UAEHPBDIPAVCFileException@@@Z 0048d084 f mfc42:MFC42.DLL
 0001:0008c08a       ??0CFile@@QAE@XZ           0048d08a f mfc42:MFC42.DLL
 0001:0008c090       ??0CPtrList@@QAE@H@Z       0048d090 f mfc42:MFC42.DLL
 0001:0008c096       ??1CStringList@@UAE@XZ     0048d096 f mfc42:MFC42.DLL
 0001:0008c09c       ??0CStringList@@QAE@H@Z    0048d09c f mfc42:MFC42.DLL
 0001:0008c0a2       ??1CComboBox@@UAE@XZ       0048d0a2 f mfc42:MFC42.DLL
 0001:0008c0a8       ?DeleteItem@CComboBox@@UAEXPAUtagDELETEITEMSTRUCT@@@Z 0048d0a8 f mfc42:MFC42.DLL
 0001:0008c0ae       ?CompareItem@CComboBox@@UAEHPAUtagCOMPAREITEMSTRUCT@@@Z 0048d0ae f mfc42:MFC42.DLL
 0001:0008c0b4       ?MeasureItem@CComboBox@@UAEXPAUtagMEASUREITEMSTRUCT@@@Z 0048d0b4 f mfc42:MFC42.DLL
 0001:0008c0ba       ?DrawItem@CComboBox@@UAEXPAUtagDRAWITEMSTRUCT@@@Z 0048d0ba f mfc42:MFC42.DLL
 0001:0008c0c0       ?OnChildNotify@CComboBox@@MAEHIIJPAJ@Z 0048d0c0 f mfc42:MFC42.DLL
 0001:0008c0c6       ?GetRuntimeClass@CComboBox@@UBEPAUCRuntimeClass@@XZ 0048d0c6 f mfc42:MFC42.DLL
 0001:0008c0cc       ?GetMessageMap@CTreeCtrl@@MBEPBUAFX_MSGMAP@@XZ 0048d0cc f mfc42:MFC42.DLL
 0001:0008c0d2       ?GetRuntimeClass@CTreeCtrl@@UBEPAUCRuntimeClass@@XZ 0048d0d2 f mfc42:MFC42.DLL
 0001:0008c0d8       ?DDX_CBIndex@@YGXPAVCDataExchange@@HAAH@Z 0048d0d8 f mfc42:MFC42.DLL
 0001:0008c0de       ?Attach@CImageList@@QAEHPAU_IMAGELIST@@@Z 0048d0de f mfc42:MFC42.DLL
 0001:0008c0e4       ??0CImageList@@QAE@XZ      0048d0e4 f mfc42:MFC42.DLL
 0001:0008c0ea       ?FromHandle@CImageList@@SGPAV1@PAU_IMAGELIST@@@Z 0048d0ea f mfc42:MFC42.DLL
 0001:0008c0f0       ?EndWaitCursor@CCmdTarget@@QAEXXZ 0048d0f0 f mfc42:MFC42.DLL
 0001:0008c0f6       ?BeginWaitCursor@CCmdTarget@@QAEXXZ 0048d0f6 f mfc42:MFC42.DLL
 0001:0008c0fc       ?OnCreate@CFormView@@IAEHPAUtagCREATESTRUCTA@@@Z 0048d0fc f mfc42:MFC42.DLL
 0001:0008c102       ?HitTest@CTreeCtrl@@QBEPAU_TREEITEM@@VCPoint@@PAI@Z 0048d102 f mfc42:MFC42.DLL
 0001:0008c108       ?SetItem@CTreeCtrl@@QAEHPAU_TREEITEM@@IPBDHHIIJ@Z 0048d108 f mfc42:MFC42.DLL
 0001:0008c10e       ?OnDestroy@CView@@IAEXXZ   0048d10e f mfc42:MFC42.DLL
 0001:0008c114       ?RemoveKey@CMapPtrToPtr@@QAEHPAX@Z 0048d114 f mfc42:MFC42.DLL
 0001:0008c11a       ?FreeDataChain@CPlex@@QAEXXZ 0048d11a f mfc42:MFC42.DLL
 0001:0008c120       ?DDX_Text@@YGXPAVCDataExchange@@HAAVCString@@@Z 0048d120 f mfc42:MFC42.DLL
 0001:0008c126       ?DDX_Text@@YGXPAVCDataExchange@@HAAH@Z 0048d126 f mfc42:MFC42.DLL
 0001:0008c12c       ?DDX_Text@@YGXPAVCDataExchange@@HAAN@Z 0048d12c f mfc42:MFC42.DLL
 0001:0008c132       ?Fail@CDataExchange@@QAEXXZ 0048d132 f mfc42:MFC42.DLL
 0001:0008c138       ?DDX_CBString@@YGXPAVCDataExchange@@HAAVCString@@@Z 0048d138 f mfc42:MFC42.DLL
 0001:0008c13e       ?GetWindowTextA@CWnd@@QBEXAAVCString@@@Z 0048d13e f mfc42:MFC42.DLL
 0001:0008c144       ?SetStatusText@CControlBar@@UAEHH@Z 0048d144 f mfc42:MFC42.DLL
 0001:0008c14a       ?DoPaint@CControlBar@@UAEXPAVCDC@@@Z 0048d14a f mfc42:MFC42.DLL
 0001:0008c150       ?OnBarStyleChange@CControlBar@@UAEXKK@Z 0048d150 f mfc42:MFC42.DLL
 0001:0008c156       ?IsDockBar@CControlBar@@UBEHXZ 0048d156 f mfc42:MFC42.DLL
 0001:0008c15c       ?RecalcDelayShow@CControlBar@@UAEKPAUAFX_SIZEPARENTPARAMS@@@Z 0048d15c f mfc42:MFC42.DLL
 0001:0008c162       ?IsVisible@CControlBar@@UBEHXZ 0048d162 f mfc42:MFC42.DLL
 0001:0008c168       ?DelayShow@CControlBar@@UAEXH@Z 0048d168 f mfc42:MFC42.DLL
 0001:0008c16e       ?OnUpdateCmdUI@CDialogBar@@UAEXPAVCFrameWnd@@H@Z 0048d16e f mfc42:MFC42.DLL
 0001:0008c174       ?CalcDynamicLayout@CControlBar@@UAE?AVCSize@@HK@Z 0048d174 f mfc42:MFC42.DLL
 0001:0008c17a       ?CalcFixedLayout@CDialogBar@@UAE?AVCSize@@HH@Z 0048d17a f mfc42:MFC42.DLL
 0001:0008c180       ?SetOccDialogInfo@CDialogBar@@MAEHPAU_AFX_OCC_DIALOG_INFO@@@Z 0048d180 f mfc42:MFC42.DLL
 0001:0008c186       ?PostNcDestroy@CControlBar@@UAEXXZ 0048d186 f mfc42:MFC42.DLL
 0001:0008c18c       ?WindowProc@CControlBar@@UAEJIIJ@Z 0048d18c f mfc42:MFC42.DLL
 0001:0008c192       ?PreTranslateMessage@CControlBar@@UAEHPAUtagMSG@@@Z 0048d192 f mfc42:MFC42.DLL
 0001:0008c198       ?PreCreateWindow@CControlBar@@UAEHAAUtagCREATESTRUCTA@@@Z 0048d198 f mfc42:MFC42.DLL
 0001:0008c19e       ?DestroyWindow@CControlBar@@UAEHXZ 0048d19e f mfc42:MFC42.DLL
 0001:0008c1a4       ?GetRuntimeClass@CDialogBar@@UBEPAUCRuntimeClass@@XZ 0048d1a4 f mfc42:MFC42.DLL
 0001:0008c1aa       ??1CDialogBar@@UAE@XZ      0048d1aa f mfc42:MFC42.DLL
 0001:0008c1b0       ??0CDialogBar@@QAE@XZ      0048d1b0 f mfc42:MFC42.DLL
 0001:0008c1b6       ??0COleVariant@@QAE@ABV0@@Z 0048d1b6 f mfc42:MFC42.DLL
 0001:0008c1bc       ?Create@CDialogBar@@QAEHPAVCWnd@@PBDII@Z 0048d1bc f mfc42:MFC42.DLL
 0001:0008c1c2       ?EnableWindow@CWnd@@QAEHH@Z 0048d1c2 f mfc42:MFC42.DLL
 0001:0008c1c8       ?OnActivateFrame@CView@@MAEXIPAVCFrameWnd@@@Z 0048d1c8 f mfc42:MFC42.DLL
 0001:0008c1ce       ?OnPrepareDC@CView@@UAEXPAVCDC@@PAUCPrintInfo@@@Z 0048d1ce f mfc42:MFC42.DLL
 0001:0008c1d4       ?OnScrollBy@CView@@UAEHVCSize@@H@Z 0048d1d4 f mfc42:MFC42.DLL
 0001:0008c1da       ?CalcWindowRect@CView@@UAEXPAUtagRECT@@I@Z 0048d1da f mfc42:MFC42.DLL
 0001:0008c1e0       ??1CView@@UAE@XZ           0048d1e0 f mfc42:MFC42.DLL
 0001:0008c1e6       ??0CView@@IAE@XZ           0048d1e6 f mfc42:MFC42.DLL
 0001:0008c1ec       ?SelectPalette@CDC@@QAEPAVCPalette@@PAV2@H@Z 0048d1ec f mfc42:MFC42.DLL
 0001:0008c1f2       ?SetScrollPos@CWnd@@QAEHHHH@Z 0048d1f2 f mfc42:MFC42.DLL
 0001:0008c1f8       ?SetScrollRange@CWnd@@QAEXHHHH@Z 0048d1f8 f mfc42:MFC42.DLL
 0001:0008c1fe       ?OnCreate@CView@@IAEHPAUtagCREATESTRUCTA@@@Z 0048d1fe f mfc42:MFC42.DLL
 0001:0008c204       ?OnInitialUpdate@CView@@UAEXXZ 0048d204 f mfc42:MFC42.DLL
 0001:0008c20a       ?GetScrollPos@CWnd@@QBEHH@Z 0048d20a f mfc42:MFC42.DLL
 0001:0008c210       ?OnHScroll@CWnd@@IAEXIIPAVCScrollBar@@@Z 0048d210 f mfc42:MFC42.DLL
 0001:0008c216       ?OnVScroll@CWnd@@IAEXIIPAVCScrollBar@@@Z 0048d216 f mfc42:MFC42.DLL
 0001:0008c21c       ?OnScroll@CView@@UAEHIIH@Z 0048d21c f mfc42:MFC42.DLL
 0001:0008c222       ??1CSliderCtrl@@UAE@XZ     0048d222 f mfc42:MFC42.DLL
 0001:0008c228       ?GetRuntimeClass@CPalette@@UBEPAUCRuntimeClass@@XZ 0048d228 f mfc42:MFC42.DLL
 0001:0008c22e       ?SelectObject@CDC@@QAEPAVCBrush@@PAV2@@Z 0048d22e f mfc42:MFC42.DLL
 0001:0008c234       ??0CBrush@@QAE@K@Z         0048d234 f mfc42:MFC42.DLL
 0001:0008c23a       ?GetRuntimeClass@CBrush@@UBEPAUCRuntimeClass@@XZ 0048d23a f mfc42:MFC42.DLL
 0001:0008c240       ?WriteString@CStdioFile@@UAEXPBD@Z 0048d240 f mfc42:MFC42.DLL
 0001:0008c246       ??0CStdioFile@@QAE@PBDI@Z  0048d246 f mfc42:MFC42.DLL
 0001:0008c24c       ?AddTail@CPtrList@@QAEPAU__POSITION@@PAX@Z 0048d24c f mfc42:MFC42.DLL
 0001:0008c252       ?OnInitDialog@CPropertySheet@@UAEHXZ 0048d252 f mfc42:MFC42.DLL
 0001:0008c258       ?BuildPropPageArray@CPropertySheet@@UAEXXZ 0048d258 f mfc42:MFC42.DLL
 0001:0008c25e       ?DoModal@CPropertySheet@@UAEHXZ 0048d25e f mfc42:MFC42.DLL
 0001:0008c264       ?PreTranslateMessage@CPropertySheet@@UAEHPAUtagMSG@@@Z 0048d264 f mfc42:MFC42.DLL
 0001:0008c26a       ?OnCommand@CPropertySheet@@UAEHIJ@Z 0048d26a f mfc42:MFC42.DLL
 0001:0008c270       ?ContinueModal@CPropertySheet@@UAEHXZ 0048d270 f mfc42:MFC42.DLL
 0001:0008c276       ?OnCmdMsg@CPropertySheet@@UAEHIHPAXPAUAFX_CMDHANDLERINFO@@@Z 0048d276 f mfc42:MFC42.DLL
 0001:0008c27c       ??1CPropertySheet@@UAE@XZ  0048d27c f mfc42:MFC42.DLL
 0001:0008c282       ??0CPropertySheet@@QAE@IPAVCWnd@@I@Z 0048d282 f mfc42:MFC42.DLL
 0001:0008c288       ??0CPropertySheet@@QAE@PBDPAVCWnd@@I@Z 0048d288 f mfc42:MFC42.DLL
 0001:0008c28e       ?MakeLower@CString@@QAEXXZ 0048d28e f mfc42:MFC42.DLL
 0001:0008c294       ??0CString@@QAE@PBD@Z      0048d294 f mfc42:MFC42.DLL
 0001:0008c29a       ?ReadCount@CArchive@@QAEKXZ 0048d29a f mfc42:MFC42.DLL
 0001:0008c2a0       ?WriteCount@CArchive@@QAEXK@Z 0048d2a0 f mfc42:MFC42.DLL
 0001:0008c2a6       ?Read@CArchive@@QAEIPAXI@Z 0048d2a6 f mfc42:MFC42.DLL
 0001:0008c2ac       ?Write@CArchive@@QAEXPBXI@Z 0048d2ac f mfc42:MFC42.DLL
 0001:0008c2b2       ?Create@CPlex@@SGPAU1@AAPAU1@II@Z 0048d2b2 f mfc42:MFC42.DLL
 0001:0008c2b8       ?OnWizardFinish@CPropertyPage@@UAEHXZ 0048d2b8 f mfc42:MFC42.DLL
 0001:0008c2be       ?OnWizardNext@CPropertyPage@@UAEJXZ 0048d2be f mfc42:MFC42.DLL
 0001:0008c2c4       ?OnWizardBack@CPropertyPage@@UAEJXZ 0048d2c4 f mfc42:MFC42.DLL
 0001:0008c2ca       ?OnQueryCancel@CPropertyPage@@UAEHXZ 0048d2ca f mfc42:MFC42.DLL
 0001:0008c2d0       ?OnKillActive@CPropertyPage@@UAEHXZ 0048d2d0 f mfc42:MFC42.DLL
 0001:0008c2d6       ?OnSetActive@CPropertyPage@@UAEHXZ 0048d2d6 f mfc42:MFC42.DLL
 0001:0008c2dc       ?OnReset@CPropertyPage@@UAEXXZ 0048d2dc f mfc42:MFC42.DLL
 0001:0008c2e2       ?OnApply@CPropertyPage@@UAEHXZ 0048d2e2 f mfc42:MFC42.DLL
 0001:0008c2e8       ?OnCancel@CPropertyPage@@UAEXXZ 0048d2e8 f mfc42:MFC42.DLL
 0001:0008c2ee       ?OnOK@CPropertyPage@@UAEXXZ 0048d2ee f mfc42:MFC42.DLL
 0001:0008c2f4       ?PreTranslateMessage@CPropertyPage@@MAEHPAUtagMSG@@@Z 0048d2f4 f mfc42:MFC42.DLL
 0001:0008c2fa       ?OnNotify@CPropertyPage@@MAEHIJPAJ@Z 0048d2fa f mfc42:MFC42.DLL
 0001:0008c300       ??1CPropertyPage@@UAE@XZ   0048d300 f mfc42:MFC42.DLL
 0001:0008c306       ??0CPropertyPage@@QAE@II@Z 0048d306 f mfc42:MFC42.DLL
 0001:0008c30c       ?GetRuntimeClass@CMenu@@UBEPAUCRuntimeClass@@XZ 0048d30c f mfc42:MFC42.DLL
 0001:0008c312       ?MeasureItem@CMenu@@UAEXPAUtagMEASUREITEMSTRUCT@@@Z 0048d312 f mfc42:MFC42.DLL
 0001:0008c318       ?DrawItem@CMenu@@UAEXPAUtagDRAWITEMSTRUCT@@@Z 0048d318 f mfc42:MFC42.DLL
 0001:0008c31e       ?DestroyMenu@CMenu@@QAEHXZ 0048d31e f mfc42:MFC42.DLL
 0001:0008c324       ?Attach@CMenu@@QAEHPAUHMENU__@@@Z 0048d324 f mfc42:MFC42.DLL
 0001:0008c32a       ?Detach@CMenu@@QAEPAUHMENU__@@XZ 0048d32a f mfc42:MFC42.DLL
 0001:0008c330       ?DrawItem@CButton@@UAEXPAUtagDRAWITEMSTRUCT@@@Z 0048d330 f mfc42:MFC42.DLL
 0001:0008c336       ?OnChildNotify@CButton@@MAEHIIJPAJ@Z 0048d336 f mfc42:MFC42.DLL
 0001:0008c33c       ?GetRuntimeClass@CButton@@UBEPAUCRuntimeClass@@XZ 0048d33c f mfc42:MFC42.DLL
 0001:0008c342       ??YCString@@QAEABV0@PBD@Z  0048d342 f mfc42:MFC42.DLL
 0001:0008c348       ?GetText@CListBox@@QBEXHAAVCString@@@Z 0048d348 f mfc42:MFC42.DLL
 0001:0008c34e       ?SetDlgItemTextA@CWnd@@QAEXHPBD@Z 0048d34e f mfc42:MFC42.DLL
 0001:0008c354       ?TrackPopupMenu@CMenu@@QAEHIHHPAVCWnd@@PBUtagRECT@@@Z 0048d354 f mfc42:MFC42.DLL
 0001:0008c35a       ?FromHandle@CMenu@@SGPAV1@PAUHMENU__@@@Z 0048d35a f mfc42:MFC42.DLL
 0001:0008c360       ?SetFocus@CWnd@@QAEPAV1@XZ 0048d360 f mfc42:MFC42.DLL
 0001:0008c366       ?Create@CPropertySheet@@QAEHPAVCWnd@@KK@Z 0048d366 f mfc42:MFC42.DLL
 0001:0008c36c       ?AddPage@CPropertySheet@@QAEXPAVCPropertyPage@@@Z 0048d36c f mfc42:MFC42.DLL
 0001:0008c372       ?OnTypeChange@CFileDialog@@MAEXXZ 0048d372 f mfc42:MFC42.DLL
 0001:0008c378       ?OnFolderChange@CFileDialog@@MAEXXZ 0048d378 f mfc42:MFC42.DLL
 0001:0008c37e       ?OnFileNameChange@CFileDialog@@MAEXXZ 0048d37e f mfc42:MFC42.DLL
 0001:0008c384       ?OnInitDone@CFileDialog@@MAEXXZ 0048d384 f mfc42:MFC42.DLL
 0001:0008c38a       ?OnLBSelChangedNotify@CFileDialog@@MAEXIII@Z 0048d38a f mfc42:MFC42.DLL
 0001:0008c390       ?OnFileNameOK@CFileDialog@@MAEHXZ 0048d390 f mfc42:MFC42.DLL
 0001:0008c396       ?OnShareViolation@CFileDialog@@MAEIPBD@Z 0048d396 f mfc42:MFC42.DLL
 0001:0008c39c       ?OnCancel@CCommonDialog@@MAEXXZ 0048d39c f mfc42:MFC42.DLL
 0001:0008c3a2       ?OnOK@CCommonDialog@@MAEXXZ 0048d3a2 f mfc42:MFC42.DLL
 0001:0008c3a8       ?OnNotify@CFileDialog@@MAEHIJPAJ@Z 0048d3a8 f mfc42:MFC42.DLL
 0001:0008c3ae       ?GetMessageMap@CCommonDialog@@MBEPBUAFX_MSGMAP@@XZ 0048d3ae f mfc42:MFC42.DLL
 0001:0008c3b4       ?GetRuntimeClass@CFileDialog@@UBEPAUCRuntimeClass@@XZ 0048d3b4 f mfc42:MFC42.DLL
 0001:0008c3ba       ??YCString@@QAEABV0@ABV0@@Z 0048d3ba f mfc42:MFC42.DLL
 0001:0008c3c0       ?GetRuntimeClass@CWnd@@UBEPAUCRuntimeClass@@XZ 0048d3c0 f mfc42:MFC42.DLL
 0001:0008c3c6       ?CreateEx@CWnd@@QAEHKPBD0KHHHHPAUHWND__@@PAUHMENU__@@PAX@Z 0048d3c6 f mfc42:MFC42.DLL
 0001:0008c3cc       ?AfxRegisterWndClass@@YGPBDIPAUHICON__@@PAUHBRUSH__@@0@Z 0048d3cc f mfc42:MFC42.DLL
 0001:0008c3d2       ?AfxGetThread@@YGPAVCWinThread@@XZ 0048d3d2 f mfc42:MFC42.DLL
 0001:0008c3d8       ?CenterWindow@CWnd@@QAEXPAV1@@Z 0048d3d8 f mfc42:MFC42.DLL
 0001:0008c3de       ?CreateControl@CWnd@@QAEHABU_GUID@@PBDKABUtagRECT@@PAV1@IPAVCFile@@HPAG@Z 0048d3de f mfc42:MFC42.DLL
 0001:0008c3e4       ?GetProperty@CWnd@@QBEXJGPAX@Z 0048d3e4 f mfc42:MFC42.DLL
 0001:0008c3ea       ?SetProperty@CWnd@@QAAXJGZZ 0048d3ea f mfc42:MFC42.DLL
 0001:0008c3f0       ?InvokeHelper@CWnd@@QAAXJGGPAXPBEZZ 0048d3f0 f mfc42:MFC42.DLL
 0001:0008c3f6       ?GetRuntimeClass@CSliderCtrl@@UBEPAUCRuntimeClass@@XZ 0048d3f6 f mfc42:MFC42.DLL
 0001:0008c3fc       ?DDX_Text@@YGXPAVCDataExchange@@HAAM@Z 0048d3fc f mfc42:MFC42.DLL
 0001:0008c402       ?SetRange@CSliderCtrl@@QAEXHHH@Z 0048d402 f mfc42:MFC42.DLL
 0001:0008c408       __purecall                 0048d408 f msvcrt:MSVCRT.dll
 0001:0008c410       ??_M@YGXPAXIHP6EX0@Z@Z     0048d410 f msvcrt:ehvecdtr.obj
 0001:0008c4a0       ?__ArrayUnwind@@YGXPAXIHP6EX0@Z@Z 0048d4a0 f msvcrt:ehvecdtr.obj
 0001:0008c540       ___CxxFrameHandler         0048d540 f msvcrt:MSVCRT.dll
 0001:0008c546       _memset                    0048d546 f msvcrt:MSVCRT.dll
 0001:0008c54c       _strcpy                    0048d54c f msvcrt:MSVCRT.dll
 0001:0008c552       _strlen                    0048d552 f msvcrt:MSVCRT.dll
 0001:0008c558       _strcat                    0048d558 f msvcrt:MSVCRT.dll
 0001:0008c55e       _fabs                      0048d55e f msvcrt:MSVCRT.dll
 0001:0008c564       _fmod                      0048d564 f msvcrt:MSVCRT.dll
 0001:0008c56a       _strcmp                    0048d56a f msvcrt:MSVCRT.dll
 0001:0008c570       __ftol                     0048d570 f msvcrt:MSVCRT.dll
 0001:0008c576       _sqrt                      0048d576 f msvcrt:MSVCRT.dll
 0001:0008c580       __onexit                   0048d580 f msvcrt:atonexit.obj
 0001:0008c620       _atexit                    0048d620 f msvcrt:atonexit.obj
 0001:0008c634       _memcpy                    0048d634 f msvcrt:MSVCRT.dll
 0001:0008c63a       _abs                       0048d63a f msvcrt:MSVCRT.dll
 0001:0008c640       __setjmp3                  0048d640 f msvcrt:MSVCRT.dll
 0001:0008c646       _cos                       0048d646 f msvcrt:MSVCRT.dll
 0001:0008c64c       _atan                      0048d64c f msvcrt:MSVCRT.dll
 0001:0008c652       _sin                       0048d652 f msvcrt:MSVCRT.dll
 0001:0008c660       ??_L@YGXPAXIHP6EX0@Z1@Z    0048d660 f msvcrt:ehvecctr.obj
 0001:0008c6f0       __alloca_probe             0048d6f0   msvcrt:chkstk.obj
 0001:0008c6f0       __chkstk                   0048d6f0   msvcrt:chkstk.obj
 0001:0008c720       _WinMainCRTStartup         0048d720 f msvcrt:crtexew.obj
 0001:0008c8c2       __except_handler3          0048d8c2 f msvcrt:MSVCRT.dll
 0001:0008c8c8       ?terminate@@YAXXZ          0048d8c8 f msvcrt:MSVCRT.dll
 0001:0008c8ce       ___dllonexit               0048d8ce f msvcrt:MSVCRT.dll
 0001:0008c8d4       __XcptFilter               0048d8d4 f msvcrt:MSVCRT.dll
 0001:0008c8da       __initterm                 0048d8da f msvcrt:MSVCRT.dll
 0001:0008c8e0       __setdefaultprecision      0048d8e0 f msvcrt:fp8.obj
 0001:0008c900       __matherr                  0048d900 f msvcrt:merr.obj
 0001:0008c910       __setargv                  0048d910 f msvcrt:dllargv.obj
 0001:0008c912       __controlfp                0048d912 f msvcrt:MSVCRT.dll
 0001:0008c920       _WinMain@16                0048d920 f mfcs42:appmodul.obj
 0001:0008c939       ?AfxInitialize@@YGHHK@Z    0048d939 f mfcs42:appmodul.obj
 0001:0008c966       ??0_AFX_TERM_APP_STATE@@QAE@XZ 0048d966 f mfcs42:appmodul.obj
 0001:0008c988       ?AfxWinMain@@YGHPAUHINSTANCE__@@0PADH@Z 0048d988 f mfc42:MFC42.DLL
 0002:00000000       ?messageMap@COpenGLSettings@@1UAFX_MSGMAP@@B 0048e000   OpenGLSettings.obj
 0002:00000008       ?_messageEntries@COpenGLSettings@@0PBUAFX_MSGMAP_ENTRY@@B 0048e008   OpenGLSettings.obj
 0002:00000020       ??_7VistaObj@@6B@          0048e020   OpenGLSettings.obj
 0002:00000054       ??_7VistaTask@@6B@         0048e054   OpenGLSettings.obj
 0002:00000058       ??_7RDXDb@@6B@             0048e058   OpenGLSettings.obj
 0002:00000060       ??_7VistaDb@@6B@           0048e060   OpenGLSettings.obj
 0002:00000068       ??_7StoreDb@@6B@           0048e068   OpenGLSettings.obj
 0002:00000070       ??_7StoreTask@@6B@         0048e070   OpenGLSettings.obj
 0002:00000078       ??_7Polymorph@@6B@         0048e078   OpenGLSettings.obj
 0002:000000b0       ??_7triton@@6B@            0048e0b0   OpenGLSettings.obj
 0002:000000b8       ??_7TransformObj@@6B@      0048e0b8   OpenGLSettings.obj
 0002:000000f0       ??_7ClassesObj@@6B@        0048e0f0   OpenGLSettings.obj
 0002:00000128       ??_7GroupsObj@@6B@         0048e128   OpenGLSettings.obj
 0002:00000160       ??_7PropertiesObj@@6B@     0048e160   OpenGLSettings.obj
 0002:00000198       ??_7ElementObj@@6B@        0048e198   OpenGLSettings.obj
 0002:000001d8       ??_7BoxObj@@6B@            0048e1d8   OpenGLSettings.obj
 0002:00000218       ??_7CirTorusObj@@6B@       0048e218   OpenGLSettings.obj
 0002:00000258       ??_7ConeObj@@6B@           0048e258   OpenGLSettings.obj
 0002:00000298       ??_7CylinderObj@@6B@       0048e298   OpenGLSettings.obj
 0002:000002d8       ??_7RectTorusObj@@6B@      0048e2d8   OpenGLSettings.obj
 0002:00000318       ??_7SphereObj@@6B@         0048e318   OpenGLSettings.obj
 0002:00000358       ??_7PyramidObj@@6B@        0048e358   OpenGLSettings.obj
 0002:00000398       ??_7ComplexObj@@6B@        0048e398   OpenGLSettings.obj
 0002:000003d8       ??_7FacesObj@@6B@          0048e3d8   OpenGLSettings.obj
 0002:00000418       ??_7VerticesObj@@6B@       0048e418   OpenGLSettings.obj
 0002:00000458       ??_7PointObj@@6B@          0048e458   OpenGLSettings.obj
 0002:00000498       ??_7LineObj@@6B@           0048e498   OpenGLSettings.obj
 0002:000004d8       ??_7SystemObj@@6B@         0048e4d8   OpenGLSettings.obj
 0002:00000510       ??_7Classes_type_KeyObj@@6B@ 0048e510   OpenGLSettings.obj
 0002:00000514       ??_7Classes_name_KeyObj@@6B@ 0048e514   OpenGLSettings.obj
 0002:00000518       ??_7Groups_name_KeyObj@@6B@ 0048e518   OpenGLSettings.obj
 0002:00000520       ??_7rvqLiteDb@@6B@         0048e520   OpenGLSettings.obj
 0002:00000528       ??_7equipObj@@6B@          0048e528   OpenGLSettings.obj
 0002:00000560       ??_7engdocObj@@6B@         0048e560   OpenGLSettings.obj
 0002:00000598       ??_7progressObj@@6B@       0048e598   OpenGLSettings.obj
 0002:000005d0       ??_7mprocObj@@6B@          0048e5d0   OpenGLSettings.obj
 0002:00000608       ??_7mhistObj@@6B@          0048e608   OpenGLSettings.obj
 0002:00000640       ??_7mhist_mproc_intObj@@6B@ 0048e640   OpenGLSettings.obj
 0002:00000678       ??_7partsObj@@6B@          0048e678   OpenGLSettings.obj
 0002:000006b0       ??_7eq_parts_intObj@@6B@   0048e6b0   OpenGLSettings.obj
 0002:000006e8       ??_7parts_docs_intObj@@6B@ 0048e6e8   OpenGLSettings.obj
 0002:00000720       ??_7vendorObj@@6B@         0048e720   OpenGLSettings.obj
 0002:00000758       ??_7commsysObj@@6B@        0048e758   OpenGLSettings.obj
 0002:00000790       ??_7eq_docs_intObj@@6B@    0048e790   OpenGLSettings.obj
 0002:000007c8       ??_7eq_mproc_intObj@@6B@   0048e7c8   OpenGLSettings.obj
 0002:00000800       ??_7image_ptrObj@@6B@      0048e800   OpenGLSettings.obj
 0002:00000838       ??_7image_equip_boxObj@@6B@ 0048e838   OpenGLSettings.obj
 0002:00000870       ??_7equip_name_KeyObj@@6B@ 0048e870   OpenGLSettings.obj
 0002:00000874       ??_7engdoc_docno_KeyObj@@6B@ 0048e874   OpenGLSettings.obj
 0002:00000878       ??_7mproc_name_KeyObj@@6B@ 0048e878   OpenGLSettings.obj
 0002:0000087c       ??_7parts_cat_no_KeyObj@@6B@ 0048e87c   OpenGLSettings.obj
 0002:00000880       ??_7vendor_vendcode_KeyObj@@6B@ 0048e880   OpenGLSettings.obj
 0002:00000884       ??_7commsys_name_KeyObj@@6B@ 0048e884   OpenGLSettings.obj
 0002:00000888       ??_7image_ptr_dba_KeyObj@@6B@ 0048e888   OpenGLSettings.obj
 0002:00000890       ??_7COpenGLSettings@@6B@   0048e890   OpenGLSettings.obj
 0002:00000a00       ??_7PtgWorld@@6B@          0048ea00   PtgWorld.obj
 0002:00000a10       ?classCFrameMods@CFrameMods@@2UCRuntimeClass@@B 0048ea10   mfc_frames.obj
 0002:00000a28       ?messageMap@CFrameMods@@1UAFX_MSGMAP@@B 0048ea28   mfc_frames.obj
 0002:00000a30       ?_messageEntries@CFrameMods@@0PBUAFX_MSGMAP_ENTRY@@B 0048ea30   mfc_frames.obj
 0002:00000a48       ??_7CFrameMods@@6B@        0048ea48   mfc_frames.obj
 0002:00000b78       ?classCColumnEditor@CColumnEditor@@2UCRuntimeClass@@B 0048eb78   ColumnEditor.obj
 0002:00000b90       ?messageMap@CColumnEditor@@1UAFX_MSGMAP@@B 0048eb90   ColumnEditor.obj
 0002:00000b98       ?_messageEntries@CColumnEditor@@0PBUAFX_MSGMAP_ENTRY@@B 0048eb98   ColumnEditor.obj
 0002:00000be0       ?eventsinkMap@CColumnEditor@@1UAFX_EVENTSINKMAP@@B 0048ebe0   ColumnEditor.obj
 0002:00000bf0       ?_eventsinkEntries@CColumnEditor@@0PBUAFX_EVENTSINKMAP_ENTRY@@B 0048ebf0   ColumnEditor.obj
 0002:00000c70       ??_7CColumnEditor@@6B@     0048ec70   ColumnEditor.obj
 0002:00000d80       ?messageMap@COptionsDlg@@1UAFX_MSGMAP@@B 0048ed80   optionsd.obj
 0002:00000d88       ?_messageEntries@COptionsDlg@@0PBUAFX_MSGMAP_ENTRY@@B 0048ed88   optionsd.obj
 0002:00000da0       ??_7COptionsDlg@@6B@       0048eda0   optionsd.obj
 0002:00000e78       ?classCMainFrame@CMainFrame@@2UCRuntimeClass@@B 0048ee78   mainfrm.obj
 0002:00000e90       ?messageMap@CMainFrame@@1UAFX_MSGMAP@@B 0048ee90   mainfrm.obj
 0002:00000e98       ?_messageEntries@CMainFrame@@0PBUAFX_MSGMAP_ENTRY@@B 0048ee98   mainfrm.obj
 0002:00001420       ?eventsinkMap@CMainFrame@@1UAFX_EVENTSINKMAP@@B 0048f420   mainfrm.obj
 0002:00001430       ?_eventsinkEntries@CMainFrame@@0PBUAFX_EVENTSINKMAP_ENTRY@@B 0048f430   mainfrm.obj
 0002:000014a0       ??_7CMainFrame@@6B@        0048f4a0   mainfrm.obj
 0002:000015a8       ??_7CBitmap@@6B@           0048f5a8   mainfrm.obj
 0002:000015c0       ??_7CGdiObject@@6B@        0048f5c0   mainfrm.obj
 0002:000015d8       ??_7CObject@@6B@           0048f5d8   mainfrm.obj
 0002:000015f0       ?messageMap@CFotobrowApp@@1UAFX_MSGMAP@@B 0048f5f0   fotobrow.obj
 0002:000015f8       ?_messageEntries@CFotobrowApp@@0PBUAFX_MSGMAP_ENTRY@@B 0048f5f8   fotobrow.obj
 0002:00001698       ?messageMap@CAboutDlg@@1UAFX_MSGMAP@@B 0048f698   fotobrow.obj
 0002:000016a0       ?_messageEntries@CAboutDlg@@0PBUAFX_MSGMAP_ENTRY@@B 0048f6a0   fotobrow.obj
 0002:000016f8       ??_7CFotobrowApp@@6B@      0048f6f8   fotobrow.obj
 0002:0000179c       ??_7TritonTask@@6B@        0048f79c   fotobrow.obj
 0002:000017a0       ??_7CAboutDlg@@6B@         0048f7a0   fotobrow.obj
 0002:00001878       ?classCFotobrowDoc@CFotobrowDoc@@2UCRuntimeClass@@B 0048f878   fotobdoc.obj
 0002:00001890       ?messageMap@CFotobrowDoc@@1UAFX_MSGMAP@@B 0048f890   fotobdoc.obj
 0002:00001898       ?_messageEntries@CFotobrowDoc@@0PBUAFX_MSGMAP_ENTRY@@B 0048f898   fotobdoc.obj
 0002:000018b0       ?dispatchMap@CFotobrowDoc@@1UAFX_DISPMAP@@B 0048f8b0   fotobdoc.obj
 0002:000018c0       ?_dispatchEntries@CFotobrowDoc@@0PBUAFX_DISPMAP_ENTRY@@B 0048f8c0   fotobdoc.obj
 0002:000018e0       ??_7CFotobrowDoc@@6B@      0048f8e0   fotobdoc.obj
 0002:00001998       ?messageMap@CSelectImages@@1UAFX_MSGMAP@@B 0048f998   selectim.obj
 0002:000019a0       ?_messageEntries@CSelectImages@@0PBUAFX_MSGMAP_ENTRY@@B 0048f9a0   selectim.obj
 0002:000019d0       ??_7CSelectImages@@6B@     0048f9d0   selectim.obj
 0002:00001aa8       ??_7CListBox@@6B@          0048faa8   selectim.obj
 0002:00001b80       ?messageMap@CCircleDataDlg@@1UAFX_MSGMAP@@B 0048fb80   CircleDataDlg.obj
 0002:00001b88       ?_messageEntries@CCircleDataDlg@@0PBUAFX_MSGMAP_ENTRY@@B 0048fb88   CircleDataDlg.obj
 0002:00001ba8       ??_7CCircleDataDlg@@6B@    0048fba8   CircleDataDlg.obj
 0002:00001c80       ??_7CDIB@@6B@              0048fc80   DIB.OBJ
 0002:00001cb8       ?messageMap@COpenProjectDlg@@1UAFX_MSGMAP@@B 0048fcb8   OPENPROJ.OBJ
 0002:00001cc0       ?_messageEntries@COpenProjectDlg@@0PBUAFX_MSGMAP_ENTRY@@B 0048fcc0   OPENPROJ.OBJ
 0002:00001cf0       ??_7COpenProjectDlg@@6B@   0048fcf0   OPENPROJ.OBJ
 0002:00001dc8       ??_7Ptg3DPointObj@@6B@     0048fdc8   Ptg3DPointObj.obj
 0002:00001de0       ?messageMap@CDrawList@@1UAFX_MSGMAP@@B 0048fde0   drawlist.obj
 0002:00001de8       ?_messageEntries@CDrawList@@0PBUAFX_MSGMAP_ENTRY@@B 0048fde8   drawlist.obj
 0002:00001e38       ??_7CDrawList@@6B@         0048fe38   drawlist.obj
 0002:00001f10       ??_7CComboBox@@6B@         0048ff10   drawlist.obj
 0002:00001fe0       ??_7CTreeCtrl@@6B@         0048ffe0   drawlist.obj
 0002:00002108       ?classCElementListView@CElementListView@@2UCRuntimeClass@@B 00490108   ElementListView.obj
 0002:00002120       ?messageMap@CElementListView@@1UAFX_MSGMAP@@B 00490120   ElementListView.obj
 0002:00002128       ?_messageEntries@CElementListView@@0PBUAFX_MSGMAP_ENTRY@@B 00490128   ElementListView.obj
 0002:00002488       ??_7CElementListView@@6B@  00490488   ElementListView.obj
 0002:000025b8       ??_7Ptg3DNode@@6B@         004905b8   Ptg3DNode.obj
 0002:000025d0       ?messageMap@PointGridBar@@1UAFX_MSGMAP@@B 004905d0   PointGridBar.obj
 0002:000025d8       ?_messageEntries@PointGridBar@@0PBUAFX_MSGMAP_ENTRY@@B 004905d8   PointGridBar.obj
 0002:000026e0       ?eventsinkMap@PointGridBar@@1UAFX_EVENTSINKMAP@@B 004906e0   PointGridBar.obj
 0002:000026f0       ?_eventsinkEntries@PointGridBar@@0PBUAFX_EVENTSINKMAP_ENTRY@@B 004906f0   PointGridBar.obj
 0002:000028c0       ??_7PointGridBar@@6B@      004908c0   PointGridBar.obj
 0002:000029a8       ?messageMap@CCircleBy3DPoint@@1UAFX_MSGMAP@@B 004909a8   CircleBy3DPoint.obj
 0002:000029b0       ?_messageEntries@CCircleBy3DPoint@@0PBUAFX_MSGMAP_ENTRY@@B 004909b0   CircleBy3DPoint.obj
 0002:000029f0       ??_7CCircleBy3DPoint@@6B@  004909f0   CircleBy3DPoint.obj
 0002:00002ad8       ?messageMap@CCylinderData@@1UAFX_MSGMAP@@B 00490ad8   CylinderData.obj
 0002:00002ae0       ?_messageEntries@CCylinderData@@0PBUAFX_MSGMAP_ENTRY@@B 00490ae0   CylinderData.obj
 0002:00002b00       ??_7CCylinderData@@6B@     00490b00   CylinderData.obj
 0002:00002bd8       ?classCFotoView@CFotoView@@2UCRuntimeClass@@B 00490bd8   fotoview.obj
 0002:00002bf0       ?messageMap@CFotoView@@1UAFX_MSGMAP@@B 00490bf0   fotoview.obj
 0002:00002bf8       ?_messageEntries@CFotoView@@0PBUAFX_MSGMAP_ENTRY@@B 00490bf8   fotoview.obj
 0002:00002f90       ??_7CFotoView@@6B@         00490f90   fotoview.obj
 0002:000030a0       ?messageMap@CZoneSelectDlg@@1UAFX_MSGMAP@@B 004910a0   zonesele.obj
 0002:000030a8       ?_messageEntries@CZoneSelectDlg@@0PBUAFX_MSGMAP_ENTRY@@B 004910a8   zonesele.obj
 0002:000030d8       ??_7CZoneSelectDlg@@6B@    004910d8   zonesele.obj
 0002:000031b0       ??_7CDIBPal@@6B@           004911b0   DIBPAL.OBJ
 0002:000031c8       ??_7CPalette@@6B@          004911c8   DIBPAL.OBJ
 0002:000031e0       ??_7CBrush@@6B@            004911e0   DIBPAL.OBJ
 0002:00003268       ??_7AllElements@@6B@       00491268   tritondraw.obj
 0002:000032a0       ?classCZoneEditor@CZoneEditor@@2UCRuntimeClass@@B 004912a0   ZoneEditor.obj
 0002:000032b8       ?messageMap@CZoneEditor@@1UAFX_MSGMAP@@B 004912b8   ZoneEditor.obj
 0002:000032c0       ?_messageEntries@CZoneEditor@@0PBUAFX_MSGMAP_ENTRY@@B 004912c0   ZoneEditor.obj
 0002:00003308       ?eventsinkMap@CZoneEditor@@1UAFX_EVENTSINKMAP@@B 00491308   ZoneEditor.obj
 0002:00003318       ?_eventsinkEntries@CZoneEditor@@0PBUAFX_EVENTSINKMAP_ENTRY@@B 00491318   ZoneEditor.obj
 0002:00003398       ??_7CZoneEditor@@6B@       00491398   ZoneEditor.obj
 0002:000034a8       ??_7Ptg3DConeObj@@6B@      004914a8   Ptg3DConeObj.obj
 0002:00003628       ??_7Ptg3DCtorObj@@6B@      00491628   Ptg3DCtorObj.obj
 0002:00003690       ?classCResultSheetDlg@CResultSheetDlg@@2UCRuntimeClass@@B 00491690   resultsh.obj
 0002:000036a8       ?messageMap@CResultSheetDlg@@1UAFX_MSGMAP@@B 004916a8   resultsh.obj
 0002:000036b0       ?_messageEntries@CResultSheetDlg@@0PBUAFX_MSGMAP_ENTRY@@B 004916b0   resultsh.obj
 0002:000036c8       ??_7CResultSheetDlg@@6B@   004916c8   resultsh.obj
 0002:00003840       ?classCFotobrowView@CFotobrowView@@2UCRuntimeClass@@B 00491840   fotobvw.obj
 0002:00003858       ?messageMap@CFotobrowView@@1UAFX_MSGMAP@@B 00491858   fotobvw.obj
 0002:00003860       ?_messageEntries@CFotobrowView@@0PBUAFX_MSGMAP_ENTRY@@B 00491860   fotobvw.obj
 0002:00003b30       ?dispatchMap@CFotobrowView@@1UAFX_DISPMAP@@B 00491b30   fotobvw.obj
 0002:00003b40       ?_dispatchEntries@CFotobrowView@@0PBUAFX_DISPMAP_ENTRY@@B 00491b40   fotobvw.obj
 0002:00003ba0       ??_7CFotobrowView@@6B@     00491ba0   fotobvw.obj
 0002:00003cb0       ??_7?$CList@PAVCPoint@@PAV1@@@6B@ 00491cb0   fotobvw.obj
 0002:00003cc8       ?classEngineeringData@EngineeringData@@2UCRuntimeClass@@B 00491cc8   engineer.obj
 0002:00003ce0       ?messageMap@EngineeringData@@1UAFX_MSGMAP@@B 00491ce0   engineer.obj
 0002:00003ce8       ?_messageEntries@EngineeringData@@0PBUAFX_MSGMAP_ENTRY@@B 00491ce8   engineer.obj
 0002:00003d00       ??_7EngineeringData@@6B@   00491d00   engineer.obj
 0002:00003df8       ?classCGridBar@CGridBar@@2UCRuntimeClass@@B 00491df8   gridbar.obj
 0002:00003e10       ?messageMap@CGridBar@@1UAFX_MSGMAP@@B 00491e10   gridbar.obj
 0002:00003e18       ?_messageEntries@CGridBar@@0PBUAFX_MSGMAP_ENTRY@@B 00491e18   gridbar.obj
 0002:00003e78       ??_7HierElem@@6B@          00491e78   HierElem.obj
 0002:00003e80       ??_7?$CList@PAVHierElem@@PAV1@@@6B@ 00491e80   HierElem.obj
 0002:00003e98       ?classConstruction@Construction@@2UCRuntimeClass@@B 00491e98   construct.obj
 0002:00003eb0       ?messageMap@Construction@@1UAFX_MSGMAP@@B 00491eb0   construct.obj
 0002:00003eb8       ?_messageEntries@Construction@@0PBUAFX_MSGMAP_ENTRY@@B 00491eb8   construct.obj
 0002:00003ed0       ??_7Construction@@6B@      00491ed0   construct.obj
 0002:00003fd0       ??_7CColorMenu@@6B@        00491fd0   colormenu.obj
 0002:00003ff0       ??_7CMenu@@6B@             00491ff0   colormenu.obj
 0002:00004010       ?messageMap@CCreateCylinderByEdgeDlg@@1UAFX_MSGMAP@@B 00492010   CreateCylinderByEdgeDlg.obj
 0002:00004018       ?_messageEntries@CCreateCylinderByEdgeDlg@@0PBUAFX_MSGMAP_ENTRY@@B 00492018   CreateCylinderByEdgeDlg.obj
 0002:000040a8       ??_7CCreateCylinderByEdgeDlg@@6B@ 004920a8   CreateCylinderByEdgeDlg.obj
 0002:00004180       ??_7CButton@@6B@           00492180   CreateCylinderByEdgeDlg.obj
 0002:00004248       ??_7?$CList@PAVEdge_2D@@PAV1@@@6B@ 00492248   CreateCylinderByEdgeDlg.obj
 0002:00004270       ?messageMap@CProjectSettings@@1UAFX_MSGMAP@@B 00492270   projects.obj
 0002:00004278       ?_messageEntries@CProjectSettings@@0PBUAFX_MSGMAP_ENTRY@@B 00492278   projects.obj
 0002:00004308       ??_7CProjectSettings@@6B@  00492308   projects.obj
 0002:000043e0       ??_7Ptg3DCylinderObj@@6B@  004923e0   Ptg3DCylinderObj.obj
 0002:00004400       ?classCommisioning@Commisioning@@2UCRuntimeClass@@B 00492400   comision.obj
 0002:00004418       ?messageMap@Commisioning@@1UAFX_MSGMAP@@B 00492418   comision.obj
 0002:00004420       ?_messageEntries@Commisioning@@0PBUAFX_MSGMAP_ENTRY@@B 00492420   comision.obj
 0002:00004438       ??_7Commisioning@@6B@      00492438   comision.obj
 0002:00004558       ?messageMap@CBundleCalcDlg@@1UAFX_MSGMAP@@B 00492558   BundleCalcDlg.obj
 0002:00004560       ?_messageEntries@CBundleCalcDlg@@0PBUAFX_MSGMAP_ENTRY@@B 00492560   BundleCalcDlg.obj
 0002:00004590       ?dispatchMap@CBundleCalcDlg@@1UAFX_DISPMAP@@B 00492590   BundleCalcDlg.obj
 0002:000045a0       ?_dispatchEntries@CBundleCalcDlg@@0PBUAFX_DISPMAP_ENTRY@@B 004925a0   BundleCalcDlg.obj
 0002:000045d0       ?interfaceMap@CBundleCalcDlg@@1UAFX_INTERFACEMAP@@B 004925d0   BundleCalcDlg.obj
 0002:000045d8       ?_interfaceEntries@CBundleCalcDlg@@0PBUAFX_INTERFACEMAP_ENTRY@@B 004925d8   BundleCalcDlg.obj
 0002:000045e8       ??_7CBundleCalcDlg@@6B@    004925e8   BundleCalcDlg.obj
 0002:000046c0       ?messageMap@CAssignEquipDlg@@1UAFX_MSGMAP@@B 004926c0   assigneq.obj
 0002:000046c8       ?_messageEntries@CAssignEquipDlg@@0PBUAFX_MSGMAP_ENTRY@@B 004926c8   assigneq.obj
 0002:000046e0       ??_7CAssignEquipDlg@@6B@   004926e0   assigneq.obj
 0002:00004800       ??_7rvqLiteTask@@6B@       00492800   rvqLite.obj
 0002:00004930       ??_7Ptg3DRtorObj@@6B@      00492930   Ptg3DRtorObj.obj
 0002:00004950       ?classCGeneralPageDlg@CGeneralPageDlg@@2UCRuntimeClass@@B 00492950   generalp.obj
 0002:00004968       ?messageMap@CGeneralPageDlg@@1UAFX_MSGMAP@@B 00492968   generalp.obj
 0002:00004970       ?_messageEntries@CGeneralPageDlg@@0PBUAFX_MSGMAP_ENTRY@@B 00492970   generalp.obj
 0002:00004988       ??_7CGeneralPageDlg@@6B@   00492988   generalp.obj
 0002:00004a80       ?classCRaimaDatabaseDoc@CRaimaDatabaseDoc@@2UCRuntimeClass@@B 00492a80   tritondb.obj
 0002:00004a98       ?messageMap@CRaimaDatabaseDoc@@1UAFX_MSGMAP@@B 00492a98   tritondb.obj
 0002:00004aa0       ?_messageEntries@CRaimaDatabaseDoc@@0PBUAFX_MSGMAP_ENTRY@@B 00492aa0   tritondb.obj
 0002:00004ab8       ??_7CRaimaDatabaseDoc@@6B@ 00492ab8   tritondb.obj
 0002:00004b70       ?messageMap@CCircleByEdge@@1UAFX_MSGMAP@@B 00492b70   CircleByEdge.obj
 0002:00004b78       ?_messageEntries@CCircleByEdge@@0PBUAFX_MSGMAP_ENTRY@@B 00492b78   CircleByEdge.obj
 0002:00004ba0       ??_7CCircleByEdge@@6B@     00492ba0   CircleByEdge.obj
 0002:00004c78       ?messageMap@CCoordXformDlg@@1UAFX_MSGMAP@@B 00492c78   coordxfo.obj
 0002:00004c80       ?_messageEntries@CCoordXformDlg@@0PBUAFX_MSGMAP_ENTRY@@B 00492c80   coordxfo.obj
 0002:00004ce8       ??_7CCoordXformDlg@@6B@    00492ce8   coordxfo.obj
 0002:00004dc0       ?messageMap@CCreateQuickCylinderDlg@@1UAFX_MSGMAP@@B 00492dc0   CreateQuickCylinderDlg.obj
 0002:00004dc8       ?_messageEntries@CCreateQuickCylinderDlg@@0PBUAFX_MSGMAP_ENTRY@@B 00492dc8   CreateQuickCylinderDlg.obj
 0002:00004e28       ??_7CCreateQuickCylinderDlg@@6B@ 00492e28   CreateQuickCylinderDlg.obj
 0002:00004f00       ?messageMap@CCreateCylinderByEndpointsDlg@@1UAFX_MSGMAP@@B 00492f00   CreateCylinderByEndpointsDlg.obj
 0002:00004f08       ?_messageEntries@CCreateCylinderByEndpointsDlg@@0PBUAFX_MSGMAP_ENTRY@@B 00492f08   CreateCylinderByEndpointsDlg.obj
 0002:00004f20       ??_7CCreateCylinderByEndpointsDlg@@6B@ 00492f20   CreateCylinderByEndpointsDlg.obj
 0002:00004ff8       ??_7Ptg3DLineObj@@6B@      00492ff8   Ptg3DLineObj.obj
 0002:00005078       ?messageMap@CTransformDlg@@1UAFX_MSGMAP@@B 00493078   transfor.obj
 0002:00005080       ?_messageEntries@CTransformDlg@@0PBUAFX_MSGMAP_ENTRY@@B 00493080   transfor.obj
 0002:000050a0       ??_7CTransformDlg@@6B@     004930a0   transfor.obj
 0002:00005178       ?classMaintenance@Maintenance@@2UCRuntimeClass@@B 00493178   maintena.obj
 0002:00005190       ?messageMap@Maintenance@@1UAFX_MSGMAP@@B 00493190   maintena.obj
 0002:00005198       ?_messageEntries@Maintenance@@0PBUAFX_MSGMAP_ENTRY@@B 00493198   maintena.obj
 0002:000051c8       ??_7Maintenance@@6B@       004931c8   maintena.obj
 0002:00005310       ??_7Ptg3DPyramidObj@@6B@   00493310   Ptg3DPyramidObj.obj
 0002:00005328       ?messageMap@CSelectEqImageDlg@@1UAFX_MSGMAP@@B 00493328   selecteq.obj
 0002:00005330       ?_messageEntries@CSelectEqImageDlg@@0PBUAFX_MSGMAP_ENTRY@@B 00493330   selecteq.obj
 0002:00005408       ??_7CSelectEqImageDlg@@6B@ 00493408   selecteq.obj
 0002:000054e0       ?messageMap@CRadiographyData@@1UAFX_MSGMAP@@B 004934e0   RadiographyData.obj
 0002:000054e8       ?_messageEntries@CRadiographyData@@0PBUAFX_MSGMAP_ENTRY@@B 004934e8   RadiographyData.obj
 0002:00005548       ??_7CRadiographyData@@6B@  00493548   RadiographyData.obj
 0002:00005620       ??_7CBrowserDlg@@6B@       00493620   RadiographyData.obj
 0002:00005718       ?messageMap@CSplashWnd@@1UAFX_MSGMAP@@B 00493718   Splash.obj
 0002:00005720       ?_messageEntries@CSplashWnd@@0PBUAFX_MSGMAP_ENTRY@@B 00493720   Splash.obj
 0002:00005780       ??_7CSplashWnd@@6B@        00493780   Splash.obj
 0002:00005840       ??_7Ptg3DCalcPointObj@@6B@ 00493840   Ptg3DCalcPointObj.obj
 0002:00005858       ??_7Ptg3DFacetVertexObj@@6B@ 00493858   Ptg3DFacetObj.obj
 0002:00005870       ??_7Ptg3DFacetObj@@6B@     00493870   Ptg3DFacetObj.obj
 0002:00005880       ??_7?$CList@PAVPtg3DFacetVertexObj@@PAV1@@@6B@ 00493880   Ptg3DFacetObj.obj
 0002:000058a0       ?classCDatatbl@CDatatbl@@2UCRuntimeClass@@B 004938a0   datatbl.obj
 0002:000058b8       ??_7CDatatbl@@6B@          004938b8   datatbl.obj
 0002:00005978       ?clsid@?1??GetClsid@CDatatbl@@QAEABU_GUID@@XZ@4U3@B 00493978   datatbl.obj
 0002:00005988       ?classCFotogDoc@CFotogDoc@@2UCRuntimeClass@@B 00493988   fotogdoc.obj
 0002:000059a0       ?messageMap@CFotogDoc@@1UAFX_MSGMAP@@B 004939a0   fotogdoc.obj
 0002:000059a8       ?_messageEntries@CFotogDoc@@0PBUAFX_MSGMAP_ENTRY@@B 004939a8   fotogdoc.obj
 0002:000059c0       ?dispatchMap@CFotogDoc@@1UAFX_DISPMAP@@B 004939c0   fotogdoc.obj
 0002:000059d0       ?_dispatchEntries@CFotogDoc@@0PBUAFX_DISPMAP_ENTRY@@B 004939d0   fotogdoc.obj
 0002:000059f0       ??_7CFotogDoc@@6B@         004939f0   fotogdoc.obj
 0002:00005aa8       ?messageMap@CMyMdi@@1UAFX_MSGMAP@@B 00493aa8   mymdi.obj
 0002:00005ab0       ?_messageEntries@CMyMdi@@0PBUAFX_MSGMAP_ENTRY@@B 00493ab0   mymdi.obj
 0002:00005af8       ??_7CMyMdi@@6B@            00493af8   mymdi.obj
 0002:00005bd0       ??_7Ptg3DBoxObj@@6B@       00493bd0   Ptg3DBoxObj.obj
 0002:00005be8       ?messageMap@CLightAdjust@@1UAFX_MSGMAP@@B 00493be8   LightAdjust.obj
 0002:00005bf0       ?_messageEntries@CLightAdjust@@0PBUAFX_MSGMAP_ENTRY@@B 00493bf0   LightAdjust.obj
 0002:00005c48       ??_7CLightAdjust@@6B@      00493c48   LightAdjust.obj
 0002:00005d20       ??_7CSliderCtrl@@6B@       00493d20   LightAdjust.obj
 0003:00000000       ___xc_a                    004a9000   msvcrt:cinitexe.obj
 0003:00000014       ___xc_z                    004a9014   msvcrt:cinitexe.obj
 0003:00000018       ___xi_a                    004a9018   msvcrt:cinitexe.obj
 0003:0000001c       ___xi_z                    004a901c   msvcrt:cinitexe.obj
 0003:00000020       ??_C@_00A@?$AA@            004a9020   OpenGLSettings.obj
 0003:00000024       ??_C@_01PGHN@o?$AA@        004a9024   OpenGLSettings.obj
 0003:00000028       ??_C@_01LHO@r?$AA@         004a9028   OpenGLSettings.obj
 0003:0000002c       ??_C@_01LLF@w?$AA@         004a902c   OpenGLSettings.obj
 0003:00000030       ??_C@_01KOI@x?$AA@         004a9030   OpenGLSettings.obj
 0003:00000034       ??_C@_01FMCB@k?$AA@        004a9034   OpenGLSettings.obj
 0003:00000038       ??_C@_06DHDI@triton?$AA@   004a9038   OpenGLSettings.obj
 0003:00000040       ??_C@_09EKPD@Transform?$AA@ 004a9040   OpenGLSettings.obj
 0003:0000004c       ??_C@_07BKKB@Classes?$AA@  004a904c   OpenGLSettings.obj
 0003:00000054       ??_C@_06KJIP@Groups?$AA@   004a9054   OpenGLSettings.obj
 0003:0000005c       ??_C@_0L@KHEG@Properties?$AA@ 004a905c   OpenGLSettings.obj
 0003:00000068       ??_C@_03IAJJ@Box?$AA@      004a9068   OpenGLSettings.obj
 0003:0000006c       ??_C@_08EMIP@CirTorus?$AA@ 004a906c   OpenGLSettings.obj
 0003:00000078       ??_C@_04JIGP@Cone?$AA@     004a9078   OpenGLSettings.obj
 0003:00000080       ??_C@_08CAAC@Cylinder?$AA@ 004a9080   OpenGLSettings.obj
 0003:0000008c       ??_C@_09JPOF@RectTorus?$AA@ 004a908c   OpenGLSettings.obj
 0003:00000098       ??_C@_06EFME@Sphere?$AA@   004a9098   OpenGLSettings.obj
 0003:000000a0       ??_C@_07KKBL@Pyramid?$AA@  004a90a0   OpenGLSettings.obj
 0003:000000a8       ??_C@_07OOLH@Complex?$AA@  004a90a8   OpenGLSettings.obj
 0003:000000b0       ??_C@_05LBEE@Faces?$AA@    004a90b0   OpenGLSettings.obj
 0003:000000b8       ??_C@_08KKJK@Vertices?$AA@ 004a90b8   OpenGLSettings.obj
 0003:000000c4       ??_C@_05GJGE@Point?$AA@    004a90c4   OpenGLSettings.obj
 0003:000000cc       ??_C@_04KEDG@Line?$AA@     004a90cc   OpenGLSettings.obj
 0003:000000d4       ??_C@_06NILE@System?$AA@   004a90d4   OpenGLSettings.obj
 0003:000000dc       ??_C@_05NNPK@equip?$AA@    004a90dc   OpenGLSettings.obj
 0003:000000e4       ??_C@_06PLBF@engdoc?$AA@   004a90e4   OpenGLSettings.obj
 0003:000000ec       ??_C@_08IGC@progress?$AA@  004a90ec   OpenGLSettings.obj
 0003:000000f8       ??_C@_05GGNF@mproc?$AA@    004a90f8   OpenGLSettings.obj
 0003:00000100       ??_C@_05CHEC@mhist?$AA@    004a9100   OpenGLSettings.obj
 0003:00000108       ??_C@_0BA@LHKP@mhist_mproc_int?$AA@ 004a9108   OpenGLSettings.obj
 0003:00000118       ??_C@_05HIBL@parts?$AA@    004a9118   OpenGLSettings.obj
 0003:00000120       ??_C@_0N@KIBH@eq_parts_int?$AA@ 004a9120   OpenGLSettings.obj
 0003:00000130       ??_C@_0P@HFHM@parts_docs_int?$AA@ 004a9130   OpenGLSettings.obj
 0003:00000140       ??_C@_06PCJH@vendor?$AA@   004a9140   OpenGLSettings.obj
 0003:00000148       ??_C@_07NCEA@commsys?$AA@  004a9148   OpenGLSettings.obj
 0003:00000150       ??_C@_0M@NGMO@eq_docs_int?$AA@ 004a9150   OpenGLSettings.obj
 0003:0000015c       ??_C@_0N@NEMN@eq_mproc_int?$AA@ 004a915c   OpenGLSettings.obj
 0003:000005c0       ?className@PtgWorld@@2PADA 004a95c0   PtgWorld.obj
 0003:000009a8       ?_eventsinkEntryCount@CColumnEditor@@0IA 004a99a8   ColumnEditor.obj
 0003:00000a90       ?mode@@3HA                 004a9a90   mainfrm.obj
 0003:00000b3c       ?_eventsinkEntryCount@CMainFrame@@0IA 004a9b3c   mainfrm.obj
 0003:00000fb8       ?rvqTask@@3PAVrvqLiteTask@@A 004a9fb8   fotobrow.obj
 0003:00000fc0       ?reg_strings@@3PAPADA      004a9fc0   fotobrow.obj
 0003:00001080       ??_C@_06JNNG@pm3mgt?$AA@   004aa080   fotobrow.obj
 0003:00001088       ?_dispatchEntryCount@CFotobrowDoc@@0IA 004aa088   fotobdoc.obj
 0003:0000108c       ?_dwStockPropMask@CFotobrowDoc@@0KA 004aa08c   fotobdoc.obj
 0003:00001b68       ?classCDIB@CDIB@@2UCRuntimeClass@@A 004aab68   DIB.OBJ
 0003:00001cf8       ?className@Ptg3DPointObj@@2PADA 004aacf8   Ptg3DPointObj.obj
 0003:00001f24       ?className@Ptg3DNode@@2PADA 004aaf24   Ptg3DNode.obj
 0003:00001f28       ?nUniqID@Ptg3DNode@@0HA    004aaf28   Ptg3DNode.obj
 0003:00001f70       ?sheetGrids@PointGridBar@@0PAHA 004aaf70   PointGridBar.obj
 0003:00001f80       ?_eventsinkEntryCount@PointGridBar@@0IA 004aaf80   PointGridBar.obj
 0003:00002158       ?latitude@@3MA             004ab158   fotoview.obj
 0003:0000215c       ?longitude@@3MA            004ab15c   fotoview.obj
 0003:00002160       ?latinc@@3MA               004ab160   fotoview.obj
 0003:00002164       ?longinc@@3MA              004ab164   fotoview.obj
 0003:00002168       ?twist@@3MA                004ab168   fotoview.obj
 0003:0000216c       ?twistinc@@3MA             004ab16c   fotoview.obj
 0003:00002174       ?m_mode@CFotoView@@2HA     004ab174   fotoview.obj
 0003:000021a0       ?Points@@3PAY01HA          004ab1a0   fotoview.obj
 0003:000021d0       ?directions@@3PAHA         004ab1d0   fotoview.obj
 0003:000022c0       ?snNumRecs@@3FA            004ab2c0   rdm_utils.obj
 0003:000022c4       ?snNumKeys@@3FA            004ab2c4   rdm_utils.obj
 0003:000022c8       ?snNumSets@@3FA            004ab2c8   rdm_utils.obj
 0003:000022cc       ?nRecLockTable@@3PAHA      004ab2cc   rdm_utils.obj
 0003:000022d0       ?nKeyLockTable@@3PAHA      004ab2d0   rdm_utils.obj
 0003:000022d4       ?nSetLockTable@@3PAHA      004ab2d4   rdm_utils.obj
 0003:000026ec       ?DbPtr@triton@@2PAVStoreDb@@A 004ab6ec   triton.obj
 0003:00002890       ?point_increment@@3PAY01HA 004ab890   calc3dp.obj
 0003:00002ae8       ?numFields@@3HA            004abae8   feetstat.obj
 0003:00002aec       ?sign@@3HA                 004abaec   feetstat.obj
 0003:00002af0       ?initTable@@3PAUStateTransTable@@A 004abaf0   feetstat.obj
 0003:00002da0       ?_eventsinkEntryCount@CZoneEditor@@0IA 004abda0   ZoneEditor.obj
 0003:00002edc       ?className@Ptg3DConeObj@@2PADA 004abedc   Ptg3DConeObj.obj
 0003:00002f50       ?tsumdx@@3NA               004abf50   photog_math.obj
 0003:00002f58       ?tsumdy@@3NA               004abf58   photog_math.obj
 0003:00002f60       ?tsumxsqr@@3NA             004abf60   photog_math.obj
 0003:00002f68       ?tsumysqr@@3NA             004abf68   photog_math.obj
 0003:00002f70       ?tnum@@3HA                 004abf70   photog_math.obj
 0003:000044a0       ?className@Ptg3DCtorObj@@2PADA 004ad4a0   Ptg3DCtorObj.obj
 0003:000048e8       ?eleHandlers@@3PAUeleCB@@A 004ad8e8   importreview.obj
 0003:000049a0       ?materialMap@@3PAY02MA     004ad9a0   importreview.obj
 0003:00004ee0       ?m_mode@CFotobrowView@@2HA 004adee0   fotobvw.obj
 0003:00004f00       ?_dispatchEntryCount@CFotobrowView@@0IA 004adf00   fotobvw.obj
 0003:00004f04       ?_dwStockPropMask@CFotobrowView@@0KA 004adf04   fotobvw.obj
 0003:00005100       ?className@HierElem@@2PADA 004ae100   HierElem.obj
 0003:00005128       ?str@@3PAPADA              004ae128   CreateCylinderByEdgeDlg.obj
 0003:00005660       ?className@Ptg3DCylinderObj@@2PADA 004ae660   Ptg3DCylinderObj.obj
 0003:00005688       ?_dispatchEntryCount@CBundleCalcDlg@@0IA 004ae688   BundleCalcDlg.obj
 0003:0000568c       ?_dwStockPropMask@CBundleCalcDlg@@0KA 004ae68c   BundleCalcDlg.obj
 0003:00005744       ?n_vect@@3HA               004ae744   mathsubs.obj
 0003:00005748       ?n_mat@@3HA                004ae748   mathsubs.obj
 0003:000059e4       ?DbPtr@rvqLiteDb@@2PAVStoreDb@@A 004ae9e4   rvqLite.obj
 0003:0000651c       ?className@Ptg3DRtorObj@@2PADA 004af51c   Ptg3DRtorObj.obj
 0003:00006770       ?className@Ptg3DLineObj@@2PADA 004af770   Ptg3DLineObj.obj
 0003:00006788       ?color_bmps@@3PAHA         004af788   treemenu.obj
 0003:00006a8c       ?className@Ptg3DPyramidObj@@2PADA 004afa8c   Ptg3DPyramidObj.obj
 0003:00006bf0       ??_C@_0BG@KLJB@Select?5an?5Application?$AA@ 004afbf0   RadiographyData.obj
 0003:00006c20       ?className@Ptg3DCalcPointObj@@2PADA 004afc20   Ptg3DCalcPointObj.obj
 0003:00006c38       ?className@Ptg3DFacetObj@@2PADA 004afc38   Ptg3DFacetObj.obj
 0003:00006c5c       ?_dispatchEntryCount@CFotogDoc@@0IA 004afc5c   fotogdoc.obj
 0003:00006c60       ?_dwStockPropMask@CFotogDoc@@0KA 004afc60   fotogdoc.obj
 0003:00006c70       ?pfnSuper@CMyMdi@@2P6GJPAUHWND__@@IIJ@ZA 004afc70   mymdi.obj
 0003:00006d68       ?className@Ptg3DBoxObj@@2PADA 004afd68   Ptg3DBoxObj.obj
 0003:00006da0       ___win32sflag              004afda0   msvcrt:atonexit.obj
 0003:00006db0       __dowildcard               004afdb0   msvcrt:wildcard.obj
 0003:00006db4       __newmode                  004afdb4   msvcrt:_newmode.obj
 0003:00006db8       ___defaultmatherr          004afdb8   msvcrt:merr.obj
 0003:00006dbc       __commode                  004afdbc   msvcrt:xncommod.obj
 0003:00006dc0       __fmode                    004afdc0   msvcrt:xtxtmode.obj
 0003:00006dc8       ?hpal@@3PAUHPALETTE__@@A   004afdc8   paletteOGL.obj
 0003:00006dd0       ?hDataTable@@3PAUHINSTANCE__@@A 004afdd0   mainfrm.obj
 0003:00006dd8       ?str@@3PADA                004afdd8   mainfrm.obj
 0003:00006e18       ?theApp@@3VCFotobrowApp@@A 004afe18   fotobrow.obj
 0003:00006ff0       ?dbn@@3HA                  004afff0   fotobrow.obj
 0003:00006ff4       ?t@@3PAVTritonTask@@A      004afff4   fotobrow.obj
 0003:00006ff8       ?hMainCursor@@3PAUHICON__@@A 004afff8   fotobrow.obj
 0003:00007020       ?Mytask@@3UDB_TASK_S@@A    004b0020   fotobrow.obj
 0003:00007048       ?TheLine@@3PAY02NA         004b0048   fotoview.obj
 0003:00007090       ?minmaxNames@@3PAY02PADA   004b0090   fotoview.obj
 0003:000070a8       ?radius@@3NA               004b00a8   fotoview.obj
 0003:00007170       ?bundle_name@@3PADA        004b0170   calc3dp.obj
 0003:00007210       ?field@@3PADA              004b0210   feetstat.obj
 0003:00008210       ?denominator@@3NA          004b1210   feetstat.obj
 0003:00008218       ?whole_inches@@3NA         004b1218   feetstat.obj
 0003:00008220       ?numerator@@3NA            004b1220   feetstat.obj
 0003:00008228       ?temp@@3PADA               004b1228   feetstat.obj
 0003:000082a8       ?tempField@@3PAY0EAA@DA    004b12a8   feetstat.obj
 0003:00008aa8       ?feet@@3NA                 004b1aa8   feetstat.obj
 0003:00008ab0       ?env@@3PAHA                004b1ab0   photog_math.obj
 0003:00008b40       ?mode_holder@@3HA          004b1b40   fotobvw.obj
 0003:00008bf8       ?c_bShowSplashWnd@CSplashWnd@@1HA 004b1bf8   Splash.obj
 0003:00008bfc       ?c_pSplashWnd@CSplashWnd@@1PAV1@A 004b1bfc   Splash.obj
 0003:00008c00       ?debugOutputLevel@@3HA     004b1c00   output.obj
 0003:00008c04       ?outputLevel@@3HA          004b1c04   output.obj
 0003:00008c08       __afxForceEXCLUDE          004b1c08   mfcs42:nolib.obj
 0003:00008c0c       __afxForceSTDAFX           004b1c0c   mfcs42:stdafx.obj
 0003:00008c10       ?_afxTermAppState@@3V_AFX_TERM_APP_STATE@@A 004b1c10   mfcs42:appmodul.obj
 0003:00008c14       __adjust_fdiv              004b1c14   <common>
 0003:00008c18       ___onexitend               004b1c18   <common>
 0003:00008c1c       ___onexitbegin             004b1c1c   <common>
 0004:00000000       RDMWIN32_IMPORT_DESCRIPTOR 004b2000   rdmwin32:RDMWIN32.DLL
 0004:00000014       OMRDM_IMPORT_DESCRIPTOR    004b2014   omrdmimp:OMRDM.dll
 0004:00000028       __IMPORT_DESCRIPTOR_GLU32  004b2028   glu32:GLU32.dll
 0004:0000003c       __IMPORT_DESCRIPTOR_OPENGL32 004b203c   opengl32:OPENGL32.dll
 0004:00000050       __IMPORT_DESCRIPTOR_MPR    004b2050   mpr:MPR.dll
 0004:00000064       __IMPORT_DESCRIPTOR_pm3dgnInterface 004b2064   pm3dgnInterface:pm3dgnInterface.dll
 0004:00000078       __IMPORT_DESCRIPTOR_MFC42  004b2078   mfc42:MFC42.DLL
 0004:0000008c       __IMPORT_DESCRIPTOR_MSVCRT 004b208c   msvcrt:MSVCRT.dll
 0004:000000a0       __IMPORT_DESCRIPTOR_KERNEL32 004b20a0   kernel32:KERNEL32.dll
 0004:000000b4       __IMPORT_DESCRIPTOR_USER32 004b20b4   user32:USER32.dll
 0004:000000c8       __IMPORT_DESCRIPTOR_GDI32  004b20c8   gdi32:GDI32.dll
 0004:000000dc       __IMPORT_DESCRIPTOR_ADVAPI32 004b20dc   advapi32:ADVAPI32.dll
 0004:000000f0       __IMPORT_DESCRIPTOR_COMCTL32 004b20f0   comctl32:COMCTL32.dll
 0004:00000104       __IMPORT_DESCRIPTOR_OLEAUT32 004b2104   oleaut32:OLEAUT32.dll
 0004:00000118       NULL_IMPORT_DESCRIPTOR     004b2118   rdmwin32:RDMWIN32.DLL
 0004:0000012c       __NULL_IMPORT_DESCRIPTOR   004b212c   glu32:GLU32.dll
 0004:0000104c       __imp__RegSetValueExA@24   004b304c   advapi32:ADVAPI32.dll
 0004:00001050       __imp__RegCloseKey@4       004b3050   advapi32:ADVAPI32.dll
 0004:00001054       __imp__RegSetValueA@20     004b3054   advapi32:ADVAPI32.dll
 0004:00001058       __imp__RegOpenKeyExA@20    004b3058   advapi32:ADVAPI32.dll
 0004:0000105c       __imp__RegEnumKeyExA@32    004b305c   advapi32:ADVAPI32.dll
 0004:00001060       __imp__RegCreateKeyExA@36  004b3060   advapi32:ADVAPI32.dll
 0004:00001064       __imp__RegQueryValueExA@24 004b3064   advapi32:ADVAPI32.dll
 0004:00001068       \177ADVAPI32_NULL_THUNK_DATA 004b3068   advapi32:ADVAPI32.dll
 0004:0000106c       __imp__ImageList_Create@20 004b306c   comctl32:COMCTL32.dll
 0004:00001070       __imp__ImageList_Add@12    004b3070   comctl32:COMCTL32.dll
 0004:00001074       __imp__ImageList_Destroy@4 004b3074   comctl32:COMCTL32.dll
 0004:00001078       \177COMCTL32_NULL_THUNK_DATA 004b3078   comctl32:COMCTL32.dll
 0004:0000107c       __imp__GetPaletteEntries@16 004b307c   gdi32:GDI32.dll
 0004:00001080       __imp__SetBrushOrgEx@16    004b3080   gdi32:GDI32.dll
 0004:00001084       __imp__GetTextExtentPoint32A@16 004b3084   gdi32:GDI32.dll
 0004:00001088       __imp__SetTextColor@8      004b3088   gdi32:GDI32.dll
 0004:0000108c       __imp__SetBkColor@8        004b308c   gdi32:GDI32.dll
 0004:00001090       __imp__CreateBitmap@20     004b3090   gdi32:GDI32.dll
 0004:00001094       __imp__ExtTextOutA@32      004b3094   gdi32:GDI32.dll
 0004:00001098       __imp__BitBlt@36           004b3098   gdi32:GDI32.dll
 0004:0000109c       __imp__DeleteDC@4          004b309c   gdi32:GDI32.dll
 0004:000010a0       __imp__SetWindowOrgEx@16   004b30a0   gdi32:GDI32.dll
 0004:000010a4       __imp__SelectObject@8      004b30a4   gdi32:GDI32.dll
 0004:000010a8       __imp__SetStretchBltMode@8 004b30a8   gdi32:GDI32.dll
 0004:000010ac       __imp__CreateSolidBrush@4  004b30ac   gdi32:GDI32.dll
 0004:000010b0       __imp__CreateHatchBrush@8  004b30b0   gdi32:GDI32.dll
 0004:000010b4       __imp__PatBlt@24           004b30b4   gdi32:GDI32.dll
 0004:000010b8       __imp__ResizePalette@8     004b30b8   gdi32:GDI32.dll
 0004:000010bc       __imp__SetPaletteEntries@16 004b30bc   gdi32:GDI32.dll
 0004:000010c0       __imp__GetDeviceCaps@8     004b30c0   gdi32:GDI32.dll
 0004:000010c4       __imp__SetSystemPaletteUse@8 004b30c4   gdi32:GDI32.dll
 0004:000010c8       __imp__GetSystemPaletteEntries@16 004b30c8   gdi32:GDI32.dll
 0004:000010cc       __imp__Rectangle@20        004b30cc   gdi32:GDI32.dll
 0004:000010d0       __imp__UpdateColors@4      004b30d0   gdi32:GDI32.dll
 0004:000010d4       __imp__SwapBuffers@4       004b30d4   gdi32:GDI32.dll
 0004:000010d8       __imp__DescribePixelFormat@16 004b30d8   gdi32:GDI32.dll
 0004:000010dc       __imp__CreatePalette@4     004b30dc   gdi32:GDI32.dll
 0004:000010e0       __imp__SelectPalette@12    004b30e0   gdi32:GDI32.dll
 0004:000010e4       __imp__RealizePalette@4    004b30e4   gdi32:GDI32.dll
 0004:000010e8       __imp__ChoosePixelFormat@8 004b30e8   gdi32:GDI32.dll
 0004:000010ec       __imp__SetPixelFormat@12   004b30ec   gdi32:GDI32.dll
 0004:000010f0       __imp__DeleteObject@4      004b30f0   gdi32:GDI32.dll
 0004:000010f4       __imp__GetNearestPaletteIndex@8 004b30f4   gdi32:GDI32.dll
 0004:000010f8       __imp__StretchDIBits@52    004b30f8   gdi32:GDI32.dll
 0004:000010fc       __imp__StretchBlt@44       004b30fc   gdi32:GDI32.dll
 0004:00001100       __imp__GetTextMetricsA@8   004b3100   gdi32:GDI32.dll
 0004:00001104       __imp__CreateCompatibleDC@4 004b3104   gdi32:GDI32.dll
 0004:00001108       __imp__GetObjectA@12       004b3108   gdi32:GDI32.dll
 0004:0000110c       \177GDI32_NULL_THUNK_DATA  004b310c   gdi32:GDI32.dll
 0004:00001110       __imp__gluDeleteQuadric@4  004b3110   glu32:GLU32.dll
 0004:00001114       __imp__gluNewNurbsRenderer@0 004b3114   glu32:GLU32.dll
 0004:00001118       __imp__gluNurbsCallback@12 004b3118   glu32:GLU32.dll
 0004:0000111c       __imp__gluQuadricDrawStyle@8 004b311c   glu32:GLU32.dll
 0004:00001120       __imp__gluNewQuadric@0     004b3120   glu32:GLU32.dll
 0004:00001124       __imp__gluCylinder@36      004b3124   glu32:GLU32.dll
 0004:00001128       __imp__gluDeleteTess@4     004b3128   glu32:GLU32.dll
 0004:0000112c       __imp__gluEndPolygon@4     004b312c   glu32:GLU32.dll
 0004:00001130       __imp__gluTessVertex@12    004b3130   glu32:GLU32.dll
 0004:00001134       __imp__gluBeginPolygon@4   004b3134   glu32:GLU32.dll
 0004:00001138       __imp__gluTessCallback@12  004b3138   glu32:GLU32.dll
 0004:0000113c       __imp__gluNewTess@0        004b313c   glu32:GLU32.dll
 0004:00001140       __imp__gluErrorString@4    004b3140   glu32:GLU32.dll
 0004:00001144       __imp__gluPerspective@32   004b3144   glu32:GLU32.dll
 0004:00001148       __imp__gluOrtho2D@32       004b3148   glu32:GLU32.dll
 0004:0000114c       __imp__gluPickMatrix@36    004b314c   glu32:GLU32.dll
 0004:00001150       __imp__gluDisk@28          004b3150   glu32:GLU32.dll
 0004:00001154       __imp__gluDeleteNurbsRenderer@4 004b3154   glu32:GLU32.dll
 0004:00001158       __imp__gluNurbsSurface@44  004b3158   glu32:GLU32.dll
 0004:0000115c       __imp__gluNurbsProperty@12 004b315c   glu32:GLU32.dll
 0004:00001160       __imp__gluBeginSurface@4   004b3160   glu32:GLU32.dll
 0004:00001164       __imp__gluEndSurface@4     004b3164   glu32:GLU32.dll
 0004:00001168       \177GLU32_NULL_THUNK_DATA  004b3168   glu32:GLU32.dll
 0004:0000116c       __imp__OpenEventA@12       004b316c   kernel32:KERNEL32.dll
 0004:00001170       __imp__FreeLibrary@4       004b3170   kernel32:KERNEL32.dll
 0004:00001174       __imp__WaitForSingleObject@8 004b3174   kernel32:KERNEL32.dll
 0004:00001178       __imp__CreateEventA@16     004b3178   kernel32:KERNEL32.dll
 0004:0000117c       __imp__GetLastError@0      004b317c   kernel32:KERNEL32.dll
 0004:00001180       __imp__HeapFree@12         004b3180   kernel32:KERNEL32.dll
 0004:00001184       __imp__HeapAlloc@12        004b3184   kernel32:KERNEL32.dll
 0004:00001188       __imp__GetProcessHeap@0    004b3188   kernel32:KERNEL32.dll
 0004:0000118c       __imp__lstrlenA@4          004b318c   kernel32:KERNEL32.dll
 0004:00001190       __imp__GetCurrentDirectoryA@8 004b3190   kernel32:KERNEL32.dll
 0004:00001194       __imp__CreateProcessA@40   004b3194   kernel32:KERNEL32.dll
 0004:00001198       __imp__Sleep@4             004b3198   kernel32:KERNEL32.dll
 0004:0000119c       __imp__GetVersion@0        004b319c   kernel32:KERNEL32.dll
 0004:000011a0       __imp__GetModuleHandleA@4  004b31a0   kernel32:KERNEL32.dll
 0004:000011a4       __imp__GetStartupInfoA@4   004b31a4   kernel32:KERNEL32.dll
 0004:000011a8       __imp__SetEvent@4          004b31a8   kernel32:KERNEL32.dll
 0004:000011ac       \177KERNEL32_NULL_THUNK_DATA 004b31ac   kernel32:KERNEL32.dll
 0004:000011b0       __imp_?Default@CWnd@@IAEJXZ 004b31b0   mfc42:MFC42.DLL
 0004:000011b4       __imp_??1CWinApp@@UAE@XZ   004b31b4   mfc42:MFC42.DLL
 0004:000011b8       __imp_??1CObList@@UAE@XZ   004b31b8   mfc42:MFC42.DLL
 0004:000011bc       __imp_?OnCreate@CFrameWnd@@IAEHPAUtagCREATESTRUCTA@@@Z 004b31bc   mfc42:MFC42.DLL
 0004:000011c0       __imp_?ActivateFrame@CMDIChildWnd@@UAEXH@Z 004b31c0   mfc42:MFC42.DLL
 0004:000011c4       __imp_?SetRange@CSliderCtrl@@QAEXHHH@Z 004b31c4   mfc42:MFC42.DLL
 0004:000011c8       __imp_?DDX_Text@@YGXPAVCDataExchange@@HAAM@Z 004b31c8   mfc42:MFC42.DLL
 0004:000011cc       __imp_?GetRuntimeClass@CSliderCtrl@@UBEPAUCRuntimeClass@@XZ 004b31cc   mfc42:MFC42.DLL
 0004:000011d0       __imp_?InvokeHelper@CWnd@@QAAXJGGPAXPBEZZ 004b31d0   mfc42:MFC42.DLL
 0004:000011d4       __imp_?SetProperty@CWnd@@QAAXJGZZ 004b31d4   mfc42:MFC42.DLL
 0004:000011d8       __imp_?GetProperty@CWnd@@QBEXJGPAX@Z 004b31d8   mfc42:MFC42.DLL
 0004:000011dc       __imp_?classCWnd@CWnd@@2UCRuntimeClass@@B 004b31dc   mfc42:MFC42.DLL
 0004:000011e0       __imp_?CreateControl@CWnd@@QAEHABU_GUID@@PBDKABUtagRECT@@PAV1@IPAVCFile@@HPAG@Z 004b31e0   mfc42:MFC42.DLL
 0004:000011e4       __imp_?CenterWindow@CWnd@@QAEXPAV1@@Z 004b31e4   mfc42:MFC42.DLL
 0004:000011e8       __imp_?AfxGetThread@@YGPAVCWinThread@@XZ 004b31e8   mfc42:MFC42.DLL
 0004:000011ec       __imp_?AfxRegisterWndClass@@YGPBDIPAUHICON__@@PAUHBRUSH__@@0@Z 004b31ec   mfc42:MFC42.DLL
 0004:000011f0       __imp_?CreateEx@CWnd@@QAEHKPBD0KHHHHPAUHWND__@@PAUHMENU__@@PAX@Z 004b31f0   mfc42:MFC42.DLL
 0004:000011f4       __imp_?messageMap@CWnd@@1UAFX_MSGMAP@@B 004b31f4   mfc42:MFC42.DLL
 0004:000011f8       __imp_?GetRuntimeClass@CWnd@@UBEPAUCRuntimeClass@@XZ 004b31f8   mfc42:MFC42.DLL
 0004:000011fc       __imp_??YCString@@QAEABV0@ABV0@@Z 004b31fc   mfc42:MFC42.DLL
 0004:00001200       __imp_?GetRuntimeClass@CFileDialog@@UBEPAUCRuntimeClass@@XZ 004b3200   mfc42:MFC42.DLL
 0004:00001204       __imp_?GetMessageMap@CCommonDialog@@MBEPBUAFX_MSGMAP@@XZ 004b3204   mfc42:MFC42.DLL
 0004:00001208       __imp_?OnNotify@CFileDialog@@MAEHIJPAJ@Z 004b3208   mfc42:MFC42.DLL
 0004:0000120c       __imp_?OnOK@CCommonDialog@@MAEXXZ 004b320c   mfc42:MFC42.DLL
 0004:00001210       __imp_?OnCancel@CCommonDialog@@MAEXXZ 004b3210   mfc42:MFC42.DLL
 0004:00001214       __imp_?OnShareViolation@CFileDialog@@MAEIPBD@Z 004b3214   mfc42:MFC42.DLL
 0004:00001218       __imp_?OnFileNameOK@CFileDialog@@MAEHXZ 004b3218   mfc42:MFC42.DLL
 0004:0000121c       __imp_?OnLBSelChangedNotify@CFileDialog@@MAEXIII@Z 004b321c   mfc42:MFC42.DLL
 0004:00001220       __imp_?OnInitDone@CFileDialog@@MAEXXZ 004b3220   mfc42:MFC42.DLL
 0004:00001224       __imp_?OnFileNameChange@CFileDialog@@MAEXXZ 004b3224   mfc42:MFC42.DLL
 0004:00001228       __imp_?OnFolderChange@CFileDialog@@MAEXXZ 004b3228   mfc42:MFC42.DLL
 0004:0000122c       __imp_?OnTypeChange@CFileDialog@@MAEXXZ 004b322c   mfc42:MFC42.DLL
 0004:00001230       __imp_?AddPage@CPropertySheet@@QAEXPAVCPropertyPage@@@Z 004b3230   mfc42:MFC42.DLL
 0004:00001234       __imp_?Create@CPropertySheet@@QAEHPAVCWnd@@KK@Z 004b3234   mfc42:MFC42.DLL
 0004:00001238       __imp_?SetFocus@CWnd@@QAEPAV1@XZ 004b3238   mfc42:MFC42.DLL
 0004:0000123c       __imp_?FromHandle@CMenu@@SGPAV1@PAUHMENU__@@@Z 004b323c   mfc42:MFC42.DLL
 0004:00001240       __imp_?TrackPopupMenu@CMenu@@QAEHIHHPAVCWnd@@PBUtagRECT@@@Z 004b3240   mfc42:MFC42.DLL
 0004:00001244       __imp_?SetDlgItemTextA@CWnd@@QAEXHPBD@Z 004b3244   mfc42:MFC42.DLL
 0004:00001248       __imp_?interfaceMap@CCmdTarget@@1UAFX_INTERFACEMAP@@B 004b3248   mfc42:MFC42.DLL
 0004:0000124c       __imp_?GetText@CListBox@@QBEXHAAVCString@@@Z 004b324c   mfc42:MFC42.DLL
 0004:00001250       __imp_??YCString@@QAEABV0@PBD@Z 004b3250   mfc42:MFC42.DLL
 0004:00001254       __imp_?GetRuntimeClass@CButton@@UBEPAUCRuntimeClass@@XZ 004b3254   mfc42:MFC42.DLL
 0004:00001258       __imp_?OnChildNotify@CButton@@MAEHIIJPAJ@Z 004b3258   mfc42:MFC42.DLL
 0004:0000125c       __imp_?DrawItem@CButton@@UAEXPAUtagDRAWITEMSTRUCT@@@Z 004b325c   mfc42:MFC42.DLL
 0004:00001260       __imp_?Detach@CMenu@@QAEPAUHMENU__@@XZ 004b3260   mfc42:MFC42.DLL
 0004:00001264       __imp_?Attach@CMenu@@QAEHPAUHMENU__@@@Z 004b3264   mfc42:MFC42.DLL
 0004:00001268       __imp_?DestroyMenu@CMenu@@QAEHXZ 004b3268   mfc42:MFC42.DLL
 0004:0000126c       __imp_?DrawItem@CMenu@@UAEXPAUtagDRAWITEMSTRUCT@@@Z 004b326c   mfc42:MFC42.DLL
 0004:00001270       __imp_?MeasureItem@CMenu@@UAEXPAUtagMEASUREITEMSTRUCT@@@Z 004b3270   mfc42:MFC42.DLL
 0004:00001274       __imp_?GetRuntimeClass@CMenu@@UBEPAUCRuntimeClass@@XZ 004b3274   mfc42:MFC42.DLL
 0004:00001278       __imp_?classCDialogBar@CDialogBar@@2UCRuntimeClass@@B 004b3278   mfc42:MFC42.DLL
 0004:0000127c       __imp_?messageMap@CPropertyPage@@1UAFX_MSGMAP@@B 004b327c   mfc42:MFC42.DLL
 0004:00001280       __imp_??0CPropertyPage@@QAE@II@Z 004b3280   mfc42:MFC42.DLL
 0004:00001284       __imp_??1CPropertyPage@@UAE@XZ 004b3284   mfc42:MFC42.DLL
 0004:00001288       __imp_?OnNotify@CPropertyPage@@MAEHIJPAJ@Z 004b3288   mfc42:MFC42.DLL
 0004:0000128c       __imp_?PreTranslateMessage@CPropertyPage@@MAEHPAUtagMSG@@@Z 004b328c   mfc42:MFC42.DLL
 0004:00001290       __imp_?OnOK@CPropertyPage@@UAEXXZ 004b3290   mfc42:MFC42.DLL
 0004:00001294       __imp_?OnCancel@CPropertyPage@@UAEXXZ 004b3294   mfc42:MFC42.DLL
 0004:00001298       __imp_?OnApply@CPropertyPage@@UAEHXZ 004b3298   mfc42:MFC42.DLL
 0004:0000129c       __imp_?OnReset@CPropertyPage@@UAEXXZ 004b329c   mfc42:MFC42.DLL
 0004:000012a0       __imp_?OnSetActive@CPropertyPage@@UAEHXZ 004b32a0   mfc42:MFC42.DLL
 0004:000012a4       __imp_?OnKillActive@CPropertyPage@@UAEHXZ 004b32a4   mfc42:MFC42.DLL
 0004:000012a8       __imp_?OnQueryCancel@CPropertyPage@@UAEHXZ 004b32a8   mfc42:MFC42.DLL
 0004:000012ac       __imp_?OnWizardBack@CPropertyPage@@UAEJXZ 004b32ac   mfc42:MFC42.DLL
 0004:000012b0       __imp_?OnWizardNext@CPropertyPage@@UAEJXZ 004b32b0   mfc42:MFC42.DLL
 0004:000012b4       __imp_?OnWizardFinish@CPropertyPage@@UAEHXZ 004b32b4   mfc42:MFC42.DLL
 0004:000012b8       __imp_?classCPropertyPage@CPropertyPage@@2UCRuntimeClass@@B 004b32b8   mfc42:MFC42.DLL
 0004:000012bc       __imp_?Create@CPlex@@SGPAU1@AAPAU1@II@Z 004b32bc   mfc42:MFC42.DLL
 0004:000012c0       __imp_?Write@CArchive@@QAEXPBXI@Z 004b32c0   mfc42:MFC42.DLL
 0004:000012c4       __imp_?Read@CArchive@@QAEIPAXI@Z 004b32c4   mfc42:MFC42.DLL
 0004:000012c8       __imp_?WriteCount@CArchive@@QAEXK@Z 004b32c8   mfc42:MFC42.DLL
 0004:000012cc       __imp_?ReadCount@CArchive@@QAEKXZ 004b32cc   mfc42:MFC42.DLL
 0004:000012d0       __imp_??0CString@@QAE@PBD@Z 004b32d0   mfc42:MFC42.DLL
 0004:000012d4       __imp_?MakeLower@CString@@QAEXXZ 004b32d4   mfc42:MFC42.DLL
 0004:000012d8       __imp_?messageMap@CPropertySheet@@1UAFX_MSGMAP@@B 004b32d8   mfc42:MFC42.DLL
 0004:000012dc       __imp_??0CPropertySheet@@QAE@PBDPAVCWnd@@I@Z 004b32dc   mfc42:MFC42.DLL
 0004:000012e0       __imp_??0CPropertySheet@@QAE@IPAVCWnd@@I@Z 004b32e0   mfc42:MFC42.DLL
 0004:000012e4       __imp_??1CPropertySheet@@UAE@XZ 004b32e4   mfc42:MFC42.DLL
 0004:000012e8       __imp_?OnCmdMsg@CPropertySheet@@UAEHIHPAXPAUAFX_CMDHANDLERINFO@@@Z 004b32e8   mfc42:MFC42.DLL
 0004:000012ec       __imp_?ContinueModal@CPropertySheet@@UAEHXZ 004b32ec   mfc42:MFC42.DLL
 0004:000012f0       __imp_?OnCommand@CPropertySheet@@UAEHIJ@Z 004b32f0   mfc42:MFC42.DLL
 0004:000012f4       __imp_?PreTranslateMessage@CPropertySheet@@UAEHPAUtagMSG@@@Z 004b32f4   mfc42:MFC42.DLL
 0004:000012f8       __imp_?DoModal@CPropertySheet@@UAEHXZ 004b32f8   mfc42:MFC42.DLL
 0004:000012fc       __imp_?BuildPropPageArray@CPropertySheet@@UAEXXZ 004b32fc   mfc42:MFC42.DLL
 0004:00001300       __imp_?OnInitDialog@CPropertySheet@@UAEHXZ 004b3300   mfc42:MFC42.DLL
 0004:00001304       __imp_?classCPropertySheet@CPropertySheet@@2UCRuntimeClass@@B 004b3304   mfc42:MFC42.DLL
 0004:00001308       __imp_?AddTail@CPtrList@@QAEPAU__POSITION@@PAX@Z 004b3308   mfc42:MFC42.DLL
 0004:0000130c       __imp_??0CStdioFile@@QAE@PBDI@Z 004b330c   mfc42:MFC42.DLL
 0004:00001310       __imp_?WriteString@CStdioFile@@UAEXPBD@Z 004b3310   mfc42:MFC42.DLL
 0004:00001314       __imp_?GetRuntimeClass@CBrush@@UBEPAUCRuntimeClass@@XZ 004b3314   mfc42:MFC42.DLL
 0004:00001318       __imp_??0CBrush@@QAE@K@Z   004b3318   mfc42:MFC42.DLL
 0004:0000131c       __imp_?SelectObject@CDC@@QAEPAVCBrush@@PAV2@@Z 004b331c   mfc42:MFC42.DLL
 0004:00001320       __imp_?GetRuntimeClass@CPalette@@UBEPAUCRuntimeClass@@XZ 004b3320   mfc42:MFC42.DLL
 0004:00001324       __imp_??1CSliderCtrl@@UAE@XZ 004b3324   mfc42:MFC42.DLL
 0004:00001328       __imp_?OnScroll@CView@@UAEHIIH@Z 004b3328   mfc42:MFC42.DLL
 0004:0000132c       __imp_?OnVScroll@CWnd@@IAEXIIPAVCScrollBar@@@Z 004b332c   mfc42:MFC42.DLL
 0004:00001330       __imp_?OnHScroll@CWnd@@IAEXIIPAVCScrollBar@@@Z 004b3330   mfc42:MFC42.DLL
 0004:00001334       __imp_?GetScrollPos@CWnd@@QBEHH@Z 004b3334   mfc42:MFC42.DLL
 0004:00001338       __imp_?OnInitialUpdate@CView@@UAEXXZ 004b3338   mfc42:MFC42.DLL
 0004:0000133c       __imp_?OnCreate@CView@@IAEHPAUtagCREATESTRUCTA@@@Z 004b333c   mfc42:MFC42.DLL
 0004:00001340       __imp_?SetScrollRange@CWnd@@QAEXHHHH@Z 004b3340   mfc42:MFC42.DLL
 0004:00001344       __imp_?SetScrollPos@CWnd@@QAEHHHH@Z 004b3344   mfc42:MFC42.DLL
 0004:00001348       __imp_?SelectPalette@CDC@@QAEPAVCPalette@@PAV2@H@Z 004b3348   mfc42:MFC42.DLL
 0004:0000134c       __imp_?messageMap@CView@@1UAFX_MSGMAP@@B 004b334c   mfc42:MFC42.DLL
 0004:00001350       __imp_??0CView@@IAE@XZ     004b3350   mfc42:MFC42.DLL
 0004:00001354       __imp_??1CView@@UAE@XZ     004b3354   mfc42:MFC42.DLL
 0004:00001358       __imp_?CalcWindowRect@CView@@UAEXPAUtagRECT@@I@Z 004b3358   mfc42:MFC42.DLL
 0004:0000135c       __imp_?OnScrollBy@CView@@UAEHVCSize@@H@Z 004b335c   mfc42:MFC42.DLL
 0004:00001360       __imp_?OnPrepareDC@CView@@UAEXPAVCDC@@PAUCPrintInfo@@@Z 004b3360   mfc42:MFC42.DLL
 0004:00001364       __imp_?OnActivateFrame@CView@@MAEXIPAVCFrameWnd@@@Z 004b3364   mfc42:MFC42.DLL
 0004:00001368       __imp_?classCView@CView@@2UCRuntimeClass@@B 004b3368   mfc42:MFC42.DLL
 0004:0000136c       __imp_?EnableWindow@CWnd@@QAEHH@Z 004b336c   mfc42:MFC42.DLL
 0004:00001370       __imp_?Create@CDialogBar@@QAEHPAVCWnd@@PBDII@Z 004b3370   mfc42:MFC42.DLL
 0004:00001374       __imp_??0COleVariant@@QAE@ABV0@@Z 004b3374   mfc42:MFC42.DLL
 0004:00001378       __imp_?messageMap@CDialogBar@@1UAFX_MSGMAP@@B 004b3378   mfc42:MFC42.DLL
 0004:0000137c       __imp_??0CDialogBar@@QAE@XZ 004b337c   mfc42:MFC42.DLL
 0004:00001380       __imp_??1CDialogBar@@UAE@XZ 004b3380   mfc42:MFC42.DLL
 0004:00001384       __imp_?GetRuntimeClass@CDialogBar@@UBEPAUCRuntimeClass@@XZ 004b3384   mfc42:MFC42.DLL
 0004:00001388       __imp_?DestroyWindow@CControlBar@@UAEHXZ 004b3388   mfc42:MFC42.DLL
 0004:0000138c       __imp_?PreCreateWindow@CControlBar@@UAEHAAUtagCREATESTRUCTA@@@Z 004b338c   mfc42:MFC42.DLL
 0004:00001390       __imp_?PreTranslateMessage@CControlBar@@UAEHPAUtagMSG@@@Z 004b3390   mfc42:MFC42.DLL
 0004:00001394       __imp_?WindowProc@CControlBar@@UAEJIIJ@Z 004b3394   mfc42:MFC42.DLL
 0004:00001398       __imp_?PostNcDestroy@CControlBar@@UAEXXZ 004b3398   mfc42:MFC42.DLL
 0004:0000139c       __imp_?SetOccDialogInfo@CDialogBar@@MAEHPAU_AFX_OCC_DIALOG_INFO@@@Z 004b339c   mfc42:MFC42.DLL
 0004:000013a0       __imp_?CalcFixedLayout@CDialogBar@@UAE?AVCSize@@HH@Z 004b33a0   mfc42:MFC42.DLL
 0004:000013a4       __imp_?CalcDynamicLayout@CControlBar@@UAE?AVCSize@@HK@Z 004b33a4   mfc42:MFC42.DLL
 0004:000013a8       __imp_?OnUpdateCmdUI@CDialogBar@@UAEXPAVCFrameWnd@@H@Z 004b33a8   mfc42:MFC42.DLL
 0004:000013ac       __imp_?DelayShow@CControlBar@@UAEXH@Z 004b33ac   mfc42:MFC42.DLL
 0004:000013b0       __imp_?IsVisible@CControlBar@@UBEHXZ 004b33b0   mfc42:MFC42.DLL
 0004:000013b4       __imp_?RecalcDelayShow@CControlBar@@UAEKPAUAFX_SIZEPARENTPARAMS@@@Z 004b33b4   mfc42:MFC42.DLL
 0004:000013b8       __imp_?IsDockBar@CControlBar@@UBEHXZ 004b33b8   mfc42:MFC42.DLL
 0004:000013bc       __imp_?OnBarStyleChange@CControlBar@@UAEXKK@Z 004b33bc   mfc42:MFC42.DLL
 0004:000013c0       __imp_?DoPaint@CControlBar@@UAEXPAVCDC@@@Z 004b33c0   mfc42:MFC42.DLL
 0004:000013c4       __imp_?SetStatusText@CControlBar@@UAEHH@Z 004b33c4   mfc42:MFC42.DLL
 0004:000013c8       __imp_?GetWindowTextA@CWnd@@QBEXAAVCString@@@Z 004b33c8   mfc42:MFC42.DLL
 0004:000013cc       __imp_?DDX_CBString@@YGXPAVCDataExchange@@HAAVCString@@@Z 004b33cc   mfc42:MFC42.DLL
 0004:000013d0       __imp_?Fail@CDataExchange@@QAEXXZ 004b33d0   mfc42:MFC42.DLL
 0004:000013d4       __imp_?DDX_Text@@YGXPAVCDataExchange@@HAAN@Z 004b33d4   mfc42:MFC42.DLL
 0004:000013d8       __imp_?DDX_Text@@YGXPAVCDataExchange@@HAAH@Z 004b33d8   mfc42:MFC42.DLL
 0004:000013dc       __imp_?DDX_Text@@YGXPAVCDataExchange@@HAAVCString@@@Z 004b33dc   mfc42:MFC42.DLL
 0004:000013e0       __imp_?FreeDataChain@CPlex@@QAEXXZ 004b33e0   mfc42:MFC42.DLL
 0004:000013e4       __imp_?RemoveKey@CMapPtrToPtr@@QAEHPAX@Z 004b33e4   mfc42:MFC42.DLL
 0004:000013e8       __imp_?OnDestroy@CView@@IAEXXZ 004b33e8   mfc42:MFC42.DLL
 0004:000013ec       __imp_?SetItem@CTreeCtrl@@QAEHPAU_TREEITEM@@IPBDHHIIJ@Z 004b33ec   mfc42:MFC42.DLL
 0004:000013f0       __imp_?HitTest@CTreeCtrl@@QBEPAU_TREEITEM@@VCPoint@@PAI@Z 004b33f0   mfc42:MFC42.DLL
 0004:000013f4       __imp_?OnCreate@CFormView@@IAEHPAUtagCREATESTRUCTA@@@Z 004b33f4   mfc42:MFC42.DLL
 0004:000013f8       __imp_?BeginWaitCursor@CCmdTarget@@QAEXXZ 004b33f8   mfc42:MFC42.DLL
 0004:000013fc       __imp_?EndWaitCursor@CCmdTarget@@QAEXXZ 004b33fc   mfc42:MFC42.DLL
 0004:00001400       __imp_?FromHandle@CImageList@@SGPAV1@PAU_IMAGELIST@@@Z 004b3400   mfc42:MFC42.DLL
 0004:00001404       __imp_??0CImageList@@QAE@XZ 004b3404   mfc42:MFC42.DLL
 0004:00001408       __imp_?Attach@CImageList@@QAEHPAU_IMAGELIST@@@Z 004b3408   mfc42:MFC42.DLL
 0004:0000140c       __imp_?DDX_CBIndex@@YGXPAVCDataExchange@@HAAH@Z 004b340c   mfc42:MFC42.DLL
 0004:00001410       __imp_?GetRuntimeClass@CTreeCtrl@@UBEPAUCRuntimeClass@@XZ 004b3410   mfc42:MFC42.DLL
 0004:00001414       __imp_?GetMessageMap@CTreeCtrl@@MBEPBUAFX_MSGMAP@@XZ 004b3414   mfc42:MFC42.DLL
 0004:00001418       __imp_?GetRuntimeClass@CComboBox@@UBEPAUCRuntimeClass@@XZ 004b3418   mfc42:MFC42.DLL
 0004:0000141c       __imp_?OnChildNotify@CComboBox@@MAEHIIJPAJ@Z 004b341c   mfc42:MFC42.DLL
 0004:00001420       __imp_?DrawItem@CComboBox@@UAEXPAUtagDRAWITEMSTRUCT@@@Z 004b3420   mfc42:MFC42.DLL
 0004:00001424       __imp_?MeasureItem@CComboBox@@UAEXPAUtagMEASUREITEMSTRUCT@@@Z 004b3424   mfc42:MFC42.DLL
 0004:00001428       __imp_?CompareItem@CComboBox@@UAEHPAUtagCOMPAREITEMSTRUCT@@@Z 004b3428   mfc42:MFC42.DLL
 0004:0000142c       __imp_?DeleteItem@CComboBox@@UAEXPAUtagDELETEITEMSTRUCT@@@Z 004b342c   mfc42:MFC42.DLL
 0004:00001430       __imp_??1CComboBox@@UAE@XZ 004b3430   mfc42:MFC42.DLL
 0004:00001434       __imp_??0CStringList@@QAE@H@Z 004b3434   mfc42:MFC42.DLL
 0004:00001438       __imp_??1CStringList@@UAE@XZ 004b3438   mfc42:MFC42.DLL
 0004:0000143c       __imp_??0CPtrList@@QAE@H@Z 004b343c   mfc42:MFC42.DLL
 0004:00001440       __imp_??0CFile@@QAE@XZ     004b3440   mfc42:MFC42.DLL
 0004:00001444       __imp_?Open@CFile@@UAEHPBDIPAVCFileException@@@Z 004b3444   mfc42:MFC42.DLL
 0004:00001448       __imp_?Close@CFile@@UAEXXZ 004b3448   mfc42:MFC42.DLL
 0004:0000144c       __imp_?DelayUpdateFrameMenu@CMDIFrameWnd@@UAEXPAUHMENU__@@@Z 004b344c   mfc42:MFC42.DLL
 0004:00001450       __imp_?OnHelpIndex@CWnd@@QAEXXZ 004b3450   mfc42:MFC42.DLL
 0004:00001454       __imp_?AfxWinMain@@YGHPAUHINSTANCE__@@0PADH@Z 004b3454   mfc42:MFC42.DLL
 0004:00001458       __imp_?PreTranslateMessage@CWnd@@UAEHPAUtagMSG@@@Z 004b3458   mfc42:MFC42.DLL
 0004:0000145c       __imp_?OnChildNotify@CListBox@@MAEHIIJPAJ@Z 004b345c   mfc42:MFC42.DLL
 0004:00001460       __imp_?DrawItem@CListBox@@UAEXPAUtagDRAWITEMSTRUCT@@@Z 004b3460   mfc42:MFC42.DLL
 0004:00001464       __imp_?MeasureItem@CListBox@@UAEXPAUtagMEASUREITEMSTRUCT@@@Z 004b3464   mfc42:MFC42.DLL
 0004:00001468       __imp_??1CFile@@UAE@XZ     004b3468   mfc42:MFC42.DLL
 0004:0000146c       __imp_?ReadObject@CArchive@@QAEPAVCObject@@PBUCRuntimeClass@@@Z 004b346c   mfc42:MFC42.DLL
 0004:00001470       __imp_??0AFX_CLASSINIT@@QAE@PAUCRuntimeClass@@@Z 004b3470   mfc42:MFC42.DLL
 0004:00001474       __imp_?classCObject@CObject@@2UCRuntimeClass@@B 004b3474   mfc42:MFC42.DLL
 0004:00001478       __imp_?DDX_Control@@YGXPAVCDataExchange@@HAAVCWnd@@@Z 004b3478   mfc42:MFC42.DLL
 0004:0000147c       __imp_?CompareItem@CListBox@@UAEHPAUtagCOMPAREITEMSTRUCT@@@Z 004b347c   mfc42:MFC42.DLL
 0004:00001480       __imp_?DeleteItem@CListBox@@UAEXPAUtagDELETEITEMSTRUCT@@@Z 004b3480   mfc42:MFC42.DLL
 0004:00001484       __imp_?VKeyToItem@CListBox@@UAEHII@Z 004b3484   mfc42:MFC42.DLL
 0004:00001488       __imp_??3@YAXPAX@Z         004b3488   mfc42:MFC42.DLL
 0004:0000148c       __imp_?PreInitDialog@CDialog@@MAEXXZ 004b348c   mfc42:MFC42.DLL
 0004:00001490       __imp_?OnSetFont@CDialog@@UAEXPAVCFont@@@Z 004b3490   mfc42:MFC42.DLL
 0004:00001494       __imp_?OnInitDialog@CDialog@@UAEHXZ 004b3494   mfc42:MFC42.DLL
 0004:00001498       __imp_?DoModal@CDialog@@UAEHXZ 004b3498   mfc42:MFC42.DLL
 0004:0000149c       __imp_?SetOccDialogInfo@CDialog@@MAEHPAU_AFX_OCC_DIALOG_INFO@@@Z 004b349c   mfc42:MFC42.DLL
 0004:000014a0       __imp_?IsFrameWnd@CWnd@@UBEHXZ 004b34a0   mfc42:MFC42.DLL
 0004:000014a4       __imp_?CheckAutoCenter@CDialog@@UAEHXZ 004b34a4   mfc42:MFC42.DLL
 0004:000014a8       __imp_?OnChildNotify@CWnd@@MAEHIIJPAJ@Z 004b34a8   mfc42:MFC42.DLL
 0004:000014ac       __imp_?PostNcDestroy@CWnd@@MAEXXZ 004b34ac   mfc42:MFC42.DLL
 0004:000014b0       __imp_?DefWindowProcA@CWnd@@MAEJIIJ@Z 004b34b0   mfc42:MFC42.DLL
 0004:000014b4       __imp_?OnWndMsg@CWnd@@MAEHIIJPAJ@Z 004b34b4   mfc42:MFC42.DLL
 0004:000014b8       __imp_?WindowProc@CWnd@@MAEJIIJ@Z 004b34b8   mfc42:MFC42.DLL
 0004:000014bc       __imp_?OnAmbientProperty@CWnd@@UAEHPAVCOleControlSite@@JPAUtagVARIANT@@@Z 004b34bc   mfc42:MFC42.DLL
 0004:000014c0       __imp_?PreTranslateMessage@CDialog@@UAEHPAUtagMSG@@@Z 004b34c0   mfc42:MFC42.DLL
 0004:000014c4       __imp_?GetSuperWndProcAddr@CWnd@@MAEPAP6GJPAUHWND__@@IIJ@ZXZ 004b34c4   mfc42:MFC42.DLL
 0004:000014c8       __imp_?OnNotify@CWnd@@MAEHIJPAJ@Z 004b34c8   mfc42:MFC42.DLL
 0004:000014cc       __imp_?OnCommand@CWnd@@MAEHIJ@Z 004b34cc   mfc42:MFC42.DLL
 0004:000014d0       __imp_?EndModalLoop@CWnd@@UAEXH@Z 004b34d0   mfc42:MFC42.DLL
 0004:000014d4       __imp_?ContinueModal@CWnd@@UAEHXZ 004b34d4   mfc42:MFC42.DLL
 0004:000014d8       __imp_?WinHelpA@CWnd@@UAEXKI@Z 004b34d8   mfc42:MFC42.DLL
 0004:000014dc       __imp_?GetScrollBarCtrl@CWnd@@UBEPAVCScrollBar@@H@Z 004b34dc   mfc42:MFC42.DLL
 0004:000014e0       __imp_?OnToolHitTest@CWnd@@UBEHVCPoint@@PAUtagTOOLINFOA@@@Z 004b34e0   mfc42:MFC42.DLL
 0004:000014e4       __imp_?CalcWindowRect@CWnd@@UAEXPAUtagRECT@@I@Z 004b34e4   mfc42:MFC42.DLL
 0004:000014e8       __imp_?PreCreateWindow@CWnd@@UAEHAAUtagCREATESTRUCTA@@@Z 004b34e8   mfc42:MFC42.DLL
 0004:000014ec       __imp_?DestroyWindow@CWnd@@UAEHXZ 004b34ec   mfc42:MFC42.DLL
 0004:000014f0       __imp_?Create@CWnd@@UAEHPBD0KABUtagRECT@@PAV1@IPAUCCreateContext@@@Z 004b34f0   mfc42:MFC42.DLL
 0004:000014f4       __imp_?PreSubclassWindow@CWnd@@UAEXXZ 004b34f4   mfc42:MFC42.DLL
 0004:000014f8       __imp_?GetConnectionHook@CCmdTarget@@MAEPAUIConnectionPoint@@ABU_GUID@@@Z 004b34f8   mfc42:MFC42.DLL
 0004:000014fc       __imp_?GetExtraConnectionPoints@CCmdTarget@@MAEHPAVCPtrArray@@@Z 004b34fc   mfc42:MFC42.DLL
 0004:00001500       __imp_?GetInterfaceHook@CCmdTarget@@UAEPAUIUnknown@@PBX@Z 004b3500   mfc42:MFC42.DLL
 0004:00001504       __imp_?OnCreateAggregates@CCmdTarget@@UAEHXZ 004b3504   mfc42:MFC42.DLL
 0004:00001508       __imp_?GetEventSinkMap@CCmdTarget@@MBEPBUAFX_EVENTSINKMAP@@XZ 004b3508   mfc42:MFC42.DLL
 0004:0000150c       __imp_?GetInterfaceMap@CCmdTarget@@MBEPBUAFX_INTERFACEMAP@@XZ 004b350c   mfc42:MFC42.DLL
 0004:00001510       __imp_?GetConnectionMap@CCmdTarget@@MBEPBUAFX_CONNECTIONMAP@@XZ 004b3510   mfc42:MFC42.DLL
 0004:00001514       __imp_?GetDispatchMap@CCmdTarget@@MBEPBUAFX_DISPMAP@@XZ 004b3514   mfc42:MFC42.DLL
 0004:00001518       __imp_?GetCommandMap@CCmdTarget@@MBEPBUAFX_OLECMDMAP@@XZ 004b3518   mfc42:MFC42.DLL
 0004:0000151c       __imp_?GetTypeLib@CCmdTarget@@UAEJKPAPAUITypeLib@@@Z 004b351c   mfc42:MFC42.DLL
 0004:00001520       __imp_?GetTypeLibCache@CCmdTarget@@UAEPAVCTypeLibCache@@XZ 004b3520   mfc42:MFC42.DLL
 0004:00001524       __imp_?GetTypeInfoCount@CCmdTarget@@UAEIXZ 004b3524   mfc42:MFC42.DLL
 0004:00001528       __imp_?GetDispatchIID@CCmdTarget@@UAEHPAU_GUID@@@Z 004b3528   mfc42:MFC42.DLL
 0004:0000152c       __imp_?IsInvokeAllowed@CCmdTarget@@UAEHJ@Z 004b352c   mfc42:MFC42.DLL
 0004:00001530       __imp_?OnFinalRelease@CWnd@@UAEXXZ 004b3530   mfc42:MFC42.DLL
 0004:00001534       __imp_?OnCmdMsg@CDialog@@UAEHIHPAXPAUAFX_CMDHANDLERINFO@@@Z 004b3534   mfc42:MFC42.DLL
 0004:00001538       __imp_?GetRuntimeClass@CDialog@@UBEPAUCRuntimeClass@@XZ 004b3538   mfc42:MFC42.DLL
 0004:0000153c       __imp_??1CDialog@@UAE@XZ   004b353c   mfc42:MFC42.DLL
 0004:00001540       __imp_??0CDialog@@QAE@IPAVCWnd@@@Z 004b3540   mfc42:MFC42.DLL
 0004:00001544       __imp_?DDX_Check@@YGXPAVCDataExchange@@HAAH@Z 004b3544   mfc42:MFC42.DLL
 0004:00001548       __imp_?messageMap@CDialog@@1UAFX_MSGMAP@@B 004b3548   mfc42:MFC42.DLL
 0004:0000154c       __imp_?OnCancel@CDialog@@MAEXXZ 004b354c   mfc42:MFC42.DLL
 0004:00001550       __imp_?OnOK@CDialog@@MAEXXZ 004b3550   mfc42:MFC42.DLL
 0004:00001554       __imp_?UpdateData@CWnd@@QAEHH@Z 004b3554   mfc42:MFC42.DLL
 0004:00001558       __imp_?GetProperty@COleDispatchDriver@@QBEXJGPAX@Z 004b3558   mfc42:MFC42.DLL
 0004:0000155c       __imp_?SetProperty@COleDispatchDriver@@QAAXJGZZ 004b355c   mfc42:MFC42.DLL
 0004:00001560       __imp_??1CString@@QAE@XZ   004b3560   mfc42:MFC42.DLL
 0004:00001564       __imp_??0CString@@QAE@ABV0@@Z 004b3564   mfc42:MFC42.DLL
 0004:00001568       __imp_??0CString@@QAE@XZ   004b3568   mfc42:MFC42.DLL
 0004:0000156c       __imp_?InvokeHelper@COleDispatchDriver@@QAAXJGGPAXPBEZZ 004b356c   mfc42:MFC42.DLL
 0004:00001570       __imp_??0COleDispatchDriver@@QAE@PAUIDispatch@@H@Z 004b3570   mfc42:MFC42.DLL
 0004:00001574       __imp_?ReleaseDispatch@COleDispatchDriver@@QAEXXZ 004b3574   mfc42:MFC42.DLL
 0004:00001578       __imp_??2@YAPAXI@Z         004b3578   mfc42:MFC42.DLL
 0004:0000157c       __imp_?AfxGetModuleState@@YGPAVAFX_MODULE_STATE@@XZ 004b357c   mfc42:MFC42.DLL
 0004:00001580       __imp_?AfxMessageBox@@YGHPBDII@Z 004b3580   mfc42:MFC42.DLL
 0004:00001584       __imp_?classCMDIChildWnd@CMDIChildWnd@@2UCRuntimeClass@@B 004b3584   mfc42:MFC42.DLL
 0004:00001588       __imp_?OnUpdateFrameMenu@CMDIChildWnd@@UAEXHPAVCWnd@@PAUHMENU__@@@Z 004b3588   mfc42:MFC42.DLL
 0004:0000158c       __imp_?Create@CMDIChildWnd@@UAEHPBD0KABUtagRECT@@PAVCMDIFrameWnd@@PAUCCreateContext@@@Z 004b358c   mfc42:MFC42.DLL
 0004:00001590       __imp_?ExitHelpMode@CFrameWnd@@UAEXXZ 004b3590   mfc42:MFC42.DLL
 0004:00001594       __imp_?DelayUpdateFrameMenu@CFrameWnd@@UAEXPAUHMENU__@@@Z 004b3594   mfc42:MFC42.DLL
 0004:00001598       __imp_?GetDefaultAccelerator@CFrameWnd@@UAEPAUHACCEL__@@XZ 004b3598   mfc42:MFC42.DLL
 0004:0000159c       __imp_?OnUpdateFrameMenu@CFrameWnd@@UAEXPAUHMENU__@@@Z 004b359c   mfc42:MFC42.DLL
 0004:000015a0       __imp_?OnUpdateFrameTitle@CMDIChildWnd@@MAEXH@Z 004b35a0   mfc42:MFC42.DLL
 0004:000015a4       __imp_?OnCreateClient@CFrameWnd@@MAEHPAUtagCREATESTRUCTA@@PAUCCreateContext@@@Z 004b35a4   mfc42:MFC42.DLL
 0004:000015a8       __imp_?NegotiateBorderSpace@CFrameWnd@@UAEHIPAUtagRECT@@@Z 004b35a8   mfc42:MFC42.DLL
 0004:000015ac       __imp_?GetMessageBar@CMDIChildWnd@@MAEPAVCWnd@@XZ 004b35ac   mfc42:MFC42.DLL
 0004:000015b0       __imp_?OnSetPreviewMode@CFrameWnd@@UAEXHPAUCPrintPreviewState@@@Z 004b35b0   mfc42:MFC42.DLL
 0004:000015b4       __imp_?GetMessageMap@CWnd@@MBEPBUAFX_MSGMAP@@XZ 004b35b4   mfc42:MFC42.DLL
 0004:000015b8       __imp_?RecalcLayout@CFrameWnd@@UAEXH@Z 004b35b8   mfc42:MFC42.DLL
 0004:000015bc       __imp_?GetMessageString@CFrameWnd@@UBEXIAAVCString@@@Z 004b35bc   mfc42:MFC42.DLL
 0004:000015c0       __imp_?GetActiveFrame@CFrameWnd@@UAEPAV1@XZ 004b35c0   mfc42:MFC42.DLL
 0004:000015c4       __imp_?GetActiveDocument@CFrameWnd@@UAEPAVCDocument@@XZ 004b35c4   mfc42:MFC42.DLL
 0004:000015c8       __imp_?SetOccDialogInfo@CWnd@@MAEHPAU_AFX_OCC_DIALOG_INFO@@@Z 004b35c8   mfc42:MFC42.DLL
 0004:000015cc       __imp_?IsFrameWnd@CFrameWnd@@UBEHXZ 004b35cc   mfc42:MFC42.DLL
 0004:000015d0       __imp_?CheckAutoCenter@CWnd@@UAEHXZ 004b35d0   mfc42:MFC42.DLL
 0004:000015d4       __imp_?PostNcDestroy@CFrameWnd@@MAEXXZ 004b35d4   mfc42:MFC42.DLL
 0004:000015d8       __imp_?DefWindowProcA@CMDIChildWnd@@MAEJIIJ@Z 004b35d8   mfc42:MFC42.DLL
 0004:000015dc       __imp_?PreTranslateMessage@CMDIChildWnd@@UAEHPAUtagMSG@@@Z 004b35dc   mfc42:MFC42.DLL
 0004:000015e0       __imp_?EndModalState@CFrameWnd@@UAEXXZ 004b35e0   mfc42:MFC42.DLL
 0004:000015e4       __imp_?BeginModalState@CFrameWnd@@UAEXXZ 004b35e4   mfc42:MFC42.DLL
 0004:000015e8       __imp_?OnCommand@CFrameWnd@@MAEHIJ@Z 004b35e8   mfc42:MFC42.DLL
 0004:000015ec       __imp_?DestroyWindow@CMDIChildWnd@@UAEHXZ 004b35ec   mfc42:MFC42.DLL
 0004:000015f0       __imp_?OnCmdMsg@CFrameWnd@@UAEHIHPAXPAUAFX_CMDHANDLERINFO@@@Z 004b35f0   mfc42:MFC42.DLL
 0004:000015f4       __imp_??0CMDIChildWnd@@QAE@XZ 004b35f4   mfc42:MFC42.DLL
 0004:000015f8       __imp_??1CFrameWnd@@UAE@XZ 004b35f8   mfc42:MFC42.DLL
 0004:000015fc       __imp_?messageMap@CMDIChildWnd@@1UAFX_MSGMAP@@B 004b35fc   mfc42:MFC42.DLL
 0004:00001600       __imp_?GetIconWndClass@CFrameWnd@@IAEPBDKI@Z 004b3600   mfc42:MFC42.DLL
 0004:00001604       __imp_?rectDefault@CFrameWnd@@2VCRect@@B 004b3604   mfc42:MFC42.DLL
 0004:00001608       __imp_?AfxExtractSubString@@YGHAAVCString@@PBDHD@Z 004b3608   mfc42:MFC42.DLL
 0004:0000160c       __imp_?LoadStringA@CString@@QAEHI@Z 004b360c   mfc42:MFC42.DLL
 0004:00001610       __imp_??4CString@@QAEABV0@PBD@Z 004b3610   mfc42:MFC42.DLL
 0004:00001614       __imp_?PreCreateWindow@CMDIChildWnd@@UAEHAAUtagCREATESTRUCTA@@@Z 004b3614   mfc42:MFC42.DLL
 0004:00001618       __imp_?classCFormView@CFormView@@2UCRuntimeClass@@B 004b3618   mfc42:MFC42.DLL
 0004:0000161c       __imp_?OnEndPrintPreview@CView@@MAEXPAVCDC@@PAUCPrintInfo@@UtagPOINT@@PAVCPreviewView@@@Z 004b361c   mfc42:MFC42.DLL
 0004:00001620       __imp_?OnEndPrinting@CView@@MAEXPAVCDC@@PAUCPrintInfo@@@Z 004b3620   mfc42:MFC42.DLL
 0004:00001624       __imp_?OnPrint@CView@@MAEXPAVCDC@@PAUCPrintInfo@@@Z 004b3624   mfc42:MFC42.DLL
 0004:00001628       __imp_?OnBeginPrinting@CView@@MAEXPAVCDC@@PAUCPrintInfo@@@Z 004b3628   mfc42:MFC42.DLL
 0004:0000162c       __imp_?OnPreparePrinting@CView@@MAEHPAUCPrintInfo@@@Z 004b362c   mfc42:MFC42.DLL
 0004:00001630       __imp_?OnDraw@CFormView@@MAEXPAVCDC@@@Z 004b3630   mfc42:MFC42.DLL
 0004:00001634       __imp_?OnUpdate@CView@@MAEXPAV1@JPAVCObject@@@Z 004b3634   mfc42:MFC42.DLL
 0004:00001638       __imp_?OnActivateFrame@CFormView@@MAEXIPAVCFrameWnd@@@Z 004b3638   mfc42:MFC42.DLL
 0004:0000163c       __imp_?OnActivateView@CFormView@@MAEXHPAVCView@@0@Z 004b363c   mfc42:MFC42.DLL
 0004:00001640       __imp_?OnPrepareDC@CScrollView@@UAEXPAVCDC@@PAUCPrintInfo@@@Z 004b3640   mfc42:MFC42.DLL
 0004:00001644       __imp_?OnDragScroll@CView@@UAEKKVCPoint@@@Z 004b3644   mfc42:MFC42.DLL
 0004:00001648       __imp_?OnDropEx@CView@@UAEKPAVCOleDataObject@@KKVCPoint@@@Z 004b3648   mfc42:MFC42.DLL
 0004:0000164c       __imp_?OnDrop@CView@@UAEHPAVCOleDataObject@@KVCPoint@@@Z 004b364c   mfc42:MFC42.DLL
 0004:00001650       __imp_?OnDragLeave@CView@@UAEXXZ 004b3650   mfc42:MFC42.DLL
 0004:00001654       __imp_?OnDragOver@CView@@UAEKPAVCOleDataObject@@KVCPoint@@@Z 004b3654   mfc42:MFC42.DLL
 0004:00001658       __imp_?OnDragEnter@CView@@UAEKPAVCOleDataObject@@KVCPoint@@@Z 004b3658   mfc42:MFC42.DLL
 0004:0000165c       __imp_?OnScrollBy@CScrollView@@UAEHVCSize@@H@Z 004b365c   mfc42:MFC42.DLL
 0004:00001660       __imp_?OnScroll@CScrollView@@UAEHIIH@Z 004b3660   mfc42:MFC42.DLL
 0004:00001664       __imp_?IsSelected@CView@@UBEHPBVCObject@@@Z 004b3664   mfc42:MFC42.DLL
 0004:00001668       __imp_?SetOccDialogInfo@CFormView@@MAEHPAU_AFX_OCC_DIALOG_INFO@@@Z 004b3668   mfc42:MFC42.DLL
 0004:0000166c       __imp_?PostNcDestroy@CView@@MAEXXZ 004b366c   mfc42:MFC42.DLL
 0004:00001670       __imp_?PreTranslateMessage@CFormView@@MAEHPAUtagMSG@@@Z 004b3670   mfc42:MFC42.DLL
 0004:00001674       __imp_?GetScrollBarCtrl@CView@@UBEPAVCScrollBar@@H@Z 004b3674   mfc42:MFC42.DLL
 0004:00001678       __imp_?CalcWindowRect@CScrollView@@UAEXPAUtagRECT@@I@Z 004b3678   mfc42:MFC42.DLL
 0004:0000167c       __imp_?PreCreateWindow@CView@@MAEHAAUtagCREATESTRUCTA@@@Z 004b367c   mfc42:MFC42.DLL
 0004:00001680       __imp_?Create@CFormView@@MAEHPBD0KABUtagRECT@@PAVCWnd@@IPAUCCreateContext@@@Z 004b3680   mfc42:MFC42.DLL
 0004:00001684       __imp_?OnCmdMsg@CView@@MAEHIHPAXPAUAFX_CMDHANDLERINFO@@@Z 004b3684   mfc42:MFC42.DLL
 0004:00001688       __imp_??0CFormView@@IAE@I@Z 004b3688   mfc42:MFC42.DLL
 0004:0000168c       __imp_??1CScrollView@@UAE@XZ 004b368c   mfc42:MFC42.DLL
 0004:00001690       __imp_?messageMap@CFormView@@1UAFX_MSGMAP@@B 004b3690   mfc42:MFC42.DLL
 0004:00001694       __imp_?eventsinkMap@CCmdTarget@@1UAFX_EVENTSINKMAP@@B 004b3694   mfc42:MFC42.DLL
 0004:00001698       __imp_?GetDlgItem@CWnd@@QBEPAV1@H@Z 004b3698   mfc42:MFC42.DLL
 0004:0000169c       __imp_??0COleVariant@@QAE@ABUtagVARIANT@@@Z 004b369c   mfc42:MFC42.DLL
 0004:000016a0       __imp_?AfxVariantInit@@YGXPAUtagVARIANT@@@Z 004b36a0   mfc42:MFC42.DLL
 0004:000016a4       __imp_?SetWindowTextA@CWnd@@QAEXPBD@Z 004b36a4   mfc42:MFC42.DLL
 0004:000016a8       __imp_??H@YG?AVCString@@ABV0@PBD@Z 004b36a8   mfc42:MFC42.DLL
 0004:000016ac       __imp_?OnInitialUpdate@CFormView@@UAEXXZ 004b36ac   mfc42:MFC42.DLL
 0004:000016b0       __imp_?FromHandle@CWnd@@SGPAV1@PAUHWND__@@@Z 004b36b0   mfc42:MFC42.DLL
 0004:000016b4       __imp_?SetWindowPos@CWnd@@QAEHPBV1@HHHHI@Z 004b36b4   mfc42:MFC42.DLL
 0004:000016b8       __imp_?wndTop@CWnd@@2V1@B  004b36b8   mfc42:MFC42.DLL
 0004:000016bc       __imp_?OnSize@CScrollView@@QAEXIHH@Z 004b36bc   mfc42:MFC42.DLL
 0004:000016c0       __imp_?Clear@COleVariant@@QAEXXZ 004b36c0   mfc42:MFC42.DLL
 0004:000016c4       __imp_?ChangeType@COleVariant@@QAEXGPAUtagVARIANT@@@Z 004b36c4   mfc42:MFC42.DLL
 0004:000016c8       __imp_?GetBuffer@CString@@QAEPADH@Z 004b36c8   mfc42:MFC42.DLL
 0004:000016cc       __imp_??0CString@@QAE@PBG@Z 004b36cc   mfc42:MFC42.DLL
 0004:000016d0       __imp_??4COleVariant@@QAEABV0@QBD@Z 004b36d0   mfc42:MFC42.DLL
 0004:000016d4       __imp_??4COleVariant@@QAEABV0@J@Z 004b36d4   mfc42:MFC42.DLL
 0004:000016d8       __imp_??4COleVariant@@QAEABV0@N@Z 004b36d8   mfc42:MFC42.DLL
 0004:000016dc       __imp_?DDX_Radio@@YGXPAVCDataExchange@@HAAH@Z 004b36dc   mfc42:MFC42.DLL
 0004:000016e0       __imp_?OnContextHelp@CFrameWnd@@QAEXXZ 004b36e0   mfc42:MFC42.DLL
 0004:000016e4       __imp_?OnHelp@CFrameWnd@@IAEXXZ 004b36e4   mfc42:MFC42.DLL
 0004:000016e8       __imp_?OnHelpUsing@CWnd@@QAEXXZ 004b36e8   mfc42:MFC42.DLL
 0004:000016ec       __imp_?CharToItem@CListBox@@UAEHII@Z 004b36ec   mfc42:MFC42.DLL
 0004:000016f0       __imp_?classCMDIFrameWnd@CMDIFrameWnd@@2UCRuntimeClass@@B 004b36f0   mfc42:MFC42.DLL
 0004:000016f4       __imp_?messageMap@CMDIFrameWnd@@1UAFX_MSGMAP@@B 004b36f4   mfc42:MFC42.DLL
 0004:000016f8       __imp_?GetWindowMenuPopup@CMDIFrameWnd@@UAEPAUHMENU__@@PAU2@@Z 004b36f8   mfc42:MFC42.DLL
 0004:000016fc       __imp_?InitApplication@CWinApp@@UAEHXZ 004b36fc   mfc42:MFC42.DLL
 0004:00001700       __imp_?OnUpdateFrameMenu@CMDIFrameWnd@@UAEXPAUHMENU__@@@Z 004b3700   mfc42:MFC42.DLL
 0004:00001704       __imp_?OnUpdateFrameTitle@CMDIFrameWnd@@UAEXH@Z 004b3704   mfc42:MFC42.DLL
 0004:00001708       __imp_?OnCreateClient@CMDIFrameWnd@@UAEHPAUtagCREATESTRUCTA@@PAUCCreateContext@@@Z 004b3708   mfc42:MFC42.DLL
 0004:0000170c       __imp_?GetMessageBar@CFrameWnd@@UAEPAVCWnd@@XZ 004b370c   mfc42:MFC42.DLL
 0004:00001710       __imp_?ActivateFrame@CFrameWnd@@UAEXH@Z 004b3710   mfc42:MFC42.DLL
 0004:00001714       __imp_?GetActiveFrame@CMDIFrameWnd@@UAEPAVCFrameWnd@@XZ 004b3714   mfc42:MFC42.DLL
 0004:00001718       __imp_?LoadFrame@CMDIFrameWnd@@UAEHIKPAVCWnd@@PAUCCreateContext@@@Z 004b3718   mfc42:MFC42.DLL
 0004:0000171c       __imp_?DefWindowProcA@CMDIFrameWnd@@MAEJIIJ@Z 004b371c   mfc42:MFC42.DLL
 0004:00001720       __imp_?PreTranslateMessage@CMDIFrameWnd@@UAEHPAUtagMSG@@@Z 004b3720   mfc42:MFC42.DLL
 0004:00001724       __imp_?OnCommand@CMDIFrameWnd@@MAEHIJ@Z 004b3724   mfc42:MFC42.DLL
 0004:00001728       __imp_?PreCreateWindow@CMDIFrameWnd@@UAEHAAUtagCREATESTRUCTA@@@Z 004b3728   mfc42:MFC42.DLL
 0004:0000172c       __imp_?OnCmdMsg@CMDIFrameWnd@@UAEHIHPAXPAUAFX_CMDHANDLERINFO@@@Z 004b372c   mfc42:MFC42.DLL
 0004:00001730       __imp_??1CDC@@UAE@XZ       004b3730   mfc42:MFC42.DLL
 0004:00001734       __imp_??1CMapPtrToPtr@@UAE@XZ 004b3734   mfc42:MFC42.DLL
 0004:00001738       __imp_??1CStatusBar@@UAE@XZ 004b3738   mfc42:MFC42.DLL
 0004:0000173c       __imp_??1CToolBar@@UAE@XZ  004b373c   mfc42:MFC42.DLL
 0004:00001740       __imp_??0CToolBar@@QAE@XZ  004b3740   mfc42:MFC42.DLL
 0004:00001744       __imp_??0CStatusBar@@QAE@XZ 004b3744   mfc42:MFC42.DLL
 0004:00001748       __imp_??0CMapPtrToPtr@@QAE@H@Z 004b3748   mfc42:MFC42.DLL
 0004:0000174c       __imp_??0CDC@@QAE@XZ       004b374c   mfc42:MFC42.DLL
 0004:00001750       __imp_??0CMDIFrameWnd@@QAE@XZ 004b3750   mfc42:MFC42.DLL
 0004:00001754       __imp_?GetRuntimeClass@CBitmap@@UBEPAUCRuntimeClass@@XZ 004b3754   mfc42:MFC42.DLL
 0004:00001758       __imp_?GetRuntimeClass@CGdiObject@@UBEPAUCRuntimeClass@@XZ 004b3758   mfc42:MFC42.DLL
 0004:0000175c       __imp_?GetRuntimeClass@CObject@@UBEPAUCRuntimeClass@@XZ 004b375c   mfc42:MFC42.DLL
 0004:00001760       __imp_?DeleteObject@CGdiObject@@QAEHXZ 004b3760   mfc42:MFC42.DLL
 0004:00001764       __imp_??1CClientDC@@UAE@XZ 004b3764   mfc42:MFC42.DLL
 0004:00001768       __imp_??0CClientDC@@QAE@PAVCWnd@@@Z 004b3768   mfc42:MFC42.DLL
 0004:0000176c       __imp_?EnableDocking@CControlBar@@QAEXK@Z 004b376c   mfc42:MFC42.DLL
 0004:00001770       __imp_?SetBarStyle@CControlBar@@QAEXK@Z 004b3770   mfc42:MFC42.DLL
 0004:00001774       __imp_?Create@CToolBar@@QAEHPAVCWnd@@KI@Z 004b3774   mfc42:MFC42.DLL
 0004:00001778       __imp_?DockControlBar@CFrameWnd@@QAEXPAVCControlBar@@IPBUtagRECT@@@Z 004b3778   mfc42:MFC42.DLL
 0004:0000177c       __imp_?EnableDocking@CFrameWnd@@QAEXK@Z 004b377c   mfc42:MFC42.DLL
 0004:00001780       __imp_?SetIndicators@CStatusBar@@QAEHPBIH@Z 004b3780   mfc42:MFC42.DLL
 0004:00001784       __imp_?Create@CStatusBar@@QAEHPAVCWnd@@KI@Z 004b3784   mfc42:MFC42.DLL
 0004:00001788       __imp_?DDX_LBString@@YGXPAVCDataExchange@@HAAVCString@@@Z 004b3788   mfc42:MFC42.DLL
 0004:0000178c       __imp_?Attach@CGdiObject@@QAEHPAX@Z 004b378c   mfc42:MFC42.DLL
 0004:00001790       __imp_?AfxFindResourceHandle@@YGPAUHINSTANCE__@@PBD0@Z 004b3790   mfc42:MFC42.DLL
 0004:00001794       __imp_?Attach@CDC@@QAEHPAUHDC__@@@Z 004b3794   mfc42:MFC42.DLL
 0004:00001798       __imp_?SelectGdiObject@CDC@@KGPAVCGdiObject@@PAUHDC__@@PAX@Z 004b3798   mfc42:MFC42.DLL
 0004:0000179c       __imp_?LoadToolBar@CToolBar@@QAEHPBD@Z 004b379c   mfc42:MFC42.DLL
 0004:000017a0       __imp_?RemoveAll@CObList@@QAEXXZ 004b37a0   mfc42:MFC42.DLL
 0004:000017a4       __imp_?MDIGetActive@CMDIFrameWnd@@QBEPAVCMDIChildWnd@@PAH@Z 004b37a4   mfc42:MFC42.DLL
 0004:000017a8       __imp_??0CObList@@QAE@H@Z  004b37a8   mfc42:MFC42.DLL
 0004:000017ac       __imp_?OnPaletteChanged@CFrameWnd@@IAEXPAVCWnd@@@Z 004b37ac   mfc42:MFC42.DLL
 0004:000017b0       __imp_?SendMessageToDescendants@CWnd@@SGXPAUHWND__@@IIJHH@Z 004b37b0   mfc42:MFC42.DLL
 0004:000017b4       __imp_?GetActiveView@CFrameWnd@@QBEPAVCView@@XZ 004b37b4   mfc42:MFC42.DLL
 0004:000017b8       __imp_?IsKindOf@CObject@@QBEHPBUCRuntimeClass@@@Z 004b37b8   mfc42:MFC42.DLL
 0004:000017bc       __imp_?OnSetCursor@CFrameWnd@@IAEHPAVCWnd@@II@Z 004b37bc   mfc42:MFC42.DLL
 0004:000017c0       __imp_?RemoveTail@CObList@@QAEPAVCObject@@XZ 004b37c0   mfc42:MFC42.DLL
 0004:000017c4       __imp_?OnSize@CMDIFrameWnd@@IAEXIHH@Z 004b37c4   mfc42:MFC42.DLL
 0004:000017c8       __imp_??1CListBox@@UAE@XZ  004b37c8   mfc42:MFC42.DLL
 0004:000017cc       __imp_??0CWnd@@QAE@XZ      004b37cc   mfc42:MFC42.DLL
 0004:000017d0       __imp_??1CButton@@UAE@XZ   004b37d0   mfc42:MFC42.DLL
 0004:000017d4       __imp_??1CTreeCtrl@@UAE@XZ 004b37d4   mfc42:MFC42.DLL
 0004:000017d8       __imp_??1CPaintDC@@UAE@XZ  004b37d8   mfc42:MFC42.DLL
 0004:000017dc       __imp_??0CPaintDC@@QAE@PAVCWnd@@@Z 004b37dc   mfc42:MFC42.DLL
 0004:000017e0       __imp_?FromHandle@CDC@@SGPAV1@PAUHDC__@@@Z 004b37e0   mfc42:MFC42.DLL
 0004:000017e4       __imp_?OnEraseBkgnd@CFrameWnd@@IAEHPAVCDC@@@Z 004b37e4   mfc42:MFC42.DLL
 0004:000017e8       __imp_?SetPaneText@CStatusBar@@QAEHHPBDH@Z 004b37e8   mfc42:MFC42.DLL
 0004:000017ec       __imp_?SetPaneInfo@CStatusBar@@QAEXHIIH@Z 004b37ec   mfc42:MFC42.DLL
 0004:000017f0       __imp_?UpdateAllViews@CDocument@@QAEXPAVCView@@JPAVCObject@@@Z 004b37f0   mfc42:MFC42.DLL
 0004:000017f4       __imp_?wndTopMost@CWnd@@2V1@B 004b37f4   mfc42:MFC42.DLL
 0004:000017f8       __imp_?Create@CDialog@@QAEHPBDPAVCWnd@@@Z 004b37f8   mfc42:MFC42.DLL
 0004:000017fc       __imp_?SubclassWindow@CWnd@@QAEHPAUHWND__@@@Z 004b37fc   mfc42:MFC42.DLL
 0004:00001800       __imp_?CreateClient@CMDIFrameWnd@@UAEHPAUtagCREATESTRUCTA@@PAVCMenu@@@Z 004b3800   mfc42:MFC42.DLL
 0004:00001804       __imp_?OnClose@CFrameWnd@@IAEXXZ 004b3804   mfc42:MFC42.DLL
 0004:00001808       __imp_?MessageBoxA@CWnd@@QAEHPBD0I@Z 004b3808   mfc42:MFC42.DLL
 0004:0000180c       __imp_??ACMapPtrToPtr@@QAEAAPAXPAX@Z 004b380c   mfc42:MFC42.DLL
 0004:00001810       __imp_?GetPathName@CFileDialog@@QBE?AVCString@@XZ 004b3810   mfc42:MFC42.DLL
 0004:00001814       __imp_?DoModal@CFileDialog@@UAEHXZ 004b3814   mfc42:MFC42.DLL
 0004:00001818       __imp_??0CFileDialog@@QAE@HPBD0K0PAVCWnd@@@Z 004b3818   mfc42:MFC42.DLL
 0004:0000181c       __imp_?GetFileName@CFileDialog@@QBE?AVCString@@XZ 004b381c   mfc42:MFC42.DLL
 0004:00001820       __imp_?OnFilePrintSetup@CWinApp@@IAEXXZ 004b3820   mfc42:MFC42.DLL
 0004:00001824       __imp_?OnFileOpen@CWinApp@@IAEXXZ 004b3824   mfc42:MFC42.DLL
 0004:00001828       __imp_?OnFileNew@CWinApp@@IAEXXZ 004b3828   mfc42:MFC42.DLL
 0004:0000182c       __imp_?messageMap@CWinApp@@1UAFX_MSGMAP@@B 004b382c   mfc42:MFC42.DLL
 0004:00001830       __imp_?WinHelpA@CWinApp@@UAEXKI@Z 004b3830   mfc42:MFC42.DLL
 0004:00001834       __imp_?OnDDECommand@CWinApp@@UAEHPAD@Z 004b3834   mfc42:MFC42.DLL
 0004:00001838       __imp_?DoWaitCursor@CWinApp@@UAEXH@Z 004b3838   mfc42:MFC42.DLL
 0004:0000183c       __imp_?DoMessageBox@CWinApp@@UAEHPBDII@Z 004b383c   mfc42:MFC42.DLL
 0004:00001840       __imp_?SaveAllModified@CWinApp@@UAEHXZ 004b3840   mfc42:MFC42.DLL
 0004:00001844       __imp_?AddHead@CObList@@QAEPAU__POSITION@@PAVCObject@@@Z 004b3844   mfc42:MFC42.DLL
 0004:00001848       __imp_?AddToRecentFileList@CWinApp@@UAEXPBD@Z 004b3848   mfc42:MFC42.DLL
 0004:0000184c       __imp_?OpenDocumentFile@CWinApp@@UAEPAVCDocument@@PBD@Z 004b384c   mfc42:MFC42.DLL
 0004:00001850       __imp_?Delete@CWinThread@@UAEXXZ 004b3850   mfc42:MFC42.DLL
 0004:00001854       __imp_?GetMainWnd@CWinThread@@UAEPAVCWnd@@XZ 004b3854   mfc42:MFC42.DLL
 0004:00001858       __imp_?ProcessMessageFilter@CWinThread@@UAEHHPAUtagMSG@@@Z 004b3858   mfc42:MFC42.DLL
 0004:0000185c       __imp_?ProcessWndProcException@CWinApp@@UAEJPAVCException@@PBUtagMSG@@@Z 004b385c   mfc42:MFC42.DLL
 0004:00001860       __imp_?IsIdleMessage@CWinThread@@UAEHPAUtagMSG@@@Z 004b3860   mfc42:MFC42.DLL
 0004:00001864       __imp_?OnIdle@CWinApp@@UAEHJ@Z 004b3864   mfc42:MFC42.DLL
 0004:00001868       __imp_?PumpMessage@CWinThread@@UAEHXZ 004b3868   mfc42:MFC42.DLL
 0004:0000186c       __imp_?PreTranslateMessage@CWinThread@@UAEHPAUtagMSG@@@Z 004b386c   mfc42:MFC42.DLL
 0004:00001870       __imp_?Run@CWinApp@@UAEHXZ 004b3870   mfc42:MFC42.DLL
 0004:00001874       __imp_?OnFinalRelease@CCmdTarget@@UAEXXZ 004b3874   mfc42:MFC42.DLL
 0004:00001878       __imp_?OnCmdMsg@CCmdTarget@@UAEHIHPAXPAUAFX_CMDHANDLERINFO@@@Z 004b3878   mfc42:MFC42.DLL
 0004:0000187c       __imp_?GetRuntimeClass@CWinApp@@UBEPAUCRuntimeClass@@XZ 004b387c   mfc42:MFC42.DLL
 0004:00001880       __imp_??1CWnd@@UAE@XZ      004b3880   mfc42:MFC42.DLL
 0004:00001884       __imp_?GetRuntimeClass@CListBox@@UBEPAUCRuntimeClass@@XZ 004b3884   mfc42:MFC42.DLL
 0004:00001888       __imp_??0COleTemplateServer@@QAE@XZ 004b3888   mfc42:MFC42.DLL
 0004:0000188c       __imp_??0CWinApp@@QAE@PBD@Z 004b388c   mfc42:MFC42.DLL
 0004:00001890       __imp_??1COleObjectFactory@@UAE@XZ 004b3890   mfc42:MFC42.DLL
 0004:00001894       __imp_??1CCommandLineInfo@@UAE@XZ 004b3894   mfc42:MFC42.DLL
 0004:00001898       __imp_?ShowWindow@CWnd@@QAEHH@Z 004b3898   mfc42:MFC42.DLL
 0004:0000189c       __imp_?DragAcceptFiles@CWnd@@QAEXH@Z 004b389c   mfc42:MFC42.DLL
 0004:000018a0       __imp_?UpdateRegistryAll@COleObjectFactory@@SGHH@Z 004b38a0   mfc42:MFC42.DLL
 0004:000018a4       __imp_?UpdateRegistry@COleTemplateServer@@QAEXW4OLE_APPTYPE@@PAPBD1@Z 004b38a4   mfc42:MFC42.DLL
 0004:000018a8       __imp_?RunAutomated@CWinApp@@QAEHXZ 004b38a8   mfc42:MFC42.DLL
 0004:000018ac       __imp_?RunEmbedded@CWinApp@@QAEHXZ 004b38ac   mfc42:MFC42.DLL
 0004:000018b0       __imp_?RegisterShellFileTypes@CWinApp@@IAEXH@Z 004b38b0   mfc42:MFC42.DLL
 0004:000018b4       __imp_?EnableShellOpen@CWinApp@@IAEXXZ 004b38b4   mfc42:MFC42.DLL
 0004:000018b8       __imp_??4CString@@QAEABV0@ABV0@@Z 004b38b8   mfc42:MFC42.DLL
 0004:000018bc       __imp_?RegisterAll@COleObjectFactory@@SGHXZ 004b38bc   mfc42:MFC42.DLL
 0004:000018c0       __imp_?ConnectTemplate@COleTemplateServer@@QAEXABU_GUID@@PAVCDocTemplate@@H@Z 004b38c0   mfc42:MFC42.DLL
 0004:000018c4       __imp_?AddDocTemplate@CWinApp@@QAEXPAVCDocTemplate@@@Z 004b38c4   mfc42:MFC42.DLL
 0004:000018c8       __imp_??0CMultiDocTemplate@@QAE@IPAUCRuntimeClass@@00@Z 004b38c8   mfc42:MFC42.DLL
 0004:000018cc       __imp_?LoadStdProfileSettings@CWinApp@@IAEXI@Z 004b38cc   mfc42:MFC42.DLL
 0004:000018d0       __imp_?Enable3dControls@CWinApp@@IAEHXZ 004b38d0   mfc42:MFC42.DLL
 0004:000018d4       __imp_?AfxMessageBox@@YGHIII@Z 004b38d4   mfc42:MFC42.DLL
 0004:000018d8       __imp_?AfxOleInit@@YGHXZ   004b38d8   mfc42:MFC42.DLL
 0004:000018dc       __imp_?ParseCommandLine@CWinApp@@QAEXAAVCCommandLineInfo@@@Z 004b38dc   mfc42:MFC42.DLL
 0004:000018e0       __imp_??0CCommandLineInfo@@QAE@XZ 004b38e0   mfc42:MFC42.DLL
 0004:000018e4       __imp_?AfxEnableControlContainer@@YAXPAVCOccManager@@@Z 004b38e4   mfc42:MFC42.DLL
 0004:000018e8       __imp_?ReleaseFile@CDocument@@UAEXPAVCFile@@H@Z 004b38e8   mfc42:MFC42.DLL
 0004:000018ec       __imp_?GetNextDocTemplate@CWinApp@@QBEPAVCDocTemplate@@AAPAU__POSITION@@@Z 004b38ec   mfc42:MFC42.DLL
 0004:000018f0       __imp_?GetFirstDocTemplatePosition@CWinApp@@QBEPAU__POSITION@@XZ 004b38f0   mfc42:MFC42.DLL
 0004:000018f4       __imp_??1CStdioFile@@UAE@XZ 004b38f4   mfc42:MFC42.DLL
 0004:000018f8       __imp_?Close@CStdioFile@@UAEXXZ 004b38f8   mfc42:MFC42.DLL
 0004:000018fc       __imp_?Open@CStdioFile@@UAEHPBDIPAVCFileException@@@Z 004b38fc   mfc42:MFC42.DLL
 0004:00001900       __imp_??0CStdioFile@@QAE@XZ 004b3900   mfc42:MFC42.DLL
 0004:00001904       __imp_??1CPtrList@@UAE@XZ  004b3904   mfc42:MFC42.DLL
 0004:00001908       __imp_?classCDocument@CDocument@@2UCRuntimeClass@@B 004b3908   mfc42:MFC42.DLL
 0004:0000190c       __imp_?messageMap@CDocument@@1UAFX_MSGMAP@@B 004b390c   mfc42:MFC42.DLL
 0004:00001910       __imp_?dispatchMap@CCmdTarget@@1UAFX_DISPMAP@@B 004b3910   mfc42:MFC42.DLL
 0004:00001914       __imp_?OnIdle@CDocument@@UAEXXZ 004b3914   mfc42:MFC42.DLL
 0004:00001918       __imp_?GetDefaultAccelerator@CDocument@@UAEPAUHACCEL__@@XZ 004b3918   mfc42:MFC42.DLL
 0004:0000191c       __imp_?GetDefaultMenu@CDocument@@UAEPAUHMENU__@@XZ 004b391c   mfc42:MFC42.DLL
 0004:00001920       __imp_?UpdateFrameCounts@CDocument@@UAEXXZ 004b3920   mfc42:MFC42.DLL
 0004:00001924       __imp_?DoFileSave@CDocument@@UAEHXZ 004b3924   mfc42:MFC42.DLL
 0004:00001928       __imp_?DoSave@CDocument@@UAEHPBDH@Z 004b3928   mfc42:MFC42.DLL
 0004:0000192c       __imp_?PreCloseFrame@CDocument@@UAEXPAVCFrameWnd@@@Z 004b392c   mfc42:MFC42.DLL
 0004:00001930       __imp_?SaveModified@CDocument@@UAEHXZ 004b3930   mfc42:MFC42.DLL
 0004:00001934       __imp_?CanCloseFrame@CDocument@@UAEHPAVCFrameWnd@@@Z 004b3934   mfc42:MFC42.DLL
 0004:00001938       __imp_?SetPathName@CDocument@@UAEXPBDH@Z 004b3938   mfc42:MFC42.DLL
 0004:0000193c       __imp_?GetFile@CDocument@@UAEPAVCFile@@PBDIPAVCFileException@@@Z 004b393c   mfc42:MFC42.DLL
 0004:00001940       __imp_?ReportSaveLoadException@CDocument@@UAEXPBDPAVCException@@HI@Z 004b3940   mfc42:MFC42.DLL
 0004:00001944       __imp_?OnCloseDocument@CDocument@@UAEXXZ 004b3944   mfc42:MFC42.DLL
 0004:00001948       __imp_?OnSaveDocument@CDocument@@UAEHPBD@Z 004b3948   mfc42:MFC42.DLL
 0004:0000194c       __imp_?OnOpenDocument@CDocument@@UAEHPBD@Z 004b394c   mfc42:MFC42.DLL
 0004:00001950       __imp_?DeleteContents@CDocument@@UAEXXZ 004b3950   mfc42:MFC42.DLL
 0004:00001954       __imp_?OnChangedViewList@CDocument@@UAEXXZ 004b3954   mfc42:MFC42.DLL
 0004:00001958       __imp_?GetNextView@CDocument@@UBEPAVCView@@AAPAU__POSITION@@@Z 004b3958   mfc42:MFC42.DLL
 0004:0000195c       __imp_?GetFirstViewPosition@CDocument@@UBEPAU__POSITION@@XZ 004b395c   mfc42:MFC42.DLL
 0004:00001960       __imp_?AfxOleLockApp@@YGXXZ 004b3960   mfc42:MFC42.DLL
 0004:00001964       __imp_?SetTitle@CDocument@@UAEXPBD@Z 004b3964   mfc42:MFC42.DLL
 0004:00001968       __imp_?OnFinalRelease@CDocument@@UAEXXZ 004b3968   mfc42:MFC42.DLL
 0004:0000196c       __imp_?OnCmdMsg@CDocument@@UAEHIHPAXPAUAFX_CMDHANDLERINFO@@@Z 004b396c   mfc42:MFC42.DLL
 0004:00001970       __imp_??1CDocument@@UAE@XZ 004b3970   mfc42:MFC42.DLL
 0004:00001974       __imp_?EnableAutomation@CCmdTarget@@QAEXXZ 004b3974   mfc42:MFC42.DLL
 0004:00001978       __imp_??0CDocument@@QAE@XZ 004b3978   mfc42:MFC42.DLL
 0004:0000197c       __imp_?AfxOleUnlockApp@@YGXXZ 004b397c   mfc42:MFC42.DLL
 0004:00001980       __imp_?OnNewDocument@CDocument@@UAEHXZ 004b3980   mfc42:MFC42.DLL
 0004:00001984       __imp_?Flush@CArchive@@QAEXXZ 004b3984   mfc42:MFC42.DLL
 0004:00001988       \177MFC42_NULL_THUNK_DATA  004b3988   mfc42:MFC42.DLL
 0004:0000198c       __imp__WNetGetUserA@12     004b398c   mpr:MPR.dll
 0004:00001990       \177MPR_NULL_THUNK_DATA    004b3990   mpr:MPR.dll
 0004:00001994       __imp___controlfp          004b3994   msvcrt:MSVCRT.dll
 0004:00001998       __imp___gcvt               004b3998   msvcrt:MSVCRT.dll
 0004:00001998       __imp__gcvt                004b3998   msvcrt:MSVCRT.dll
 0004:0000199c       __imp___stricmp            004b399c   msvcrt:MSVCRT.dll
 0004:0000199c       __imp__stricmp             004b399c   msvcrt:MSVCRT.dll
 0004:000019a0       __imp__itoa                004b39a0   msvcrt:MSVCRT.dll
 0004:000019a0       __imp___itoa               004b39a0   msvcrt:MSVCRT.dll
 0004:000019a4       __imp___setmbcp            004b39a4   msvcrt:MSVCRT.dll
 0004:000019a8       __imp____set_app_type      004b39a8   msvcrt:MSVCRT.dll
 0004:000019ac       __imp____p__fmode          004b39ac   msvcrt:MSVCRT.dll
 0004:000019b0       __imp__fopen               004b39b0   msvcrt:MSVCRT.dll
 0004:000019b4       __imp____p__commode        004b39b4   msvcrt:MSVCRT.dll
 0004:000019b8       __imp___adjust_fdiv        004b39b8   msvcrt:MSVCRT.dll
 0004:000019bc       __imp____setusermatherr    004b39bc   msvcrt:MSVCRT.dll
 0004:000019c0       __imp__isspace             004b39c0   msvcrt:MSVCRT.dll
 0004:000019c4       __imp__ispunct             004b39c4   msvcrt:MSVCRT.dll
 0004:000019c8       __imp____CxxFrameHandler   004b39c8   msvcrt:MSVCRT.dll
 0004:000019cc       __imp__memset              004b39cc   msvcrt:MSVCRT.dll
 0004:000019d0       __imp__free                004b39d0   msvcrt:MSVCRT.dll
 0004:000019d4       __imp____getmainargs       004b39d4   msvcrt:MSVCRT.dll
 0004:000019d8       __imp___initterm           004b39d8   msvcrt:MSVCRT.dll
 0004:000019dc       __imp____p__acmdln         004b39dc   msvcrt:MSVCRT.dll
 0004:000019e0       __imp___XcptFilter         004b39e0   msvcrt:MSVCRT.dll
 0004:000019e4       __imp___exit               004b39e4   msvcrt:MSVCRT.dll
 0004:000019e8       __imp___onexit             004b39e8   msvcrt:MSVCRT.dll
 0004:000019ec       __imp____dllonexit         004b39ec   msvcrt:MSVCRT.dll
 0004:000019f0       __imp_?terminate@@YAXXZ    004b39f0   msvcrt:MSVCRT.dll
 0004:000019f4       __imp___except_handler3    004b39f4   msvcrt:MSVCRT.dll
 0004:000019f8       __imp__vprintf             004b39f8   msvcrt:MSVCRT.dll
 0004:000019fc       __imp__vsprintf            004b39fc   msvcrt:MSVCRT.dll
 0004:00001a00       __imp__vfprintf            004b3a00   msvcrt:MSVCRT.dll
 0004:00001a04       __imp__strdup              004b3a04   msvcrt:MSVCRT.dll
 0004:00001a04       __imp___strdup             004b3a04   msvcrt:MSVCRT.dll
 0004:00001a08       __imp__longjmp             004b3a08   msvcrt:MSVCRT.dll
 0004:00001a0c       __imp__strrchr             004b3a0c   msvcrt:MSVCRT.dll
 0004:00001a10       __imp__strncpy             004b3a10   msvcrt:MSVCRT.dll
 0004:00001a14       __imp__fgets               004b3a14   msvcrt:MSVCRT.dll
 0004:00001a18       __imp__sin                 004b3a18   msvcrt:MSVCRT.dll
 0004:00001a1c       __imp__atan                004b3a1c   msvcrt:MSVCRT.dll
 0004:00001a20       __imp__cos                 004b3a20   msvcrt:MSVCRT.dll
 0004:00001a24       __imp___setjmp3            004b3a24   msvcrt:MSVCRT.dll
 0004:00001a28       __imp__getchar             004b3a28   msvcrt:MSVCRT.dll
 0004:00001a2c       __imp__abs                 004b3a2c   msvcrt:MSVCRT.dll
 0004:00001a30       __imp__fclose              004b3a30   msvcrt:MSVCRT.dll
 0004:00001a34       __imp___purecall           004b3a34   msvcrt:MSVCRT.dll
 0004:00001a38       __imp__strchr              004b3a38   msvcrt:MSVCRT.dll
 0004:00001a3c       __imp__atof                004b3a3c   msvcrt:MSVCRT.dll
 0004:00001a40       __imp__sprintf             004b3a40   msvcrt:MSVCRT.dll
 0004:00001a44       __imp__isdigit             004b3a44   msvcrt:MSVCRT.dll
 0004:00001a48       __imp__memcpy              004b3a48   msvcrt:MSVCRT.dll
 0004:00001a4c       __imp__malloc              004b3a4c   msvcrt:MSVCRT.dll
 0004:00001a50       __imp__realloc             004b3a50   msvcrt:MSVCRT.dll
 0004:00001a54       __imp__remove              004b3a54   msvcrt:MSVCRT.dll
 0004:00001a58       __imp__printf              004b3a58   msvcrt:MSVCRT.dll
 0004:00001a5c       __imp__sqrt                004b3a5c   msvcrt:MSVCRT.dll
 0004:00001a60       __imp___mbscmp             004b3a60   msvcrt:MSVCRT.dll
 0004:00001a64       __imp___beginthread        004b3a64   msvcrt:MSVCRT.dll
 0004:00001a68       __imp__time                004b3a68   msvcrt:MSVCRT.dll
 0004:00001a6c       __imp__localtime           004b3a6c   msvcrt:MSVCRT.dll
 0004:00001a70       __imp__asctime             004b3a70   msvcrt:MSVCRT.dll
 0004:00001a74       __imp__atoi                004b3a74   msvcrt:MSVCRT.dll
 0004:00001a78       __imp__ceil                004b3a78   msvcrt:MSVCRT.dll
 0004:00001a7c       __imp___ftol               004b3a7c   msvcrt:MSVCRT.dll
 0004:00001a80       __imp__strcmp              004b3a80   msvcrt:MSVCRT.dll
 0004:00001a84       __imp__exit                004b3a84   msvcrt:MSVCRT.dll
 0004:00001a88       __imp____p__iob            004b3a88   msvcrt:MSVCRT.dll
 0004:00001a8c       __imp__fprintf             004b3a8c   msvcrt:MSVCRT.dll
 0004:00001a90       __imp__strlen              004b3a90   msvcrt:MSVCRT.dll
 0004:00001a94       __imp__floor               004b3a94   msvcrt:MSVCRT.dll
 0004:00001a98       __imp__fmod                004b3a98   msvcrt:MSVCRT.dll
 0004:00001a9c       __imp__fabs                004b3a9c   msvcrt:MSVCRT.dll
 0004:00001aa0       __imp__strcat              004b3aa0   msvcrt:MSVCRT.dll
 0004:00001aa4       __imp__strcpy              004b3aa4   msvcrt:MSVCRT.dll
 0004:00001aa8       \177MSVCRT_NULL_THUNK_DATA 004b3aa8   msvcrt:MSVCRT.dll
 0004:00001aac       __imp__SafeArrayPutElement@12 004b3aac   oleaut32:OLEAUT32.dll
 0004:00001ab0       __imp__VariantClear@4      004b3ab0   oleaut32:OLEAUT32.dll
 0004:00001ab4       __imp__SafeArrayGetElement@12 004b3ab4   oleaut32:OLEAUT32.dll
 0004:00001ab8       __imp__SafeArrayCreate@12  004b3ab8   oleaut32:OLEAUT32.dll
 0004:00001abc       \177OLEAUT32_NULL_THUNK_DATA 004b3abc   oleaut32:OLEAUT32.dll
 0004:00001ac0       __imp_??0StoreObj@@QAE@AAV0@@Z 004b3ac0   omrdmimp:OMRDM.dll
 0004:00001ac4       __imp_?End@TransAction@@QAEXXZ 004b3ac4   omrdmimp:OMRDM.dll
 0004:00001ac8       __imp_?Read@VistaObj@@UAEXXZ 004b3ac8   omrdmimp:OMRDM.dll
 0004:00001acc       __imp_?SetDefaultValues@VistaObj@@UAEXXZ 004b3acc   omrdmimp:OMRDM.dll
 0004:00001ad0       __imp_?TotalSize@VistaObj@@UAEJXZ 004b3ad0   omrdmimp:OMRDM.dll
 0004:00001ad4       __imp_?RecData@VistaObj@@UAEPAXXZ 004b3ad4   omrdmimp:OMRDM.dll
 0004:00001ad8       __imp_?RecType@VistaObj@@UAEHXZ 004b3ad8   omrdmimp:OMRDM.dll
 0004:00001adc       __imp_?_GetDb@VistaObj@@UAEPAVVistaDb@@XZ 004b3adc   omrdmimp:OMRDM.dll
 0004:00001ae0       __imp_??1RDXTask@@QAE@XZ   004b3ae0   omrdmimp:OMRDM.dll
 0004:00001ae4       __imp_?MakeCurrent@VistaTask@@UAEXXZ 004b3ae4   omrdmimp:OMRDM.dll
 0004:00001ae8       __imp_??1VistaTask@@QAE@XZ 004b3ae8   omrdmimp:OMRDM.dll
 0004:00001aec       __imp_??1RDXDb@@UAE@XZ     004b3aec   omrdmimp:OMRDM.dll
 0004:00001af0       __imp_??1VistaDb@@UAE@XZ   004b3af0   omrdmimp:OMRDM.dll
 0004:00001af4       __imp_??0VistaTask@@QAE@PAD@Z 004b3af4   omrdmimp:OMRDM.dll
 0004:00001af8       __imp_??0VistaTask@@QAE@PADAAVActivateTask@@@Z 004b3af8   omrdmimp:OMRDM.dll
 0004:00001afc       __imp_?Find@StoreObj@@QAEAAV1@AAVKeyObj@@@Z 004b3afc   omrdmimp:OMRDM.dll
 0004:00001b00       __imp_?GotoDirect@StoreObj@@QAEAAV1@AAVDbAddr@@@Z 004b3b00   omrdmimp:OMRDM.dll
 0004:00001b04       __imp_?Goto@StoreObj@@QAEAAV1@W4NavCtrl@@@Z 004b3b04   omrdmimp:OMRDM.dll
 0004:00001b08       __imp_?Close@VistaDb@@QAE?AW4T_F@@XZ 004b3b08   omrdmimp:OMRDM.dll
 0004:00001b0c       __imp_?SetName@StoreDb@@QAEXPAD@Z 004b3b0c   omrdmimp:OMRDM.dll
 0004:00001b10       __imp_??0Polymorph@@IAE@HHPAVVistaDb@@@Z 004b3b10   omrdmimp:OMRDM.dll
 0004:00001b14       __imp_?Register@Polymorph@@QAE?AW4T_F@@AAVStoreObj@@@Z 004b3b14   omrdmimp:OMRDM.dll
 0004:00001b18       __imp_?IsMember@StoreObj@@QAE?AW4T_F@@H@Z 004b3b18   omrdmimp:OMRDM.dll
 0004:00001b1c       __imp_?FreeLock@StoreObj@@QAE?AW4T_F@@XZ 004b3b1c   omrdmimp:OMRDM.dll
 0004:00001b20       __imp_?SetPaths@RDXTask@@QAEXPAD0000@Z 004b3b20   omrdmimp:OMRDM.dll
 0004:00001b24       __imp_?Select@Polymorph@@IAE?AW4T_F@@H@Z 004b3b24   omrdmimp:OMRDM.dll
 0004:00001b28       __imp_?IsOwner@StoreObj@@QAE?AW4T_F@@H@Z 004b3b28   omrdmimp:OMRDM.dll
 0004:00001b2c       __imp_?Abort@TransAction@@QAEXXZ 004b3b2c   omrdmimp:OMRDM.dll
 0004:00001b30       __imp_?Begin@TransAction@@QAEHQAD@Z 004b3b30   omrdmimp:OMRDM.dll
 0004:00001b34       __imp_?Lock@StoreObj@@QAE?AW4T_F@@PAD@Z 004b3b34   omrdmimp:OMRDM.dll
 0004:00001b38       __imp_??1TransAction@@QAE@XZ 004b3b38   omrdmimp:OMRDM.dll
 0004:00001b3c       __imp_??0TransAction@@QAE@PAVVistaTask@@@Z 004b3b3c   omrdmimp:OMRDM.dll
 0004:00001b40       __imp_??0StoreDb@@IAE@PAPAV0@@Z 004b3b40   omrdmimp:OMRDM.dll
 0004:00001b44       __imp_?FromMember@StoreObj@@QAEAAV1@PAV1@H@Z 004b3b44   omrdmimp:OMRDM.dll
 0004:00001b48       __imp_?DisConFrom@StoreObj@@QAE?AW4T_F@@AAV1@H@Z 004b3b48   omrdmimp:OMRDM.dll
 0004:00001b4c       __imp_?GotoMember@StoreObj@@QAEAAV1@AAV1@HW4NavCtrl@@@Z 004b3b4c   omrdmimp:OMRDM.dll
 0004:00001b50       __imp_?ConnectTo@StoreObj@@QAE?AW4T_F@@AAV1@H@Z 004b3b50   omrdmimp:OMRDM.dll
 0004:00001b54       __imp_??0StoreObj@@IAE@AAVKeyObj@@PAVVistaDb@@@Z 004b3b54   omrdmimp:OMRDM.dll
 0004:00001b58       __imp_??0StoreObj@@IAE@AAVSetObj@@PAVVistaDb@@@Z 004b3b58   omrdmimp:OMRDM.dll
 0004:00001b5c       __imp_?MemCount@StoreObj@@IAEJAAV1@H@Z 004b3b5c   omrdmimp:OMRDM.dll
 0004:00001b60       __imp_?FromOwner@StoreObj@@QAEAAV1@PAV1@H@Z 004b3b60   omrdmimp:OMRDM.dll
 0004:00001b64       __imp_??FStoreObj@@QAEAAV0@XZ 004b3b64   omrdmimp:OMRDM.dll
 0004:00001b68       __imp_??EStoreObj@@QAEAAV0@XZ 004b3b68   omrdmimp:OMRDM.dll
 0004:00001b6c       __imp_??AStoreObj@@QAEAAV0@W4NavCtrl@@@Z 004b3b6c   omrdmimp:OMRDM.dll
 0004:00001b70       __imp_?Read@StoreObj@@MAEXXZ 004b3b70   omrdmimp:OMRDM.dll
 0004:00001b74       __imp_?Open@VistaDb@@QAE?AW4T_F@@XZ 004b3b74   omrdmimp:OMRDM.dll
 0004:00001b78       __imp_??0StoreDb@@IAE@PADPAPAV0@@Z 004b3b78   omrdmimp:OMRDM.dll
 0004:00001b7c       __imp_??1Polymorph@@UAE@XZ 004b3b7c   omrdmimp:OMRDM.dll
 0004:00001b80       __imp_??4StoreObj@@QAEAAV0@AAV0@@Z 004b3b80   omrdmimp:OMRDM.dll
 0004:00001b84       __imp_?Goto@StoreObj@@QAEAAV1@AAVKeyObj@@W4NavCtrl@@@Z 004b3b84   omrdmimp:OMRDM.dll
 0004:00001b88       __imp_?NewObj@StoreObj@@UAEXXZ 004b3b88   omrdmimp:OMRDM.dll
 0004:00001b8c       __imp_?Write@StoreObj@@UAEXXZ 004b3b8c   omrdmimp:OMRDM.dll
 0004:00001b90       __imp_?Delete@StoreObj@@UAEXXZ 004b3b90   omrdmimp:OMRDM.dll
 0004:00001b94       __imp_?RecData@StoreObj@@MAEPAXXZ 004b3b94   omrdmimp:OMRDM.dll
 0004:00001b98       __imp_?Read@Polymorph@@MAEXXZ 004b3b98   omrdmimp:OMRDM.dll
 0004:00001b9c       __imp_?Clone@StoreObj@@UAEPAV1@XZ 004b3b9c   omrdmimp:OMRDM.dll
 0004:00001ba0       __imp_??1StoreObj@@UAE@XZ  004b3ba0   omrdmimp:OMRDM.dll
 0004:00001ba4       __imp_??0StoreObj@@IAE@PAVVistaDb@@@Z 004b3ba4   omrdmimp:OMRDM.dll
 0004:00001ba8       \177OMRDM_NULL_THUNK_DATA  004b3ba8   omrdmimp:OMRDM.dll
 0004:00001bac       __imp__glNormal3dv@4       004b3bac   opengl32:OPENGL32.dll
 0004:00001bb0       __imp__glDisable@4         004b3bb0   opengl32:OPENGL32.dll
 0004:00001bb4       __imp__glDeleteLists@8     004b3bb4   opengl32:OPENGL32.dll
 0004:00001bb8       __imp__glMultMatrixd@4     004b3bb8   opengl32:OPENGL32.dll
 0004:00001bbc       __imp__glInitNames@0       004b3bbc   opengl32:OPENGL32.dll
 0004:00001bc0       __imp__glRenderMode@4      004b3bc0   opengl32:OPENGL32.dll
 0004:00001bc4       __imp__glSelectBuffer@8    004b3bc4   opengl32:OPENGL32.dll
 0004:00001bc8       __imp__glShadeModel@4      004b3bc8   opengl32:OPENGL32.dll
 0004:00001bcc       __imp__glLightModeli@8     004b3bcc   opengl32:OPENGL32.dll
 0004:00001bd0       __imp__wglCreateContext@4  004b3bd0   opengl32:OPENGL32.dll
 0004:00001bd4       __imp__glLightModelfv@8    004b3bd4   opengl32:OPENGL32.dll
 0004:00001bd8       __imp__glBlendFunc@8       004b3bd8   opengl32:OPENGL32.dll
 0004:00001bdc       __imp__glColorMaterial@8   004b3bdc   opengl32:OPENGL32.dll
 0004:00001be0       __imp__glColor4d@32        004b3be0   opengl32:OPENGL32.dll
 0004:00001be4       __imp__glClipPlane@8       004b3be4   opengl32:OPENGL32.dll
 0004:00001be8       __imp__glColor3d@24        004b3be8   opengl32:OPENGL32.dll
 0004:00001bec       __imp__glNewList@8         004b3bec   opengl32:OPENGL32.dll
 0004:00001bf0       __imp__glEndList@0         004b3bf0   opengl32:OPENGL32.dll
 0004:00001bf4       __imp__glGenLists@4        004b3bf4   opengl32:OPENGL32.dll
 0004:00001bf8       __imp__glFlush@0           004b3bf8   opengl32:OPENGL32.dll
 0004:00001bfc       __imp__glReadPixels@28     004b3bfc   opengl32:OPENGL32.dll
 0004:00001c00       __imp__glCallList@4        004b3c00   opengl32:OPENGL32.dll
 0004:00001c04       __imp__glVertex3dv@4       004b3c04   opengl32:OPENGL32.dll
 0004:00001c08       __imp__glPopMatrix@0       004b3c08   opengl32:OPENGL32.dll
 0004:00001c0c       __imp__glTranslatef@12     004b3c0c   opengl32:OPENGL32.dll
 0004:00001c10       __imp__glClear@4           004b3c10   opengl32:OPENGL32.dll
 0004:00001c14       __imp__glViewport@16       004b3c14   opengl32:OPENGL32.dll
 0004:00001c18       __imp__glClearColor@16     004b3c18   opengl32:OPENGL32.dll
 0004:00001c1c       __imp__glLoadIdentity@0    004b3c1c   opengl32:OPENGL32.dll
 0004:00001c20       __imp__glRasterPos2i@8     004b3c20   opengl32:OPENGL32.dll
 0004:00001c24       __imp__glGetIntegerv@8     004b3c24   opengl32:OPENGL32.dll
 0004:00001c28       __imp__glDrawPixels@20     004b3c28   opengl32:OPENGL32.dll
 0004:00001c2c       __imp__wglMakeCurrent@8    004b3c2c   opengl32:OPENGL32.dll
 0004:00001c30       __imp__glPixelStorei@8     004b3c30   opengl32:OPENGL32.dll
 0004:00001c34       __imp__glPushAttrib@4      004b3c34   opengl32:OPENGL32.dll
 0004:00001c38       __imp__glColor4fv@4        004b3c38   opengl32:OPENGL32.dll
 0004:00001c3c       __imp__glPushName@4        004b3c3c   opengl32:OPENGL32.dll
 0004:00001c40       __imp__glPopAttrib@0       004b3c40   opengl32:OPENGL32.dll
 0004:00001c44       __imp__glPopName@0         004b3c44   opengl32:OPENGL32.dll
 0004:00001c48       __imp__glGetError@0        004b3c48   opengl32:OPENGL32.dll
 0004:00001c4c       __imp__glPointSize@4       004b3c4c   opengl32:OPENGL32.dll
 0004:00001c50       __imp__glOrtho@48          004b3c50   opengl32:OPENGL32.dll
 0004:00001c54       __imp__glEnable@4          004b3c54   opengl32:OPENGL32.dll
 0004:00001c58       __imp__glRotated@32        004b3c58   opengl32:OPENGL32.dll
 0004:00001c5c       __imp__glBegin@4           004b3c5c   opengl32:OPENGL32.dll
 0004:00001c60       __imp__glMatrixMode@4      004b3c60   opengl32:OPENGL32.dll
 0004:00001c64       __imp__glVertex3d@24       004b3c64   opengl32:OPENGL32.dll
 0004:00001c68       __imp__glEnd@0             004b3c68   opengl32:OPENGL32.dll
 0004:00001c6c       __imp__glPushMatrix@0      004b3c6c   opengl32:OPENGL32.dll
 0004:00001c70       __imp__glRotatef@16        004b3c70   opengl32:OPENGL32.dll
 0004:00001c74       __imp__glNormal3d@24       004b3c74   opengl32:OPENGL32.dll
 0004:00001c78       __imp__glTranslated@24     004b3c78   opengl32:OPENGL32.dll
 0004:00001c7c       \177OPENGL32_NULL_THUNK_DATA 004b3c7c   opengl32:OPENGL32.dll
 0004:00001c80       __imp__dt_isowner@12       004b3c80   rdmwin32:RDMWIN32.DLL
 0004:00001c84       __imp__dt_open@12          004b3c84   rdmwin32:RDMWIN32.DLL
 0004:00001c88       __imp__dt_opentask@4       004b3c88   rdmwin32:RDMWIN32.DLL
 0004:00001c8c       __imp__dt_ismember@12      004b3c8c   rdmwin32:RDMWIN32.DLL
 0004:00001c90       __imp__dt_recwrite@12      004b3c90   rdmwin32:RDMWIN32.DLL
 0004:00001c94       __imp__dt_keybuild@8       004b3c94   rdmwin32:RDMWIN32.DLL
 0004:00001c98       __imp__dt_keydel@12        004b3c98   rdmwin32:RDMWIN32.DLL
 0004:00001c9c       __imp__dt_setlock@16       004b3c9c   rdmwin32:RDMWIN32.DLL
 0004:00001ca0       __imp__dt_setfree@12       004b3ca0   rdmwin32:RDMWIN32.DLL
 0004:00001ca4       __imp__dt_setkey@16        004b3ca4   rdmwin32:RDMWIN32.DLL
 0004:00001ca8       __imp__dt_setmo@16         004b3ca8   rdmwin32:RDMWIN32.DLL
 0004:00001cac       __imp__dt_setlstat@16      004b3cac   rdmwin32:RDMWIN32.DLL
 0004:00001cb0       __imp__dt_setmm@16         004b3cb0   rdmwin32:RDMWIN32.DLL
 0004:00001cb4       __imp__dt_setoo@16         004b3cb4   rdmwin32:RDMWIN32.DLL
 0004:00001cb8       __imp__dt_setmr@12         004b3cb8   rdmwin32:RDMWIN32.DLL
 0004:00001cbc       __imp__dt_setom@16         004b3cbc   rdmwin32:RDMWIN32.DLL
 0004:00001cc0       __imp__dt_setro@12         004b3cc0   rdmwin32:RDMWIN32.DLL
 0004:00001cc4       __imp__dt_setor@12         004b3cc4   rdmwin32:RDMWIN32.DLL
 0004:00001cc8       __imp__dt_setrm@12         004b3cc8   rdmwin32:RDMWIN32.DLL
 0004:00001ccc       __imp__dt_stscr@12         004b3ccc   rdmwin32:RDMWIN32.DLL
 0004:00001cd0       __imp__dt_stscm@16         004b3cd0   rdmwin32:RDMWIN32.DLL
 0004:00001cd4       __imp__dt_stsco@16         004b3cd4   rdmwin32:RDMWIN32.DLL
 0004:00001cd8       __imp__dt_utsco@16         004b3cd8   rdmwin32:RDMWIN32.DLL
 0004:00001cdc       __imp__dt_stscs@16         004b3cdc   rdmwin32:RDMWIN32.DLL
 0004:00001ce0       __imp__dt_utscm@16         004b3ce0   rdmwin32:RDMWIN32.DLL
 0004:00001ce4       __imp__dt_wrcurr@20        004b3ce4   rdmwin32:RDMWIN32.DLL
 0004:00001ce8       __imp__dt_utscr@12         004b3ce8   rdmwin32:RDMWIN32.DLL
 0004:00001cec       __imp__dt_keyexist@12      004b3cec   rdmwin32:RDMWIN32.DLL
 0004:00001cf0       __imp__dt_keyfind@16       004b3cf0   rdmwin32:RDMWIN32.DLL
 0004:00001cf4       __imp__dt_close@4          004b3cf4   rdmwin32:RDMWIN32.DLL
 0004:00001cf8       __imp__dt_keylast@12       004b3cf8   rdmwin32:RDMWIN32.DLL
 0004:00001cfc       __imp__dt_keyfree@12       004b3cfc   rdmwin32:RDMWIN32.DLL
 0004:00001d00       __imp__dt_keyfrst@12       004b3d00   rdmwin32:RDMWIN32.DLL
 0004:00001d04       __imp__dt_keynext@12       004b3d04   rdmwin32:RDMWIN32.DLL
 0004:00001d08       __imp__dt_keylock@16       004b3d08   rdmwin32:RDMWIN32.DLL
 0004:00001d0c       __imp__dt_keylstat@16      004b3d0c   rdmwin32:RDMWIN32.DLL
 0004:00001d10       __imp__dt_keystore@12      004b3d10   rdmwin32:RDMWIN32.DLL
 0004:00001d14       __imp__dt_keyprev@12       004b3d14   rdmwin32:RDMWIN32.DLL
 0004:00001d18       __imp__dt_keyread@8        004b3d18   rdmwin32:RDMWIN32.DLL
 0004:00001d1c       __imp__dt_members@16       004b3d1c   rdmwin32:RDMWIN32.DLL
 0004:00001d20       __imp__dt_lock@16          004b3d20   rdmwin32:RDMWIN32.DLL
 0004:00001d24       __imp__dt_makenew@12       004b3d24   rdmwin32:RDMWIN32.DLL
 0004:00001d28       __imp__dt_reclast@12       004b3d28   rdmwin32:RDMWIN32.DLL
 0004:00001d2c       __imp__dt_recfree@12       004b3d2c   rdmwin32:RDMWIN32.DLL
 0004:00001d30       __imp__dt_recfrst@12       004b3d30   rdmwin32:RDMWIN32.DLL
 0004:00001d34       __imp__dt_initfile@12      004b3d34   rdmwin32:RDMWIN32.DLL
 0004:00001d38       __imp__dt_recread@12       004b3d38   rdmwin32:RDMWIN32.DLL
 0004:00001d3c       __imp__dt_initialize@8     004b3d3c   rdmwin32:RDMWIN32.DLL
 0004:00001d40       __imp__dt_closetask@4      004b3d40   rdmwin32:RDMWIN32.DLL
 0004:00001d44       __imp__dt_rdcurr@16        004b3d44   rdmwin32:RDMWIN32.DLL
 0004:00001d48       __imp__dt_utscs@16         004b3d48   rdmwin32:RDMWIN32.DLL
 0004:00001d4c       __imp__dt_recset@12        004b3d4c   rdmwin32:RDMWIN32.DLL
 0004:00001d50       __imp__dt_dbdpath@8        004b3d50   rdmwin32:RDMWIN32.DLL
 0004:00001d54       __imp__dt_reclock@16       004b3d54   rdmwin32:RDMWIN32.DLL
 0004:00001d58       __imp__dt_reclstat@16      004b3d58   rdmwin32:RDMWIN32.DLL
 0004:00001d5c       __imp__dt_checkid@8        004b3d5c   rdmwin32:RDMWIN32.DLL
 0004:00001d60       __imp__dt_dbfpath@8        004b3d60   rdmwin32:RDMWIN32.DLL
 0004:00001d64       __imp__dt_dblog@8          004b3d64   rdmwin32:RDMWIN32.DLL
 0004:00001d68       __imp__dt_gtscs@16         004b3d68   rdmwin32:RDMWIN32.DLL
 0004:00001d6c       __imp__dt_gtscr@12         004b3d6c   rdmwin32:RDMWIN32.DLL
 0004:00001d70       __imp__dt_gtsco@16         004b3d70   rdmwin32:RDMWIN32.DLL
 0004:00001d74       __imp__dt_gtscm@16         004b3d74   rdmwin32:RDMWIN32.DLL
 0004:00001d78       __imp__dt_findpm@12        004b3d78   rdmwin32:RDMWIN32.DLL
 0004:00001d7c       __imp__dt_findnm@12        004b3d7c   rdmwin32:RDMWIN32.DLL
 0004:00001d80       __imp__dt_findlm@12        004b3d80   rdmwin32:RDMWIN32.DLL
 0004:00001d84       __imp__dt_findfm@12        004b3d84   rdmwin32:RDMWIN32.DLL
 0004:00001d88       __imp__dt_findco@12        004b3d88   rdmwin32:RDMWIN32.DLL
 0004:00001d8c       __imp__dt_fillnew@16       004b3d8c   rdmwin32:RDMWIN32.DLL
 0004:00001d90       __imp__dt_discon@12        004b3d90   rdmwin32:RDMWIN32.DLL
 0004:00001d94       __imp__dt_recprev@8        004b3d94   rdmwin32:RDMWIN32.DLL
 0004:00001d98       __imp__dt_recnext@8        004b3d98   rdmwin32:RDMWIN32.DLL
 0004:00001d9c       __imp__dt_disdel@8         004b3d9c   rdmwin32:RDMWIN32.DLL
 0004:00001da0       __imp__dt_delete@8         004b3da0   rdmwin32:RDMWIN32.DLL
 0004:00001da4       __imp__dt_curkey@8         004b3da4   rdmwin32:RDMWIN32.DLL
 0004:00001da8       __imp__dt_ctscr@12         004b3da8   rdmwin32:RDMWIN32.DLL
 0004:00001dac       __imp__dt_destroy@8        004b3dac   rdmwin32:RDMWIN32.DLL
 0004:00001db0       __imp__dt_freeall@4        004b3db0   rdmwin32:RDMWIN32.DLL
 0004:00001db4       __imp__dt_lockcomm@8       004b3db4   rdmwin32:RDMWIN32.DLL
 0004:00001db8       __imp__dt_lockmgr@8        004b3db8   rdmwin32:RDMWIN32.DLL
 0004:00001dbc       __imp__dt_off_opt@8        004b3dbc   rdmwin32:RDMWIN32.DLL
 0004:00001dc0       __imp__dt_on_opt@8         004b3dc0   rdmwin32:RDMWIN32.DLL
 0004:00001dc4       __imp__dt_recover@8        004b3dc4   rdmwin32:RDMWIN32.DLL
 0004:00001dc8       __imp__dt_renfile@16       004b3dc8   rdmwin32:RDMWIN32.DLL
 0004:00001dcc       __imp__dt_renclean@4       004b3dcc   rdmwin32:RDMWIN32.DLL
 0004:00001dd0       __imp__dt_setpages@12      004b3dd0   rdmwin32:RDMWIN32.DLL
 0004:00001dd4       __imp__dt_setfiles@8       004b3dd4   rdmwin32:RDMWIN32.DLL
 0004:00001dd8       __imp__dt_set_dberr@8      004b3dd8   rdmwin32:RDMWIN32.DLL
 0004:00001ddc       __imp__dt_timeout@8        004b3ddc   rdmwin32:RDMWIN32.DLL
 0004:00001de0       __imp__dt_trabort@4        004b3de0   rdmwin32:RDMWIN32.DLL
 0004:00001de4       __imp__dt_trbegin@8        004b3de4   rdmwin32:RDMWIN32.DLL
 0004:00001de8       __imp__dt_trend@4          004b3de8   rdmwin32:RDMWIN32.DLL
 0004:00001dec       __imp__dt_recstat@16       004b3dec   rdmwin32:RDMWIN32.DLL
 0004:00001df0       __imp__dt_rlbclr@8         004b3df0   rdmwin32:RDMWIN32.DLL
 0004:00001df4       __imp__dt_rlbset@8         004b3df4   rdmwin32:RDMWIN32.DLL
 0004:00001df8       __imp__dt_rlbtst@8         004b3df8   rdmwin32:RDMWIN32.DLL
 0004:00001dfc       __imp__dt_cmstat@12        004b3dfc   rdmwin32:RDMWIN32.DLL
 0004:00001e00       __imp__dt_cmtype@16        004b3e00   rdmwin32:RDMWIN32.DLL
 0004:00001e04       __imp__dt_connect@12       004b3e04   rdmwin32:RDMWIN32.DLL
 0004:00001e08       __imp__dt_costat@12        004b3e08   rdmwin32:RDMWIN32.DLL
 0004:00001e0c       __imp__dt_cotype@16        004b3e0c   rdmwin32:RDMWIN32.DLL
 0004:00001e10       __imp__dt_crget@12         004b3e10   rdmwin32:RDMWIN32.DLL
 0004:00001e14       __imp__dt_crread@16        004b3e14   rdmwin32:RDMWIN32.DLL
 0004:00001e18       __imp__dt_crset@12         004b3e18   rdmwin32:RDMWIN32.DLL
 0004:00001e1c       __imp__dt_crstat@8         004b3e1c   rdmwin32:RDMWIN32.DLL
 0004:00001e20       __imp__dt_crtype@12        004b3e20   rdmwin32:RDMWIN32.DLL
 0004:00001e24       __imp__dt_crwrite@16       004b3e24   rdmwin32:RDMWIN32.DLL
 0004:00001e28       __imp__dt_csmget@16        004b3e28   rdmwin32:RDMWIN32.DLL
 0004:00001e2c       __imp__dt_csmread@20       004b3e2c   rdmwin32:RDMWIN32.DLL
 0004:00001e30       __imp__dt_csmset@16        004b3e30   rdmwin32:RDMWIN32.DLL
 0004:00001e34       __imp__dt_csmwrite@20      004b3e34   rdmwin32:RDMWIN32.DLL
 0004:00001e38       __imp__dt_internals@24     004b3e38   rdmwin32:RDMWIN32.DLL
 0004:00001e3c       __imp__dt_dbuserid@8       004b3e3c   rdmwin32:RDMWIN32.DLL
 0004:00001e40       __imp__dt_csoget@16        004b3e40   rdmwin32:RDMWIN32.DLL
 0004:00001e44       __imp__dt_csoread@20       004b3e44   rdmwin32:RDMWIN32.DLL
 0004:00001e48       __imp__dt_csoset@16        004b3e48   rdmwin32:RDMWIN32.DLL
 0004:00001e4c       __imp__dt_csowrite@20      004b3e4c   rdmwin32:RDMWIN32.DLL
 0004:00001e50       __imp__dt_ctscm@16         004b3e50   rdmwin32:RDMWIN32.DLL
 0004:00001e54       __imp__dt_dbtaf@8          004b3e54   rdmwin32:RDMWIN32.DLL
 0004:00001e58       __imp__dt_csstat@12        004b3e58   rdmwin32:RDMWIN32.DLL
 0004:00001e5c       __imp__dt_ctsco@16         004b3e5c   rdmwin32:RDMWIN32.DLL
 0004:00001e60       __imp__dt_ctbpath@8        004b3e60   rdmwin32:RDMWIN32.DLL
 0004:00001e64       \177RDMWIN32_NULL_THUNK_DATA 004b3e64   rdmwin32:RDMWIN32.DLL
 0004:00001e68       __imp__LoadMenuA@8         004b3e68   user32:USER32.dll
 0004:00001e6c       __imp__GetWindowLongA@8    004b3e6c   user32:USER32.dll
 0004:00001e70       __imp__ModifyMenuA@20      004b3e70   user32:USER32.dll
 0004:00001e74       __imp__GetSubMenu@8        004b3e74   user32:USER32.dll
 0004:00001e78       __imp__GetMenuStringA@20   004b3e78   user32:USER32.dll
 0004:00001e7c       __imp__AppendMenuA@16      004b3e7c   user32:USER32.dll
 0004:00001e80       __imp__CreateMenu@0        004b3e80   user32:USER32.dll
 0004:00001e84       __imp__IsRectEmpty@4       004b3e84   user32:USER32.dll
 0004:00001e88       __imp__wsprintfA           004b3e88   user32:USER32.dll
 0004:00001e8c       __imp__WaitMessage@0       004b3e8c   user32:USER32.dll
 0004:00001e90       __imp__PeekMessageA@20     004b3e90   user32:USER32.dll
 0004:00001e94       __imp__FrameRect@12        004b3e94   user32:USER32.dll
 0004:00001e98       __imp__SetRect@20          004b3e98   user32:USER32.dll
 0004:00001e9c       __imp__GetActiveWindow@0   004b3e9c   user32:USER32.dll
 0004:00001ea0       __imp__CopyRect@8          004b3ea0   user32:USER32.dll
 0004:00001ea4       __imp__MessageBoxA@16      004b3ea4   user32:USER32.dll
 0004:00001ea8       __imp__ScreenToClient@8    004b3ea8   user32:USER32.dll
 0004:00001eac       __imp__GetCursorPos@4      004b3eac   user32:USER32.dll
 0004:00001eb0       __imp__PostQuitMessage@4   004b3eb0   user32:USER32.dll
 0004:00001eb4       __imp__LoadIconA@8         004b3eb4   user32:USER32.dll
 0004:00001eb8       __imp__UpdateWindow@4      004b3eb8   user32:USER32.dll
 0004:00001ebc       __imp__GetFocus@0          004b3ebc   user32:USER32.dll
 0004:00001ec0       __imp__SetTimer@16         004b3ec0   user32:USER32.dll
 0004:00001ec4       __imp__GetClientRect@8     004b3ec4   user32:USER32.dll
 0004:00001ec8       __imp__SetWindowPos@28     004b3ec8   user32:USER32.dll
 0004:00001ecc       __imp__GetDC@4             004b3ecc   user32:USER32.dll
 0004:00001ed0       __imp__ReleaseDC@8         004b3ed0   user32:USER32.dll
 0004:00001ed4       __imp__GetWindowDC@4       004b3ed4   user32:USER32.dll
 0004:00001ed8       __imp__PostMessageA@16     004b3ed8   user32:USER32.dll
 0004:00001edc       __imp__KillTimer@8         004b3edc   user32:USER32.dll
 0004:00001ee0       __imp__SetCursor@4         004b3ee0   user32:USER32.dll
 0004:00001ee4       __imp__BringWindowToTop@4  004b3ee4   user32:USER32.dll
 0004:00001ee8       __imp__GetWindowRect@8     004b3ee8   user32:USER32.dll
 0004:00001eec       __imp__OffsetRect@12       004b3eec   user32:USER32.dll
 0004:00001ef0       __imp__LoadBitmapA@8       004b3ef0   user32:USER32.dll
 0004:00001ef4       __imp__MessageBeep@4       004b3ef4   user32:USER32.dll
 0004:00001ef8       __imp__SendMessageA@16     004b3ef8   user32:USER32.dll
 0004:00001efc       __imp__ShowScrollBar@12    004b3efc   user32:USER32.dll
 0004:00001f00       __imp__InvalidateRect@12   004b3f00   user32:USER32.dll
 0004:00001f04       __imp__GetParent@4         004b3f04   user32:USER32.dll
 0004:00001f08       __imp__EnableWindow@8      004b3f08   user32:USER32.dll
 0004:00001f0c       __imp__LoadCursorA@8       004b3f0c   user32:USER32.dll
 0004:00001f10       __imp__RedrawWindow@16     004b3f10   user32:USER32.dll
 0004:00001f14       __imp__GetMenuCheckMarkDimensions@0 004b3f14   user32:USER32.dll
 0004:00001f18       __imp__FillRect@12         004b3f18   user32:USER32.dll
 0004:00001f1c       __imp__SetActiveWindow@4   004b3f1c   user32:USER32.dll
 0004:00001f20       \177USER32_NULL_THUNK_DATA 004b3f20   user32:USER32.dll
 0004:00001f24       __imp_?dgnCreateCircTorus@@YAXPAXNNN@Z 004b3f24   pm3dgnInterface:pm3dgnInterface.dll
 0004:00001f28       __imp_?dgnCreateBox@@YAXPAXNNN@Z 004b3f28   pm3dgnInterface:pm3dgnInterface.dll
 0004:00001f2c       __imp_?dgnSetCurrentCoordSystemRel@@YAXPAXPAN111@Z 004b3f2c   pm3dgnInterface:pm3dgnInterface.dll
 0004:00001f30       __imp_?dgnCreateCylinder@@YAXPAXNN@Z 004b3f30   pm3dgnInterface:pm3dgnInterface.dll
 0004:00001f34       __imp_?dgnCreatePyramid@@YAXPAXNNNNNNN@Z 004b3f34   pm3dgnInterface:pm3dgnInterface.dll
 0004:00001f38       __imp_?dgnCreateRectTorus@@YAXPAXNNNN@Z 004b3f38   pm3dgnInterface:pm3dgnInterface.dll
 0004:00001f3c       __imp_?dgnCreateOffSetCone@@YAXPAXNNNNN@Z 004b3f3c   pm3dgnInterface:pm3dgnInterface.dll
 0004:00001f40       __imp_?openDgnFile@@YAPAXPAD@Z 004b3f40   pm3dgnInterface:pm3dgnInterface.dll
 0004:00001f44       __imp_?setUORConversion@@YAXPAXNPAD@Z 004b3f44   pm3dgnInterface:pm3dgnInterface.dll
 0004:00001f48       __imp_?dgnPushCurrentTransform@@YAXPAX@Z 004b3f48   pm3dgnInterface:pm3dgnInterface.dll
 0004:00001f4c       __imp_?dgnPopCurrentTransform@@YAXPAX@Z 004b3f4c   pm3dgnInterface:pm3dgnInterface.dll
 0004:00001f50       __imp_?closeDgnFile@@YAXPAX@Z 004b3f50   pm3dgnInterface:pm3dgnInterface.dll
 0004:00001f54       \177pm3dgnInterface_NULL_THUNK_DATA 004b3f54   pm3dgnInterface:pm3dgnInterface.dll

 entry point at        0001:0008c720

 Static symbols

 0001:00030700       _$E281                     00431700 f fotoview.obj
 0001:0003071a       _$E278                     0043171a f fotoview.obj
 0001:00030734       _$E280                     00431734 f fotoview.obj
 0001:00030751       _$E279                     00431751 f fotoview.obj
 0001:00024d68       _$E192                     00425d68 f DIB.OBJ
 0001:00024d7d       _$E191                     00425d7d f DIB.OBJ
 0001:00025199       ?NumDIBColorEntries@@YAHPAUtagBITMAPINFO@@@Z 00426199 f DIB.OBJ
 0001:00025279       ?IsWinDIB@@YAHPAUtagBITMAPINFOHEADER@@@Z 00426279 f DIB.OBJ
 0001:00020535       _$E314                     00421535 f fotobrow.obj
 0001:0002054f       _$E311                     0042154f f fotobrow.obj
 0001:00020569       _$E313                     00421569 f fotobrow.obj
 0001:00020586       _$E312                     00421586 f fotobrow.obj
 0001:0008c979       _$E352                     0048d979 f mfcs42:appmodul.obj
 0001:0008c97e       _$E351                     0048d97e f mfcs42:appmodul.obj
 0001:0008c520       ?ArrayUnwindFilter@@YAHPAU_EXCEPTION_POINTERS@@@Z 0048d520 f msvcrt:ehvecdtr.obj

FIXUPS: 13a0f 17 50 27 1b3 e0 13 28 57 b 79b64 9 37 9 a ffffff67 fffffeaa
FIXUPS: 8d7b1 f 39 7a 20 fffffe54 ffffff1d 22 fffffe71 5c 3c fff85fa6 10
FIXUPS: 134f8 37 121 13 46 c 10 13 46 118 b 29 15 15 15 15 15 15 15 15
FIXUPS: 13929 17 17 17 17 17 17 17 17 17 fffff137 151 13 46 c 10 13 37
FIXUPS: 12e80 13 46 c 10 13 37 151 13 46 c 10 13 37 121 13 46 c 10 13 37
FIXUPS: 13470 13 46 ffffefab 2c 20 20 20 28 34 2c 51 2f 30 34 2c 51 2f
FIXUPS: 12759 6a b 36 6c 13 46 c 10 13 34 144 13 46 c 10 13 fffff39c 30
FIXUPS: 11ef4 2c 20 20 20 29 2f 30 41 56 b 2a 5c 13 46 c 10 13 3f 2c b
FIXUPS: 1227b 2c b 69 b 81 29 44 30 fffff48c 20 20 20 28 34 2c 51 2f 30
FIXUPS: 11a9c 2c 51 2f 41 2c b 34 2c 13 46 c 10 13 4b 9 2c b 68 b 81 29
FIXUPS: 11348 51 2f 41 2c b 34 2c 13 46 c 10 13 3f 2c b 4d 2c b 4a 9 2c
FIXUPS: 116ac 50 9 2c b 6f b 8e 30 30 fffff4f1 13 3f 2c b 4d 2c b 4a 9
FIXUPS: 10f21 b 50 9 2c b 6f b 8e 30 30 2c 20 20 20 28 34 2c 51 2f 30 34
FIXUPS: 107d0 13 49 c 10 13 58 9 2c b 68 b a1 29 44 30 30 2c 20 20 20 29
FIXUPS: 10bb8 30 41 5b b 35 5c 13 46 c fffff44f 2c 13 46 c 10 13 4b 9 2c
FIXUPS: 10313 68 b a1 29 44 30 30 2c 20 20 20 29 2f 30 31 2f 30 41 5b b
FIXUPS: 10774 fffff483 b 4a 9 2c b 50 9 2c b 6f b 8e 30 30 2c 20 20 20
FIXUPS: ff38 34 2c 51 2f 30 34 2c 51 2f 41 2c b fffff476 8e 30 30 2c 20
FIXUPS: f770 20 28 34 2c 51 2f 30 34 2c 51 2f 41 2c b 34 2c 13 46 c 10
FIXUPS: fb08 3f 2c b 4d fffff4ad 30 30 34 2c 51 2f 41 5b b 35 5c 13 49
FIXUPS: f358 10 13 4c 2c b 4d 2c b 4a 9 2c b 50 9 2c b 6f fffff50a b 34
FIXUPS: eb80 13 46 c 10 13 4b 9 2c b 49 9 2c b 6f b a1 29 44 30 30 2c 20
FIXUPS: ef70 20 29 2f 30 31 fffff4b5 4d 2c b 4a 9 2c b 50 9 2c b 6f b 8e
FIXUPS: e7d4 30 2c 20 20 20 28 34 2c 51 2f 30 34 2c 51 2f 41 fffff3ca 68
FIXUPS: df26 a1 29 44 30 30 2c 20 20 20 29 2f 30 30 34 2c 51 2f 41 5b b
FIXUPS: e394 5c 13 49 c 10 13 4c 2c fffff3d5 b 68 b a1 29 44 30 30 2c 20
FIXUPS: db20 20 29 2f 30 31 2f 30 41 5b b 35 5c 13 49 c 10 13 58 9 2c fffff434
FIXUPS: d2e5 2c b 5f b a1 29 44 30 30 2c 20 20 20 28 34 2c 51 2f 41 5b
FIXUPS: d72f 35 5c 13 46 c 10 13 4b 9 fffff40f 58 9 2c b 68 b a1 29 44
FIXUPS: cef4 30 2c 20 20 20 29 2f 30 31 2f 30 41 5b b 35 5c 13 49 c 10
FIXUPS: d28b fffff3dd 30 31 2f 30 31 2f 30 30 34 2c 51 2f 30 34 2c 51 2f
FIXUPS: ca08 34 2c 51 2f 41 5d b 33 5c 13 49 c 10 fffff404 c 10 13 55 9
FIXUPS: c155 b 6b b a1 29 44 30 30 2c 20 20 20 29 2f 30 31 2f 30 31 2f
FIXUPS: c578 31 2f 30 31 fffff286 121 13 46 c 10 13 37 141 13 46 c 10 13
FIXUPS: bc9f 141 13 46 c 10 13 42 2c b 68 2c b 34 5e b 23 13 fffff299 2c
FIXUPS: b369 2f 41 5b b 35 5c 13 46 c 10 13 3f 2c b 9b 2f 30 41 2c b 34
FIXUPS: b7d2 b 23 13 46 c 10 13 fffff468 20 20 20 28 34 2c 51 2f 41 5b
FIXUPS: aeff 35 5c 13 46 c 10 13 3d 2c b 5f b ae 30 30 2c 20 20 20 28 fffff3b3
FIXUPS: a676 ae 30 30 2c 20 20 20 28 34 2c 51 2f 41 5b b 35 5c 13 46 c
FIXUPS: aac5 13 3d 2c b 5f b ae 30 30 fffff37d b 5f b ae 30 30 2c 20 20
FIXUPS: a250 29 2f 30 30 34 2c 51 2f 41 56 b 2a 5c 13 46 c 10 13 3d 2c
FIXUPS: a60c fffff3fc 3d 2c b 5f b ae 30 30 2c 20 20 20 29 2f 30 30 34
FIXUPS: 9d98 51 2f 41 5e b 32 5c 13 46 c 10 13 3d fffff42b 13 46 c 10 13
FIXUPS: 9505 2c b 5f b ae 30 30 2c 20 20 20 28 34 2c 51 2f 41 5b b 35 5c
FIXUPS: 9993 46 c 10 fffff3d3 41 5b b 35 5c 13 46 c 10 13 3d 2c b 5f b
FIXUPS: 9114 30 30 2c 20 20 20 28 34 2c 51 2f 41 5b b 35 fffff39c 28 34
FIXUPS: 8808 51 2f 41 5b b 35 5c 13 46 c 10 13 3d 2c b 5f b ae 30 30 2c
FIXUPS: 8c80 20 20 28 34 2c 51 fffff3eb 30 2c 20 20 20 28 34 2c 51 2f 41
FIXUPS: 83e4 b 35 5c 13 46 c 10 13 3d 2c b 5f b ae 30 30 2c 20 20 fffff391
FIXUPS: 7afc 5f b ae 30 30 2c 20 20 20 28 34 2c 51 2f 41 5b b 35 5c 13
FIXUPS: 7f99 c 10 13 3d 2c b 5f b ae fffff3c5 c 10 13 3d 2c b 5f b ae 30
FIXUPS: 7734 2c 20 20 20 28 34 2c 51 2f 41 5b b 35 5c 13 46 c 10 13 3d
FIXUPS: 6f34 30 30 2c 20 20 20 29 2f 30 41 5b b 35 5c 13 46 c 10 13 44
FIXUPS: 72b5 2c b 7d 4c b 34 9e b 23 13 fffff3f8 2c b 69 b 6a 64 30 30
FIXUPS: 6ad0 20 20 20 29 2f 30 41 5b b 35 5c 13 46 c 10 13 3f 2c b 6d b
FIXUPS: 6ed0 fffff3a9 2f 30 34 2c 51 2f 30 34 2c 51 2f 30 34 2c 51 2f 30
FIXUPS: 663c 2c 51 2f 2c 5c 13 49 c 10 13 4c 2c b fffff3da 30 31 2f 30
FIXUPS: 5d49 2f 30 31 2f 30 31 2f 30 31 2f 30 31 2f 30 31 2f 30 31 2f 30
FIXUPS: 6139 2f 30 30 34 2c fffff4c9 b 50 9 2c b 50 9 2c b 50 9 2c b 50
FIXUPS: 5905 2c b 6f b 6a 64 30 30 2c 20 20 20 29 2f 30 31 fffff527 64
FIXUPS: 51e4 30 2c 20 20 20 29 2f 30 41 5b b 35 5c 13 49 c 10 13 4c 2c
FIXUPS: 556e 4d 2c b 49 2c b 4a 9 fffff4de 46 5c b 34 5c 13 46 c 10 13
FIXUPS: 4daf 2c b 2a 59 2c b 34 5e b 23 13 49 c 10 13 4c 2c b 6d b fffff0be
FIXUPS: 4202 b 23 13 49 c 10 13 119 30 2e 20 20 20 24 30 30 30 2f 30 30
FIXUPS: 4605 2d 1e 13 46 c 10 13 46b 30 fffff130 49 c 10 13 4e 2c b 34
FIXUPS: 3e32 b 23 13 49 c 10 13 4f 2c b 48 2c b 4e 2c b 48 2c b 45 2c b
FIXUPS: 33ef 40 44 40 40 40 40 3c 44 40 3c 40 40 44 40 3c 44 40 40 3c 44
FIXUPS: 39e0 13 46 c 10 13 f1 75 b 2b 8c ffffef63 40 3c 44 38 44 40 40
FIXUPS: 2deb 44 40 44 3c 40 40 44 40 3c 40 39 47 49 3b 3c 44 3c 40 40 44
FIXUPS: 3333 3c 40 fffff004 3c 44 3c 3c 44 44 40 44 4c 44 4c 44 4c 44 48
FIXUPS: 27e8 4b 40 3c 3c 40 40 40 40 44 44 3c 40 40 40 40 ffffef68 38 24
FIXUPS: 1bab 2c 30 30 2c 34 2c 5d 13 46 c 10 13 189 b 134 13 49 c 10 13
FIXUPS: 21b3 38 40 40 44 44 3c 40 fffff043 1e 13 46 c 10 13 2d 83 30 30
FIXUPS: 1598 17e 2a 13 46 c 10 13 cf 30 30 30 30 30 40 30 2c 34 30 30 30
FIXUPS: 150d9 59 b ffffecdb 2a 3f 17 c 27 9 b 2e 57 f 1e b 3f 45 43 54
FIXUPS: 14111 f 1e b 3f 43 23 b 27 52 b fffecec6 139f9 2b 48 2b 2a 2b 2a
FIXUPS: 14c84 2a 2b 2f 2b 2a 2b 2a 2b 2a 2b 2a 2b 2a 2b 2a 2b 2a 2b 2a
FIXUPS: 14fde 2e 5a 45 23 fffff677 9 b 2e 3f 17 c 27 9 b 2e 2b 2a 3f 17
FIXUPS: 14909 27 9 b 2e 2b 2a 2b 2a 3f 17 c 27 9 b 2e 2b d9c ffffea1a 2a
FIXUPS: 1431d 2a 2b 2a 2b 2a 47 c 1e b 2e 2b 2a 2b 2c 2b 2a 2b 2a 3f 17
FIXUPS: 14653 27 9 b 2e 3f 17 c 3185 24 ffffd8ff 4b 6b 4e 19 10 1a 29 db
FIXUPS: 15439 45 28 45 28 e8 22 13 16 28 2a 14 2a 16 14 20 38 e 4b 67 47
FIXUPS: 173cb 14 9d 48 f 13 13 f eb 10 10 10 14 4e 1f 29 c 16 a c 13 e
FIXUPS: 17771 1f 29 c 16 a c 13 e 7e fffff792 d f 13 e 5d 1f 2f f 19 d
FIXUPS: 17152 e 4d 1f 2f f 1c d f 13 e 3b 13 26 22 15 31 15 17 10 2c fffff89c
FIXUPS: 16c63 1f 13 10 19 10 10 e 5d 1f 2f d 9 db b b d c 13 15 d 10 10
FIXUPS: 16f1c 12 13 e 5d 1f 2f f fffff74e 15 2d 15 17 1e 1d 8e 1a 28 3a
FIXUPS: 1691c 19 21 12 d 10 18 a 28 3a 19 13 13 9 123 1c f d 10 15 5d fffff73c
FIXUPS: 1639a 17 16 d c f 7 1f 30 17 16 d c f 13 d d d e 70 28 3d 17 31
FIXUPS: 16613 19 12 1c 10 b4 24 fffff978 7 1f 29 c 16 a 5 11 12 f 9 7 13
FIXUPS: 1619c e 5d 1f 2f f 19 d f 7 1f 30 17 16 d c f 7 fffffa40 19 d f
FIXUPS: 15dda 1d 1f 21 2f 15 14 7 1f 28 c a 19 22 f 15 13 1d 18 16 d e
FIXUPS: 16028 1f 2f f 19 d 1c92 55 b ffffdc38 77 c 16 a 1c b 5e b 3a c
FIXUPS: 15b5a 79 1f 2f f 19 d f f f f f f 13 e 5d 1f 2f 2118 3c 94 8e fffff932
FIXUPS: 17940 2d b 68 2c b 68 21 1f 1f 58 c 10 14 a 1a 11 9 6a 9 9 b 29
FIXUPS: 17c9b 25 13 5f 24bc 32 53 b 21 54 b 21 49 b 21 f 11 a 1c b 32 b
FIXUPS: 1a467 b 49 b ffffd8f4 b a 1a 9 25 b a 25 9 1d60 b 22 fc 25 25 25
FIXUPS: 19d77 25 24 13 5f b 23 59 12 23 9 b 2f 91 9 b 5c b 55 b 2e da 12
FIXUPS: 1a1da 9 fffff6b7 18 d 14 11 11 22 41 25 c c c b 47 21 e 68 e b
FIXUPS: 19aaf 29 15 13 24 b b 2f 15 c c c c fffffa17 13 13 13 13 13 20
FIXUPS: 19659 15 15 15 15 15 11 13 13 13 13 13 14 52 24 e b c 29 12 12
FIXUPS: 19850 11 19 14 fffff9ae 1b c 12 b6 7 1c 19 a9 10 13 13 15 11 b
FIXUPS: 19488 10 13 1e b 25 9 c b 22 11 11 11 11 11 11 11 fffff942 d 20
FIXUPS: 18f34 e 20 12 7 a e 9 7 19 b 2e d 42 c c 55 11 15 17 3f 40 b 4b
FIXUPS: 191d7 21 13 9 15 fffff6fa 109 36 1a 12 9e 7 15 1c 1c 15d 13 13
FIXUPS: 18d16 13 23 56 16 24 b b 39 25 c c c c c c c c b fffff679 15 18
FIXUPS: 185ca 19 26 2c 19 26 2c 19 26 3f 40 11 16 24 b b 1d 1d 12 11 15
FIXUPS: 18845 11 26 45 11 19 14 c fffff7d5 13 46 c 10 13 3c 1c 2d b 6d
FIXUPS: 1827a 12 12 2f f f 9 b 8b f f 9 b 26 b2 24 e b c 29 1a 2443 8 8
FIXUPS: 1a991 5 10 2a 13 5f b fffffacf 17 c 27 9 b 2e 2b 3a 2b 2a 2b 2a
FIXUPS: 1a6e2 2a 2b 2a 2b 2c 2b 2c ffffd8b3 8863 f f f c 9 b 39 90 32 23
FIXUPS: 20be4 6e 9 b 68 67 9 b 59 b 43 44 ffff9a2a 36 b 29 15 52 5 f 12
FIXUPS: 20130 13 68 b 2a 13 5f b 94 10 2f 10 50 d 4c f1 9 44 c1 ea c 9
FIXUPS: 206f2 60 b 23 50 72 c 9 b b4 fffff3b8 17 24 26 26 26 13 7 1a 7
FIXUPS: 1fdd2 7 1b 43 c c c c b a3 2c b 39 36 b 5a 13 4d 13 52 1e b fffff7f1
FIXUPS: 1f905 d 12f e 17 16 26 1f 13 6 e 11 11 11 17 24 21 1f 13 6 25 b
FIXUPS: 1fbf6 24 26 26 1f 13 6 e 11 fffff9db 10 d c b 1a 1b b 18 32 c d
FIXUPS: 1f77f 10 10 10 10 10 10 10 f b 3e 31 16 6 b 10 d e 14 b fffff7fc
FIXUPS: 1f0f0 1e 19 19 19 1d 25 35 b 1e 27 27 27 24 25 35 b 3c 15 25 32
FIXUPS: 1f3aa 3a 35 84 28 59 b 1b b 11 fffff7d8 12 25 35 b 1e 19 19 15
FIXUPS: 1ee39 35 b 1e 19 19 15 25 35 b 1e 19 19 19 19 15 25 35 b 1e 19
FIXUPS: 1f08b 25 fffff941 1c 7 1b 16 26 8 27 25 9 b 5d 18 1a c b 16 16
FIXUPS: 1ebb3 21 1c 1d 1e b 2d 2d c b 43 13 1d b fffff9c2 1e 39 1e e b
FIXUPS: 1e7ae 7 1e 39 1e e b 5c 14 b 12 17 c b 17 19 b 16 8 1f e 1b 8 22
FIXUPS: 1e9d0 1a fffff9bf 25 37 b c 16 f c 8 7 19 b 6 13 24 3b 7 b 25 5a
FIXUPS: 1e59c 12 34 d 1f 5a c c d f b 39 fffffa90 48 12 e 8 13 b 6 22 b
FIXUPS: 1e237 25 c c b 41 e 1b a 8 7 d 8 7 9 8 8 e 8 17 1c 19 fffffa1d
FIXUPS: 1de31 14 24 e b c 29 2a b 6e b b c 29 6c 1b 13 2f 1c c c c c c
FIXUPS: 1e0d2 b 21 14 1b 14 1b fffff95a c 19 5 e 23 21 13 19 e 23 7 1e
FIXUPS: 1dbd9 7 8 19 3c 10 f 25 a 12 10 32 8 13 b 33 45 12 1c fffff951
FIXUPS: 1d70b 8 36 b 47 23 c 1e 25 7 8 19 44 25 8 10 40 b 39 1e 25 7 8
FIXUPS: 1d9a5 44 25 8 10 40 b 3d fffff84d 1e e b 9a 7 1e 39 1e e b 45 8
FIXUPS: 1d4bc 13 f 12 20 f 44 27 1c 3f 34 1e 2c 7 8 19 3c 10 7 fffff74a
FIXUPS: 1ce3b d 10 3b b 39 a 1e 39 1e e b 42 1e 25 7 8 19 12 3a 12 10 3b
FIXUPS: 1d0d0 be 28 20 31 96 7 1e fffff7f9 b f 19 b 46 24 2c f c 38 2c
FIXUPS: 1cc24 8 25 f c 38 2c 16 8 32 1e 25 7 8 19 12 15 3f 1a d fffff862
FIXUPS: 1c68c 1c b 38 22 19 3c bc 12 1c b 4b 21 e 68 e b 9 26 15 10 21
FIXUPS: 1c9d3 c c b 42 12 1c b 3b fffff6cf b 36 1e 25 7 8 2d 10 3b b 48
FIXUPS: 1c310 f 19 b 1f 11e 25 25 25 25 25 25 25 f 20 f 3e 12 1c b fffff874
FIXUPS: 1bebd 11 11 11 14 14 14 14 14 14 14 1b 1b 1b 1b 16 1b b 10 25 34
FIXUPS: 1c09a 25 23 13 b 28 13 8 1d f fffff8ef e e 20 25 1b e 4b 1e 2c
FIXUPS: 1bb84 8 19 3c 10 7 1e f 8 36 b 3b 76 1a 19 45 93 b 14 12 1b 1b
FIXUPS: 1b5e4 4a 19 17 b 11 36 38 22 2b b 25 1c c 8 94 34 1e 2c 7 8 19
FIXUPS: 1b8dc f c 38 9a 1a 35 9 a b fffff853 3b 2f 18 2e 1d 16 31 8 13
FIXUPS: 1b3c5 15 32 1b 25 13 1a 32 1b 25 13 1a e 12 e 12 e 12 17 16 13
FIXUPS: 1b5cb fffff982 e 10 12 12 12 12 12 12 8a f f f f f f f f f 9 b
FIXUPS: 1b1ee f f f f f f f f f 9 fffffa15 13 13 13 13 13 13 13 13 20 15
FIXUPS: 1ad75 15 15 15 15 15 11 13 13 13 13 13 13 1b 1b 1b 1b 35 15 12
FIXUPS: 1af3b 7b25 13 7c c 9 b 45 6c 13 8c f c 9 b 2e ffff7e80 1f e 1b
FIXUPS: 1ab95 9 1d 2a 11 11 11 11 11 11 11 11 13 7918 41 12 74 b 43 17
FIXUPS: 226db 4f 7 65 f f e 21 12 d e 7 29 13 5f b a4 44 15 29 d e 22 9
FIXUPS: 22a34 fffff72b 3c 45 1b 1d 19 b 40 12 1c b 52 12 a 2f 3e 19 43
FIXUPS: 2242b 18 10 24 19 b 37 f 28 17 f 26 b 29 fffff914 9 d c d c 9 d
FIXUPS: 21efb d d d c b 3c 12 f 12 e 28 c 9 b 27 65 10 14 4a 16 12 b 29
FIXUPS: 21b5e a 24 22 75 e 6 e b 8 d 11 10 11 b d b 13 40 7 51 e 22 c 2e
FIXUPS: 21de0 b 39 8 10 12 8 fffff7d0 16 14a 15 d a 3a 46 a 39 46 a 39
FIXUPS: 21944 a 39 46 a 39 46 25 5 b 19 c f f 8 24 d 1b 6 17e4 74 13 ffffdf64
FIXUPS: 2130e 12 12 12 12 46 f f f f 9 b e7 f f f f 9 b 19 5 1a 1a 1d 38
FIXUPS: 215d8 19 c 1842 15 5 33 9 b 49 8 7c 2a 9 b 22 c8 b 15 b 3f 1c 4a
FIXUPS: 231a4 1c 31 16 43 a b 57 10 7 2c 8 89f 13 fffff888 17 19 d b 5e
FIXUPS: 234f1 37 16 13 13 13 13 9 b 17 19 27 12 28 d 11 9 38 b5 fffff5ce
FIXUPS: 22d2d 2d b c8 2b2b 13 33 ffffde90 12 12 20 22 c 9 b 29 15 17 5b
FIXUPS: 23975 6 2a 15 24 15 10 36 28 3d c 20 3b 2c b 24 13 17e1 38 2a 23
FIXUPS: 25403 23 f1 16 16 16 1c 3a 13 f 5b 1c 14 f 44 7e 14 19 14 4b 66
FIXUPS: 25833 19 f 4b 66 14 19 fffff4d5 14 25 6c 1f 1f 24 1a 30 6a 1a 1a
FIXUPS: 25029 15 1a 1a 1f 1a 1a 1f 18 33 18 1a 1a 26 58 40 40 2a 23 61
FIXUPS: 249a2 27 1c 1a 3b 12 23 21 1d 17 15 d 13 15 d 14 3f 24 42 18 27
FIXUPS: 24c36 10 1c 64 1a 18 21 18 24 32 24 fffff623 22 35 44 15 15 17
FIXUPS: 244c8 39 15 17 30 15 2a 1a 1c 10 1f 2d 14 89 21 19 8d 18 be 28
FIXUPS: 248b0 4d 48 27 1c fffff4e1 23 19 20 16 1a c 13 91 13 1f 24 1e 9
FIXUPS: 2403e 13 1c 40 15 19 20 1d 46 22 1f 2e 24 14 8c 25 18 2b 2a97 60
FIXUPS: 26e03 ffffebdb 70 b 29 19 19 19 19 13a 13 5f b ffffdffb 10 a 10
FIXUPS: 23cdc 32 22 4f 23 14 c f 19 44 c 14 c 2a48 11 11 2e 9 9 9 d 11
FIXUPS: 26934 11 11 2b 3b 59 3f 11 d 62 b 9e 11 18 b 44 e 4b 17 b b 31
FIXUPS: 26d70 fffff2ff 61 5a 1a 6f 94 1b1 52 225 1a 28 f 1b d 52 8 10 9
FIXUPS: 26771 4a 18 31 c c 9 b 2c 9 9 9 11 11 b22 a 26 41 21 20 51 20 51
FIXUPS: 27544 f f 1c 57 2c c b 78 13 ffffe62e 1c 2d b 4a 1f 1d 3d 3a 1c
FIXUPS: 25e49 a5 b 1bb1 46 13 fffff44b 12 12 14 20 22 f c 9 b 29 15 17
FIXUPS: 270a6 1c 1b 13 e 7 b 24 22 10 1e 3c 2b ba 64 9c 838 26 7a 2f 3c8
FIXUPS: 2808b fffff72a 18 1c b 5e b 3c f 39 13 10 10 12 d 10 10 10 10 10
FIXUPS: 279ae 4d f 10 13 10 2a 144f 26 34 33 16 a 12 1f 16 16 45 2c b 24
FIXUPS: 29073 42 2c b 24 13 2d 13 99 f f c 9 b 86 1d ffffe89c 16 1037 7
FIXUPS: 28be3 7 d 10 9 19 27 8 1e 1a 41 1b 1b 19 7 10 7 14 7 16 7 19 8
FIXUPS: 28dbb 43 9 19 3a 1a 2c fffffa24 1d 1a 1d 1a 20 1d 5e 11 12 8 24
FIXUPS: 28a37 24 16 a c 3e 2f 8 7 10 7 14 7 16 7 1d 25 7 10 7 fffffa87
FIXUPS: 28646 12 13 a b 29 24 b 43 1b 8 7 10 7 14 7 16 7 15 27 e 22 16
FIXUPS: 28825 8 9 13 19 16 a 28 fffff8a6 12 12 12 71 f f c 9 b 29 15 17
FIXUPS: 282a1 17 17 17 65 3c 5e 5e 5e 8d 1c 23 1c 2e 12 14 14 e 17 2ab6
FIXUPS: 2b0e7 7 f 7 5 1e 6a 25 2a 19 1b b 78 36 2f 10 c b 2d 13 143 8e
FIXUPS: 2b5a5 41 2f 51 3c ffffde6f d 1eb ffffea35 2c80 7 16 7 1f 49 2f
FIXUPS: 2ae92 29 29 19 25 e f 1f 27 59 22 12 15 a 5 8 1b 7 10 7 10 7 19
FIXUPS: 2b0ae e fffff8c4 26 24 24 24 24 24 24 24 24 24 24 24 24 24 24 24
FIXUPS: 2abe6 24 24 24 24 22 60 10 5 8 6f 8 7 10 7 fffff87e 22 e 2d 11
FIXUPS: 2a6a0 11 a 35 7 10 7 14 7 16 7 1f 43 2d 11 a 11 a 35 42 35 1b 1a
FIXUPS: 2a913 12 2c 16 fffffa1a 22 19 1c 11 a 11 a 35 42 35 8 7 10 7 14
FIXUPS: 2a4fb 16 7 2c 5 8 20 5 8 20 5 8 24 22 c 7 fffff9a6 10 7 14 7 16
FIXUPS: 29ff9 19 1c 43 9 19 3a 1a 2c 16 29 34 33 16 d 12 1f 16 16 22 8
FIXUPS: 2a28b 1a 1f e 26 fffffa05 b 2e 8 c d d 9 f 27 7 10 7 14 7 16 7
FIXUPS: 29e06 9 19 25 1e 1a 29 10 44 3e 15 15 8 18 19 fffff975 17 50 c
FIXUPS: 29993 16 18 41 14 e 10 20 8 3e d 7 23 42 42 42 71 1c 2e 14 e 5
FIXUPS: 29c8a e 17 5 24 17 22dd 10 13 10 11 13 17 10 13 10 11 11 13 13
FIXUPS: 2c0c5 10 13 68 13 38 ffffd5b9 1c 2d b 6d 15 2f 9 b 71 9 b 2304
FIXUPS: 2bc9d 14 7 6d 36 7 14 7 16 7 d 36 44 10 7 2e 10 a 1b 7 14 7 16
FIXUPS: 2beda d 10 a 2d 43 27 1d 769 10 7 19 b 36 27 32 28 32 24 a 2b 11
FIXUPS: 2c8c5 b 36 70 6a ffffed5e f8 fd 16e 12 15 1f 9 b 8b 9 b 47 773
FIXUPS: 2c36d b 36 28 32 3c 32 24 32 19 b 34 11 17 8 32 24 8 a 14 11 19
FIXUPS: 2c605 36 28 32 26 7 8 12 3a 3982 9 b 24 13 5f b 23 39 12 23 9 b
FIXUPS: 30235 a7 76 b ffffbe7b 27 b d d 4f 15 14 1c b 36 24 8 a 14 3ad0
FIXUPS: 2fe21 19 9 9 9 b 3e 1b e 1e e 1c e 1c e 19 9 9 9 b 3e 1b e 1e e
FIXUPS: 30035 e 1c e 19 9 fffffb10 1a 12 12 12 14 2a b b 22 2f c c c c
FIXUPS: 2fcd0 c c c c c c c c b 3d 1b e 1e e 1c e fffffa34 c 1a 17 1a 17
FIXUPS: 2f8b3 17 11 16 13 21 1b 1b a 11 f b 4f b b c 2a 12 15 2a 17 24
FIXUPS: 2face 24 17 88 fffff8f1 1a 17 1a 17 1a 17 18 b 19 2f c b 52 32
FIXUPS: 2f629 b c 27 4b e 6e e b c 2a 3b 26 12 c 12 13 fffff9c1 1a 17 1a
FIXUPS: 2f244 1a 17 1a 17 11 18 b 19 13 13 3d c b 3b c 12 13 a c f b 17
FIXUPS: 2f42f b 17 f b fffff99a 19 2f c b 3b f 14 12 64 9 30 1c 78 67 d
FIXUPS: 2f085 f 11 17 f b 17 1a 17 1a 17 1a 17 1a 17 1a fffff9ad 13 2f
FIXUPS: 2ebc6 b 3b c 12 b 12 13 8 d d c 1a 17 1a 17 1a 17 10 b 19 1e 1b
FIXUPS: 2eda3 10 d 11 11 18 fffffad2 1a 17 1a 17 1a 17 18 b 19 2f c b 3b
FIXUPS: 2ea28 12 b 12 13 8 d d c 1a 17 1a 17 1a 17 11 18 b fffffab2 10
FIXUPS: 2e633 9 9 9 b 25 d 17 8 30 10 10 10 19 21 18 1e 18 1e 18 1e 18
FIXUPS: 2e81c 18 40 c 12 13 a c fffffa88 2d 19 21 17 10 10 10 f e 18 e
FIXUPS: 2e44c e 18 e 1a 7 1a 7 1c 7 1b 21 18 1e 18 1e 18 1e 18 1e fffff9ee
FIXUPS: 2e00b d 11 39 8 1c c c c c d f c c b 77 b 16 30 32 10 26 1c 1c
FIXUPS: 2e279 12 19 b c 38 24 fffff9cb 40 8 1c c c c d f c c b 47 2a e
FIXUPS: 2de33 c 27 11 25 37 11 24 b b 36 f 24 d 11 24 d fffffa1d 8 1c c
FIXUPS: 2da2f c c d f c c b 47 2a e b c 2a 14 25 3d 14 24 b b 36 12 24
FIXUPS: 2dc83 1a 24 d fffff9d4 f c c b 47 2a e b c 27 11 25 37 11 24 b
FIXUPS: 2d849 17 12 27 f 24 d 2d d 2d d 47 33 d 17 fffff8e0 2a e b c 31
FIXUPS: 2d35f 25 3d 14 24 b b 3d 12 32 24 31 7 b 25 5a d 20 12 34 d 15
FIXUPS: 2d61e 5f c c fffff88d 1c 1c 1c 1c 4b 8 c d b 16 a 9 9 a 18 2c 36
FIXUPS: 2d0c9 14 1b 1a 11 1d 10 20 3f 10 20 3f 10 20 fffff8a5 5 31 3d b
FIXUPS: 2cba8 46 b 5e b 9c 1b e 1e e 1c e 1c e 19 9 9 9 b 3e 1e e 47 15
FIXUPS: 2ceb7 33 1c 3750 24 28 3b 13 b 28 f 19 d 9 126 97 27 4a 2e 50 8
FIXUPS: 30a25 e 11 d e 22 20 7 28 13 5f b ffffbf0a 46 42c5 1f 1f 1f 1f
FIXUPS: 30e2e a 23 20 8 19d 13 5f b fffff301 36 b 29 15 4d 1a 19 1f 1c
FIXUPS: 30548 24 7 a 1e 3e 16 27 f02 2e 2b 48 2b 2a 2b 2a 2b 2f 2e fffff9d5
FIXUPS: 310f7 15 8 35 84 7 10 7 14 7 16 7 d fffff9ce cc b 29 19 19 19 4187
FIXUPS: 34f90 8c f f c 9 b 162 f f c 9 b ffffc0ae 2a 2b 2a 2b 2a 2b 2a
FIXUPS: 31418 c 1e b 2e 3f 17 c 27 9 3139 25 66 11 66 18 19 3e 26 b 1b
FIXUPS: 3480e 15 35 19 1c b 42 12 15 12 14 345 f 26 b 33 8 12 4c 5b 13
FIXUPS: 3418e 12 1f b 15 58 1c b 62 3e 12 1f b 1b 5b 1c b 22 7 10 7 14
FIXUPS: 34432 16 7 11 f 11 5f 6b 1c cf fffff5a0 25 6 14 6 18 c 8 6 e 6
FIXUPS: 33cf9 73 30 10 1c 22 16 12e d b 14 d 23 12e d b 14 d 23 2c 38 fffff62d
FIXUPS: 337b1 9 c a 13 19 14 1f 20 20 25 19 22 19 2a 56 12 1f b 1b 5b 1c
FIXUPS: 33a41 1f 43 5b f c 9 8 a0 fffff5ef 2b 2e d 1c 13 14 3e 86 f 1c
FIXUPS: 3335f 50 19 fb 1c b 8 8a 23 b 14 13 2f 8 44 33 b 37 85 47 c fffff6cc
FIXUPS: 32e7e 11 c c 13 d e 3b 45 34 4d 13 43 16 12 18 f 13 2d 2f 5 10
FIXUPS: 3310d 25 16 15 1a 7 6 17 11 fffff957 61 2e 19 35 d 7 a e 9 7 19
FIXUPS: 32c40 36 1f 29 c 1c a 9 e e 13 e 34 e 1a 9 12 7 1f 57 fffff9c0
FIXUPS: 327f8 9 8 3a 11 e 8 c 11 1c 31 c 1a 16 16 13 13 e e 16 17 b 33
FIXUPS: 329f3 8b 29 c c c 9 c fffff71b e fb 1c b 5 e 5 e 7 91 a 3b 9 13
FIXUPS: 32491 9 36 1e 1b 54 9 f 19 11 1c 12 10 b 96 1b 86 fffff007 1a 1d
FIXUPS: 31a6e 1c 2d b 68 15 12 12 17 63 f f 9 b 51 9a f f 9 b 70 b 13 9
FIXUPS: 31dd1 8 f b cb 3968 1f 19 14 19 22 14 19 1b9 39 6c 53 74 53 2c
FIXUPS: 35caa 2d 1d 4f 2f 17 19 1a e 20 17 19 35 11 25 ffffb882 5 3bf2
FIXUPS: 35323 26 2a 17 32 45 2f 38 19 6c 2f 38 19 65 37 17 19 1a e 20 17
FIXUPS: 356b1 20 29 14 3b 9 27 17 19 34 bfa c b 51 22 20 1e b 17 32 b 51
FIXUPS: 36571 20 1e b 17 32 b 51 1d 13 1e 19 1c 37 b 34 ffffeb30 17 22
FIXUPS: 352f0 de5 19 1c 1c 13 1e 19 1c 1c 13 1e 19 1c 1c 13 1e 17 21 20
FIXUPS: 362d1 b 17 10 1d 1e b 17 3b c c c c 843 b 27 1b 14 f f 1c e 16
FIXUPS: 36ce0 9 8 1f 13 fffff1ba 22 20 1e b 17 32 b 51 18 1d 13 1e 19 1c
FIXUPS: 360a4 13 804 53 c f f 1c e 16 13 9 1e e 13 e 20 f 37 e 16 1b 1b
FIXUPS: 36ab1 37 1e 2c 7 8 19 3c 1b 12 10 4df b 1ad 18 63 2c b 24 13 68
FIXUPS: 373c6 2a 13 38 60 b 2a 13 fffff2bb 12 12 12 12 20 22 f f c 9 b
FIXUPS: 3688f 15 227c 2e 13 1f 4b 1d 1d 1f 38 8e 5d 18 10 8c 4b ffffdf1f
FIXUPS: 36d91 b 5e b 22 1c ae 40 45 13 b ae 13 1d c 27 15d2 1c c 22 19
FIXUPS: 386f7 7 f 7 11 e e 66 15 13 16 60 21 65 f 57 28 31 16 29 d1 10
FIXUPS: 38aba 14 14 19 17 fffff09f 82 19 13 168 52 1a6 94 43 4e 1cd c 8
FIXUPS: 382d3 11 58 bd 8e 17 6d 32 13 10 13 3a 14 1f 28 c 16 d e ffffeff0
FIXUPS: 3764a 19 2e 14 15 7e 15 10 1f b 12 1c 1f 15 15 17 e d 14 67 1c
FIXUPS: 378f5 21 15 7 5 6c 12 11d 13 6b 2c07 1d 15 27 15 a 24 1c 1c f 19
FIXUPS: 3a895 20 18 23 19 61 c 3a 9 49 9 b 25 25 34 7 25 7 ffffcb15 1d
FIXUPS: 3760e 2d43 16 16 b 1d 15 2d 15 a 24 1c 1c 12 22 51 26 18 2f 19
FIXUPS: 3a5d8 1e c 3b 11 4f 9 9 b 37 11 d 7 fffff59d 30 2d a9 87 57 1a
FIXUPS: 39ed8 cb 25 59 28 69 32 44 41 c 9 b 20 19 24 7f 11 d 7 16 15 3c
FIXUPS: 3a30a 21 10 fffff2fe 17 b 19 b 39 15 17 15 17 1a 31 18 7 5 ce 61
FIXUPS: 39924 7a 13 10 1a b 10 11 b 7 1b 27 17 18 17 137c 1d 14 4d 6f ffffe082
FIXUPS: 3901c 182 76 145 10 7 11 22 24 13 2e 37 13 19 15 40 19 19 39 2d
FIXUPS: 3956f 22 24 13 23 39 1f65 f f f f f c 9 b 93 81 f f f f f f f f
FIXUPS: 3b78c 9 b 50 13 fffff3bb 11 91 38 38 38 38 ce 2483 25 25 25 25
FIXUPS: 3d350 13 ffffdfbb 12 12 12 12 12 12 12 12 12 12 14 1b 21 21 21
FIXUPS: 3b485 21 21 21 21 21 32 f f 1926 15 11 13 13 13 13 13 14 43 21
FIXUPS: 3cfab 68 e b c 29 15 13 24 b b 2f 15 c c c c c b 22 fc fffff9be
FIXUPS: 3cc3e 11 11 13 13 21 b 2e c c 9 b 22 11 11 11 11 11 11 11 13 13
FIXUPS: 3cdde 13 13 13 20 15 15 15 15 fffff8c4 d 42 c c 3b 20 8 15 14 d
FIXUPS: 3c85a 1a b 1c 1b c 12 7a 7 1c 1c a9 13 13 13 8 104 23 23 23 23
FIXUPS: 3c4e8 2e c c c c c c c c 9 b 39 d 20 13 e 25 14 e 2a 8 29 12 7
FIXUPS: 3c6d6 e 9 7 19 9 b fffff895 b 2f 12 11 15 14 11 26 3c 8 11a 36
FIXUPS: 3c221 12 9e 7 15 1c 1c 85 13 13 13 13 b 5 56 16 27 b b fffff7d7
FIXUPS: 3bc92 c 9 b 3f 26 2a b b c 29 1a 14 15 18 24 19 26 2c 14 19 26
FIXUPS: 3bef5 19 26 d b 1a b 13 27 fffff8ed 6d 15 2f 9 b 71 9 b 26 9b 26
FIXUPS: 3baf3 b b c 29 12 12 11 21 8 15 14 11 8 1a 23 b 1c 13 25 1702b
FIXUPS: 52cf3 14 42 39 3bc 1f ad 144 18 5d 31 19 120 54 24d 31 1e 19 26
FIXUPS: 5387d fffe9b28 18 1c b 5e b b3 13 ffffe331 1c 2d 165b5 15 21 c
FIXUPS: 51e8e 34 30 13 66 e b3 17 11 42 19 28 25 270 122 1b e6 32 29f 1f
FIXUPS: 52907 106 1ce 12 18 16 16 63 ffffe954 63 3d 62 16 80 20 f 34 39
FIXUPS: 51855 299 21 19 19 19 19 33 30 30 10 13 64 e 64 19 f e b4 29 13
FIXUPS: 51e36 fffff1ca 1c 13 12 15 48 23 10 5e ab 4c 23 10 75 2c 24 c 13
FIXUPS: 5134f 3c 16 16 16 2a 71 11 11 11 1e 7a 52 3f fffff388 7e 15 70
FIXUPS: 50a8d 28 1a 3e 18 e 3a 42 f f 4a e 45 13 1e 10 40 1a 29 21 10 33
FIXUPS: 50db3 23 83 25 89 ed fffff457 29 24 1d 24 16 16 10 10 2c 1c 75
FIXUPS: 50620 13 12 94 e 53 1d 21 2b 10 16 c c 13 46 13 6a e 6d e fffff4c6
FIXUPS: 4fe1b 15 15 f f f f f f 12 278 2f 2f 2f 2f 2f 30 1d 34 16 2d 1d
FIXUPS: 50329 16 2d 16 2d 16 2d 16 2d ffffed92 11 39 cb 16 195 221 17 13
FIXUPS: 4f770 18 d0 38 49 16 195 10c 17 13 49 79 47 12 12 12 18 18 18 68
FIXUPS: 4fdc5 17 15 ffffe147 30 2d 11a 79 18 c 7f 1b 36 27 11 14 11 1a
FIXUPS: 4e2aa 14 748 4c2 14 14c 8f 15 12 15 18 1b 40 11 11 11 17 ffffd9ac
FIXUPS: 4cc19 b8 7d 8c 7d 41 33 5c 38 31 17 13c 2e 41 12a 686 17 43 30
FIXUPS: 4d9ad 30f 53 18 14 f f 58 bb 83 1a 16 ffffd105 1af 39 17 13f 943
FIXUPS: 4bfa8 c7 127 e6 1b 12 18 95 24 15 15 76 4a e2 a0 1e3 14 26 17 1a
FIXUPS: 4c85a 18 38 43 20 1d6 ffff9312 1c 12 e9 3a 21a 3fc8 12f a8 200
FIXUPS: 4a58a 2d c1 6f 32 22f 2e 91 12 18 12 12 29 2e 1c 12 15 15 287 11
FIXUPS: 4adad 16b ffffa35d 22 e bd 22 e 52 e 28 e 12c 30 e 60 40 48 e 10f
FIXUPS: 457ab 156 4e f2 63 11 14 14 11 1cf 28 2d 1b 9a ffffea0f 20 1ab
FIXUPS: 44a07 e 48 1e e b f3 163 64 1e e b 2a e 41 38 1e e b 2a e 12b 18
FIXUPS: 450a5 12 f e2 22 e ffffe507 15 12 15 18 18 c 26 1a 11 14 11 1f
FIXUPS: 43806 17 7c 17 ac 549 3bd 174 17 14 10d a6 5a e5 38 f 36 f 36 ffffe1a4
FIXUPS: 42971 16 10 1b 10 10 c 44 de 13 1b 2bc 14 14 48 1f 13 14 17 1b
FIXUPS: 42eea 14 11 1a 17 49d 17 57 62 190 8a ffffe2b0 28 17 37 1e f 7b
FIXUPS: 41acb ad 33 402 1d cc df 18 16 10 1b 10 10 c 57 1e 11 7b 36 ad
FIXUPS: 4241f 7e 2a2 1d cc ffffe919 9b 18 20 25 25 25 f1 7b 10d 1f 16 2b
FIXUPS: 41586 e4 2f 21 10 3e 56 2b 18 17 1b 40 28 1d 3b 2c 33 20 25 ffffdc5a
FIXUPS: 3f615 44 b50 17 11 1b 77 186 1f 12 1d 12 33 1d 17 11 7c 410 1f
FIXUPS: 409f4 1ee 12 18 46 f 23 19 171 15 1ec 118 ffffda25 16 16 12 12
FIXUPS: 3ebb6 16 fd 40e 100 17 4a 18 ce 17 17 17 17 17 1b 17 17 1b 31 17
FIXUPS: 3f45e 7c 13 2d 1b 19 28 ffffe931 11 365 9e 11 1b 61 10 1d 12 12
FIXUPS: 3e3ab 18 18 12 5e f 10b 43 2d f 10b 43 59 15 19 11 a6 11 16 24f
FIXUPS: 3eafe 14f15 fffe9b35 ce de 13 1b 30 24 10 14 14 1f c1 ca 11 11
FIXUPS: 3d98b 17 17 11 3db 18 12 12 18 18 12 23 11 11 11 17 16495 60 b
FIXUPS: 543f0 13 fffff6e8 1d 20 80 203 1b 16 c 2e c c 147 e d 2b c 3d 3a
FIXUPS: 5411b d7 fffff6d3 18 1c b 5e b 93 1781 18 fffff688 f4 3b 58 3b
FIXUPS: 54a7c 1c 15 c 48 c c b1 b4 fffff7af 1d 1c 21 1e 15 18 1b 56 1d
FIXUPS: 54567 fffffd0a 2c b 46 2c b9a e 2e 19 e e e e e e 2e 19 14 e e
FIXUPS: 55002 1f 11 1a 11 1d 4a 1f 11 11 11 11 1b 7 14 7 16 204f 43 13
FIXUPS: 57242 23 1e 15 13 23 23 1e 12 17 20 12 d 10 e 51 47 cd ffffd7a8
FIXUPS: 54d99 26 21 26 19 e e 2e 19 19 1e5d 34 18 18 18 13 23 20 25 19
FIXUPS: 56e18 10 c 18 9 e3 c d f 13 10 e 37 28 3a 18 18 18 4f 8d 20 28
FIXUPS: 5695b 1d c 1b f 13 e 37 28 3a 18 18 18 13 23 23 23 23 25 1c 19
FIXUPS: 56bc2 19 13 c 1b f 13 e 37 28 2c fffff8bd 13 e 37 28 3a 18 18 18
FIXUPS: 566a2 23 23 23 2c 19 19 1d c 1b f 13 e 37 28 3a 18 18 18 13 20
FIXUPS: 56914 2d fffff8ce 18 18 13 20 23 13 c 1b f 13 e 3a 28 34 18 18
FIXUPS: 563dd 13 20 23 23 28 13 23 20 37 1e 1e 16 c 18 fffff7cd 2e 13 2d
FIXUPS: 55dea 2e 4b 1a e1 d 14 17 37 28 34 18 18 18 13 23 20 26 10 10 c
FIXUPS: 56131 c 13 e 37 28 3a fffff593 14 7 14 7 13 13 6 16 c f b 7 5a
FIXUPS: 558a9 18 ed 1b 24 e 28 f 13 1a6 13 2c 2d 2d 2e 13 2d 2e 58e5 18
FIXUPS: 5b666 3c 48 b 88 49 2f 72 2a ffff9bcf 1d 67 3a 22 1c 18 2d 37 28
FIXUPS: 5563d 18 15 15 18 5d f b 22 1e 1c 56e1 2a 6b 13 42 2c b 33 fc 25
FIXUPS: 5b1a2 c 9 b a3 6b b 8f 2f 10c 1e b 26 8 17 32 12 25 c 28 13 27
FIXUPS: 5ab76 38 f b c d c 11 1a 1c d 8 c 8 25 2b 4a 8 9 11 c 19 b 28 16
FIXUPS: 5ad99 1e 36 16 12 f 1c fffffa81 2e 32 15 1a 8 7 1e 2c 7 8 19 12
FIXUPS: 5a9f3 17 d 10 3b b 28 15 2b 8 6 e 6 b 2a 28 8 6 e fffff76c 77 12
FIXUPS: 5a374 19 f d 13 2b b e b b 14 3e 21 b 1f b 37 1c 1c 34 73 2b 10
FIXUPS: 5a61a e f 2c c b fffff5b1 1c 26 25 27 26 27 26 27 49 38 4a 24 a
FIXUPS: 59e6b 1d 21 4b 15 16 b b 12 2f 17 b a7 229 b b 35 c fffff5a8 b
FIXUPS: 59881 9 19 f 11 8 c 20 2f 5 10 e 24 14 1f 3f 19 c d 10 7b 51 48
FIXUPS: 59b3d 26 1b 27 1c 27 1c fffff95b 2e 8 14 e e 2d 27 27 27 27 27
FIXUPS: 596dc 27 1e b b b c a 9 b a 16 9 25 9 d 15 c 20 36 fffff975 b d8
FIXUPS: 592b2 5 15 2b 8 6 e 6 b c 20 8 c d 2a 4c 20 3d 32 3e 5 15 2b 8
FIXUPS: 59507 e 6 b c fffff8dd 16 39 1b 1c 88 1c 31 c 1a 16 20 17 b 3a
FIXUPS: 5902d c 4e 21 12 c 20 c 9 1d c 9 31 c c 19 b fffff90c 18 13 d 15
FIXUPS: 58b02 25 c b 40 1d 19 b 2e e 17 f e 15 26 e 20 1f 2f 15 13 b 32
FIXUPS: 58d56 23 1c 58 fffff781 c 14 2e 8 b cb 14 2e 8 b cb 14 2c 2c 2c
FIXUPS: 5885a 7c 45 11 b 3e 4b 18 b 36 12 b b c 12 23 fffff855 f 9 9 10
FIXUPS: 5832b 1c 16 17 1b f 8 15 5 15 18 5a 15 e a 8 15 12 19 15 19 b 2c
FIXUPS: 58526 19 a 19 fffffac6 c b 18 10 18 15 9 9 19 14 9 b 17 15 20 16
FIXUPS: 58160 15 2d 13 d f 33 9 25 11 f 33 9 23 13 fffffa10 a 12 c 9 b
FIXUPS: 57d9a d 7 e 17 16 d 11 10 1b 10 34 48 f c 9 b d5 b b 8 c a 9 b
FIXUPS: 58012 fffff8d3 db 12 d 10 c e 9 7 11 10 e 36 1c 2d b 68 12 f b
FIXUPS: 57b76 15 44 1c 34 f 12 9 f 10 16 22 3dac b 26 53 13 ffffba64 1d
FIXUPS: 57583 21 2f 15 14 7 28 37 f d 12 12 1c 12f c e 7 15 13 1d 18 a
FIXUPS: 5789d 32 5 4676 2f 8c 1e b 26 8 17 32 12 25 c 28 13 47 b 88 1d
FIXUPS: 5c235 18 2a 2a fffff8d5 24 24 fffffd36 1c 2d b 6f 2c b 912 2d b
FIXUPS: 5c3a7 2c b 5e b 26 53 13 fffff727 18 1f b 5e 7 1c 7 8 7 10 7 4b
FIXUPS: 5bd40 49 c 4b 13 72 6b b 1625 13 52 1e b 29 29 13 2d ffffef04 c
FIXUPS: 5c54e b 2e 2b 2a 2b 2a 2b 2a 2b 2a 2b 2a 2b 48 2b 2a 2e 2c 45 fffffa4d
FIXUPS: 5f926 3c 48 b 88 29 2f 72 2a ffffd674 12 11 1c b 48 1e b 77 25
FIXUPS: 5d316 74 1a 32 1a 19 9 9 b 31 3e 36 b 1e2a 13 2d 13 63 41 b 86
FIXUPS: 5f4cb b 2a 20 35 6b b 8f 2f dc 1e b 26 8 17 32 12 25 c 28 13 27
FIXUPS: 5f8c5 18 fffff60f 43 19 27 16 1d 12 1e e 16 1d 2e 2e 15 10 10 d
FIXUPS: 5f0d0 15 10 10 d 15 10 10 d 81 2c b 24 13 8d fffff796 2c c 8 1b
FIXUPS: 5eb0b 19 19 8 7 1f 3a e 17 13 e e 7d 19 e 8 1e 13 24 13 34 f 7f
FIXUPS: 5ede3 43 4d 6a fffff7ee 10 29 38 4d 10 18 10 17 17 a 8 11 19 2c
FIXUPS: 5e883 d e 21 8 3e 7 1f 3a 28 8 13 e 2d 34 1c a fffff6c5 25 16 39
FIXUPS: 5e17c 2e 17 17 2d d e 1e 74 6 a 28 41 19 b 28 f 19 d 9 126 c4 16
FIXUPS: 5e5c2 27 56 34 50 fffff620 b 10 26 15 d 29 28 9 1a 24 28 9 16 16
FIXUPS: 5de55 2b 3e 1a 35 3f 30 2e 10 1b 16 30 2e 17 17 43 e fffff84f f
FIXUPS: 5d935 f f f c 9 b 26 12 17 17 14 17 76 1d 8 c5 38 c 8 21 b 23 11
FIXUPS: 5dc57 c 8 21 b 23 2416 cf d7 8f 65 c b 4f 58 6f 41 ffffd1e6 12
FIXUPS: 5d6e2 12 12 12 14 20 20 2b f f f f f c 9 b 6c 16 1d 38a0 1f 17
FIXUPS: 6118e 18 a 3e 18 c b 1c b 2c 13 72 9 b ffffe85b 25 25 25 3b 12
FIXUPS: 5fc8f cf 183 b4 66 c b 3d 12 d5a d 46 12 2a 12 2a 12 53 4e d 14
FIXUPS: 60f67 14 d 14 d 25 c b 31 d 14 d 14 d 14 e 33 37 13 21 fffff5db
FIXUPS: 60717 17 17 6e 2b 72 e8 16 a 26 41 21 20 51 20 51 15 f f 1c 3d
FIXUPS: 60b7a c b 29 5c 12 12 49 6b 70 921 fffffcd6 18 1c b 5e b 83 13
FIXUPS: 6053e 12 12 12 12 12 12 20 13 13 13 13 22 f f f f c 9 b 29 15 17
FIXUPS: 62059 15 15 1d 30 13 fffff8ad 29 83 fffffd38 1c 2d b 6f 2c b 5e
FIXUPS: 618d7 26 53 13 fffffb72 15 31 19 20 26 9 5c 50 15 21 ffd 37 c 9
FIXUPS: 626ba b 2b 13 fffff69b 12 15 1f 9 b 25 22 15 c8 b 1a d b c 6 1e
FIXUPS: 61f9c 19 b 22 27 1a 18 2e6 10 2c b 83 1a 11 11 b 15 c b f 11 e
FIXUPS: 62498 b 16 18 62 d e b 4b b 17 13 26 17 13 26 8 5ac1 56 17 211
FIXUPS: 68488 ffffa2dd 15 15 15 15 15 15 15 15 fffff951 12 b 12 20 22 c
FIXUPS: 621e4 b 29 15 17 6e 1a 12 b 10 b 411b 1b be fd 158 21 140 21 169
FIXUPS: 66a67 11 ab d1 b5 1f8 17 295 13 13 55 163 57 2b 13 13 13 1ff 56
FIXUPS: 67971 34 67f e4 ffffd1e7 27 1d 1a 10 18 2e 37 25 17 25 22 1c 37
FIXUPS: 65582 d5 e 1b e 1ff db e 1b e 1dc 1d 541 34 95 41 173 a2 ffffe167
FIXUPS: 6458f 33 35 53 11 46 7f 2a 11 11 13 1b 18 18 10 10 10 2b a0 1a
FIXUPS: 64a2e 4e 32 74 43 176 1ac 197 9a 4d 1c9 ffffe6d1 1c 258 23 6b 93
FIXUPS: 63e1d 13 73 13 1c 35 2f 28 3b 1f c 26 1a 29 28 17 b3 41 26 36 77
FIXUPS: 64294 7b 9d 61 10e ffffe9ed de 13 1b 42 de e2 13 10 14 14 22 13
FIXUPS: 632a9 26 13 67 8a af f f 2b 2b 109 f b3 eb 10 7f 39 26 eb 4bed
FIXUPS: 68597 4e f b 3d 1d f a 1c 3c c b 4a 4b b 35 38 3f 36 16 ffff9fc5
FIXUPS: 62aae 13 e2 5b 176 14 14 22 111 13 5d4e 3a 3c 37 3c 37 3c 37 3c
FIXUPS: 68e34 37 56 f 1e b 3b 53 f 1e b 3b 37 4a 23 b 59 b fffff3f6 2c
FIXUPS: 68540 13 15 16bb2 242 10 10 109 12 12 12 12 18 18 18 10 fffe9393
FIXUPS: 688e2 2b 2a 2b 2a 2b 2c 2b 2a 2b 2c 2b 2a 35 39 39 30 3e 15ea2
FIXUPS: 7eb19 1e 12 12 12 12 18 18 18 3e f 1b c 55 11 1d 10 10 11 1d 12
FIXUPS: 7ee1f 17 11 11 11 11 17 17 112 aa fffff06d 19 3e2 1b 103 37 1d
FIXUPS: 7e64a 81 25 3f 23 18 10 15 57 1f 24 14 10 31 10 47 e 17 11 11 11
FIXUPS: 7e944 17 ea 20 ffffe0c5 2e 12 10 3b 17 11 f2 88 5b 13 11 3a7 29f
FIXUPS: 7d467 20 18 64 24 1d 13 11 13 fe 42 90 10 43 17 11 1f6 261 ffffdf21
FIXUPS: 7bb51 10 21 1dd 10 10 12b 23 18 10 23 17 11 e6 88 5b9 c4 1c1 20
FIXUPS: 7c924 64 24 1d 13 11 13 75 51 1c 24 14 ffffe69b 2f 19 11 14 18
FIXUPS: 7b308 424 91 3a 10 10 2c 19 32 27 1a 24 15 54 1f 24 14 10 49 10
FIXUPS: 7ba44 13 35 45 49 11 fffff0a7 14 23 3f 1d 26 10 19 2d 23 18 10
FIXUPS: 7ad81 29 13 11d 21 e 25 10 12 16 14 16 119 21 e 13 13 10 17 35
FIXUPS: 7a38e 13 10 10 13 e 1df 10 10 f6 10 10 10 10 10 10 10 21 47 14
FIXUPS: 7a7d2 49 11 13 13 10 1d0 10 10 f6 22 24 fffff0b6 c b3 112 1e 21
FIXUPS: 79e75 21 10 10 96 10a 1e 21 21 21 10 10 c e1 57 e 11 13 54 e 16
FIXUPS: 7a2f8 54 e 13 10 fffff102 1f 7a 10 10 13 10 15 16 30d 12 12 18
FIXUPS: 798f6 41 1d 30 23 18 10 36 1f 38 12 6b 5f 25 1d 10 5f 28 20 ffffea28
FIXUPS: 786fc 18 13 16 13 66d 19 331 15 f 12 13 1b 7a 23 3d 20 33 12 35
FIXUPS: 792ee 15 f 12 f 12 5b 23 18 10 65 ffffec8f 80 12 18 25 2c 25 2d
FIXUPS: 7824f 18 10 3a 12 17 17 17 93 12 17 17 17 71 43 76 3b 26 53 13
FIXUPS: 7860d 13 e 1a ffffe805 10 10 fa 17 11 15 15 99 14 f 74 4d 2c 91
FIXUPS: 77239 10 10 11 70 13 b0 17 6f 13 2e4 b6 688 193 23 17 64 ffffe73d
FIXUPS: 76819 7d 12 18 16 10 10 14 25 31 30 23 18 10 33 3b 3a 25 22 1c
FIXUPS: 76b05 86 48 45 11 13 13 10 1b6 14 14 ffffe6e1 14 23 3f 2c 15 1f
FIXUPS: 75607 15 45 11 1b 1f6 13 14 1a 13 1db 11 13 10 14 1e 1e 6d 17 11
FIXUPS: 75dc5 7f4 18 1c3 20 ffffd45a 12 68 45 30 17 11 1077 20 18 29 27c
FIXUPS: 75096 12 10 17 1c 1c 67 25 26 4d 48 45 11 13 13 10 183 10 10 10
FIXUPS: 729e3 22 3b 1b 40 89 14 24 25 69 43 47 12 11f 35 18 50 20 26 aa
FIXUPS: 72f49 24 25 2b 29 17 11 a95 20 18 29 9c ffffe55e 20 10 1d 10 2ef
FIXUPS: 7245a 16 f 23 10 20 13 1a0 13 10 14 18 10 16 1c 4e 29 51 18 26
FIXUPS: 72832 bd 13 c f a2 ffffeb6a 6f 31 fb 72 3ca 20 18 189 12 1d 12
FIXUPS: 71d16 15 25 29 17b 27 29 15 15 f f f 3a 89 14 2a 10 1d 10 16 ffffdfb9
FIXUPS: 700bc 23 42 2c 15 2b 16 16 eb 5d 17 11 376 195 48c 5f4 20 18 64
FIXUPS: 7137f 12 51 15 5a 23 18 26 10 19 26 17 ffffcc04 17 11 25 39 11f
FIXUPS: 6e45c b13 20 18 5e 24 17 18 42 29 17 11 b9 31 147 ab 5a 19 8b6
FIXUPS: 6fd10 18 1e9 24 1d 64 2b ffffcec2 18 7f 27 17 18 16 10 3f 50 51
FIXUPS: 6d0bc 12 5d 17 11 1d4 1e8 58c 1c 1f 28 1fe 113 26 2a 17 18 2a 193
FIXUPS: 6e0a2 23 ffffd572 14 f3 113 17 fc c6 505 20 18 23 94 22 15 13 17
FIXUPS: 6c08f 9c e4 1f2 12 13 3a 9e 11 17 a2 124 140 f1 97 4cf ffffd5d8
FIXUPS: 6a46e 29 e a5 4b 11 17 102 82 208 32e 16 590 20 18 23 4d 17 12
FIXUPS: 6b306 10 10 10 7c 13 29 e a5 27 11 17 ffffe80c 10 10 20 16 19 18
FIXUPS: 69dc1 28 1f 1b 1d 25 1f 1b 1d 10 10 36 17 14a 23 32 17 11 1f5 20
FIXUPS: 6a31d 5e 24 17 18 fffff5e7 13 10 20 16 19 18 1c 28 1f 1b 1d 25
FIXUPS: 69b1e 1b 1d 10 10 66 1e 1e 1e 14 13 18 10 10 13 10 13 e 13 fffff8e5
FIXUPS: 695e5 1b 10 10 2a 1b 12 2d 1a 19 18 10 24 19 18 18 13 34 42 4d
FIXUPS: 69859 35 13 17 1c 26 1b 1d 1d 42 13 15bd9 1c b 5e b a3 13 fffe9a6b
FIXUPS: 691d3 10 5c 6c 20 15 11 13 10 2a 1b 10 11 13 10 22 13 87 35 10
FIXUPS: 694b2 96 57 17 1729e 1e 2e 13 5f b fffff014 1c 2d b 68 2c b 23
FIXUPS: 7fab4 b 52 2f 13 fffffbb1 1c 2d b 6f 2c b 5e b 26 53 13 fffffc72
FIXUPS: 80459 10 20 38 44 10 a 8 8 10 2c 38 d 10 c b 22 1e 7 8 2f f 13
FIXUPS: 80686 42 19 14 a8 14 19 f 38 fffff6b6 11 2c 3f 30 2e 43 e 24 10
FIXUPS: 8003c 2b 6 20 6 1f 18 25 38 13 b 28 f 19 d 9 126 97 24 47 2e 50
FIXUPS: 81099 10 10 10 10 10 10 b c7 7 4e 13 ffffe96b 2c b 29 77 86 15
FIXUPS: 7fd2b 25 33 25 15 1b 20 1b 1b 1f 9 11 22 ca9 17 17 17 17 52 9 f
FIXUPS: 80c07 f 105 7 f 13 13 13 17 1b e 13 25 c 1d0 17 1b 10 45 7 d 10
FIXUPS: 81079 10 9ec 12 b 28 13 8 11 e 25 1a 19 26 f8 19 54 7 33 1e 31
FIXUPS: 81d73 5f b ffffeb81 107 b 29 15 15 15 15 17 17 13b5 13 5f b fffff331
FIXUPS: 812dc b 29 15 50 7f 12 bf 84 93 5f 19 2a 25 12 b5 34 35 f 7c 11
FIXUPS: 818c9 74 1c a0 28 3b 8b7 47 20 23 23 8 32 c b 7e 72 10 fffffa74
FIXUPS: 81f9d 1c b 50 13 21 b 34 12 b5 95 21 11 4b 13 fffffbab 2c b 29
FIXUPS: 82b6a 2a 2b 2a 2b 2a 2b 48 2b 2a 2b 2a 2b 2a 2b 2a 2b 2a 2b 2a
FIXUPS: 82eda 2a 2e 2c 2c 2c 2c fffff2d6 f 11 16 a 324 47 c 1e b 2e 2b
FIXUPS: 82739 2b 2a 2b 2a 2b 2a 2b 2a 2b 2a 2b 2c 2b 2c 2b 2c 2b 2c 2b
FIXUPS: 82a95 2b 2a 2b 2a 7a8 b 29 15 15 15 15 17 17 17 17 17 17 17 17
FIXUPS: 83477 e a f1 25 f2 a b 28 2c 13 fffff91a fffff51b 2a 2b 2a 2b 14f2
FIXUPS: 83af3 9 b 26 17 17 91 17 1a 12 b 10 b 3c 12 b 2c b 3a f 19 b 2e
FIXUPS: 83d93 bc c 9 b fffff32f 15 12b 1083 c 48 c c 8e 91 fffff268 1c
FIXUPS: 8379d b 78 18 15 26 36 2c 3d 12 1a c f 10 16 31 3a d 15 12 c b
FIXUPS: 83a9f 12a9 3b 53 f 1e b 3b 37 4b 23 b fffff62c 18 1c b 5e b 1a3
FIXUPS: 84783 fffff718 1da 78 4b 2f 3b 58 2f 3b 55 61 1c 16 e0c fffff660
FIXUPS: 847e2 2b 2a 2b 2a 2b 2a 2b 2c 2b 2f 2b 2a 2b 2a 2b 2a 39 39 35
FIXUPS: 84b68 3e 37 3a 3c 2e 39 56 f 1e 1710 1c 11 11 2f d d d d 9 c c
FIXUPS: 8651a 2b 12 29 13 b1 37 ffffe8d5 3a 22 3b 62 28 5f 14 f d f 13
FIXUPS: 8514a eef 8 1f e 20 2b c b 3c 17 17 15 f 41 12 c 15 25 15 17 2b
FIXUPS: 86283 22 35 22 35 22 35 22 49 1e 1e fffff8b8 b 1f b 33 b 17 15
FIXUPS: 85d98 34 9 c c b 22 3c 25 15 22 2f 16 f 15 1e 2e f 42 20 11 b 12
FIXUPS: 86012 fffff9de 10 2d 1f b 41 12 c e 11 20 25 15 e b 8 19 c b 16
FIXUPS: 85bdb 1e b 13 1a 2b 10 13 15 19 9 16 fffff980 1f b 22 1a 17 15
FIXUPS: 85727 15 b b 3f c c c b 41 12 c 15 18 52 f 34 c c b 7a 10 7 8 37
FIXUPS: 8529a 22 41 a 12 c 9 b 29 12 17 6e 12 f f 26 40 3d 22 3d 1a 11
FIXUPS: 85570 b b b 10 b 40 18 1f 1e 1461 38 14 f 16 d f 1c 22 b 28 13
FIXUPS: 86c0d 2c b 2c d 23 13 5f b ffffe481 12 12 29 1c 34 f 12 9 f 10
FIXUPS: 87387 39 2c fffff3b2 12 f 1d 10 1f c 9 b 29 15 15 80 12 1b 13 16
FIXUPS: 86970 c b 52 12 1b 13 16 1c c b 22 492 42 e b b1 26 16 16 c 22
FIXUPS: 870a9 8 b 28 7 60 1d 11 44 12 13 34 15 27 f 25 9 b 22 24 13 87
FIXUPS: 87eba 1b 18 49 3c 48 b 88 29 2f 72 2a fffff304 18 1c b 50 21 b
FIXUPS: 87523 cd 13 fffff752 12 2c 9 b 78 9 b 9a 1c a72 4f 13 53 9 b 4c
FIXUPS: 87a93 2b e e 26 13 4d 13 42 6b b 8f 2f 8c 1e b 26 8 17 32 12 25
FIXUPS: 87e58 28 13 613 54 a 1b 9 9 47 d b 10 49 10 3d b 9d ffffef5b 2a
FIXUPS: 87695 32 41 2a c8 1d 9 20 37 46 42 14 15 1f 9 1e7b 23 b 59 b ffffe924
FIXUPS: 8819f 25 7 8 19 12 40 13 22 8 16 11 29 71 8 10 49 10 3d b 34 1e
FIXUPS: 8846c 7 8 19 def 2a 2b 2a 2b 2a 2b 2a 2b 2a 2e 33 2e 2f 36 2c b
FIXUPS: 8956a 9 4d 13 5f b 3e 23 b 42 23 b 42 23 b fffff64a 2a 2b 2a 47
FIXUPS: 88ea5 1e b 2e 47 c 1e b 2e 47 c 1e b 2e 47 c 1e b 2e 2b 2a 2b 2f
FIXUPS: 891d4 2f 2b 2a fffff637 2b 2a 2b 2a 2b 2a 2b 2a 2b 2a 2b 2a 2b
FIXUPS: 88ae2 2b 2a 2e 2d 2e 2d 4a c 1e b 31 2e 2d 2e 2d 2b 2a 122b 4e
FIXUPS: 8a0c4 fffff7cd 1c 2d b 68 22 1c b 23 98 b d5 56 1c 24 c e b 24
FIXUPS: 89c32 3e 13 ffffeade 1c 2d b 5b 2a 2b 1e14 b a9 b 48 13 fffffc6e
FIXUPS: 8a57a 8e fffff6bd 12 13 28 9 b 6e 9 b 6e c c 17 c 10 9 11 c 23
FIXUPS: 89eb5 40 77 54 bd9 23 1d 1e 24 14 29 b a 13 32 a 16 32 a 16 32
FIXUPS: 8ad83 48 2a 2a a 14 38 2c b 24 13 2d 13 fffff722 18 263 9 b 29
FIXUPS: 8a912 17 17 17 17 17 17 17 17 50 11 14 14 14 d 10 10 10 14 c 14
FIXUPS: 8aae7 14 f 14 f 26 23 17e5 1f 17 10 1f 17 b 25 c b ffffed82 21
FIXUPS: 8b1cd 24 10 2f 37 1f 30 7b fffffca8 b7 79 61 fffff674 12 12 12
FIXUPS: 8a826 70 f f 17aa 10 21 1e b 1f b 15 21 1e b 1f b 10 2e c c b 40
FIXUPS: 8c21e 14 1f 17 10 1f 17 b 25 c b 40 12 fffffa17 12 14 1f 17 10
FIXUPS: 8bdeb 1e b 1f b 10 25 c b 40 12 14 1f 17 10 1f 17 b 25 c b 40 12
FIXUPS: 8c014 14 1f fffffa50 19 8 d 22 9 b 40 17 1f 17 b 1c b 37 f 11 1b
FIXUPS: 8bc44 8 19 8 12 1b 18 8 19 8 d 22 9 b fffffa59 17 b 25 c b 40 17
FIXUPS: 8b84d 1e b 1f 10 1c b 40 17 29 24 1c b 37 f 11 1b 18 8 19 8 12
FIXUPS: 8ba77 18 fffff9b1 3c 12 14 1f 17 10 1f 17 b 25 c b 22 3c 12 14
FIXUPS: 8b608 17 10 1f 17 b 25 c b 40 12 14 1f 17 10
