 pm3lite

 Timestamp is 3a378051 (Wed Dec 13 07:57:37 2000)

 Preferred load address is 00400000

 Start         Length     Name                   Class
 0001:00000000 0008d0d8H .text                   CODE
 0002:00000000 000059fcH .rdata                  DATA
 0002:00005a00 00005e00H .xdata$x                DATA
 0002:0000b800 0000e6f2H .edata                  DATA
 0003:00000000 00000004H .CRT$XCA                DATA
 0003:00000004 00000004H .CRT$XCL                DATA
 0003:00000008 0000000cH .CRT$XCU                DATA
 0003:00000014 00000004H .CRT$XCZ                DATA
 0003:00000018 00000004H .CRT$XIA                DATA
 0003:0000001c 00000004H .CRT$XIZ                DATA
 0003:00000020 00008535H .data                   DATA
 0003:00008558 00001e50H .bss                    DATA
 0004:00000000 0000012cH .idata$2                DATA
 0004:0000012c 00000028H .idata$3                DATA
 0004:00000154 000010fcH .idata$4                DATA
 0004:00001250 000010fcH .idata$5                DATA
 0004:0000234c 00001652H .idata$6                DATA
 0005:00000000 00001db0H .rsrc$01                DATA
 0005:00001db0 0016ebfcH .rsrc$02                DATA

  Address         Publics by Value              Rva+Base   Lib:Object

 0001:00000000       ?rotpnt@@YAXPAN0@Z         00401000 f ele_math.obj
 0001:000000d4       ?prj_pnt_onto_line@@YAPANPAN00@Z 004010d4 f ele_math.obj
 0001:00000175       ?dist_pnt_to_line@@YANPANPAPAPAN@Z 00401175 f ele_math.obj
 0001:00000208       ?dist_pnt_to_line@@YANPAN00@Z 00401208 f ele_math.obj
 0001:00000291       ?intersect_lines_dir@@YANPAN00000@Z 00401291 f ele_math.obj
 0001:00000469       ?prj_pnt_onto_plane@@YAPANPAN00@Z 00401469 f ele_math.obj
 0001:00000514       ?intersect_line_plane@@YAPANPAN000@Z 00401514 f ele_math.obj
 0001:000005f3       ?intersect_line_beamSide@@YAPANPAN00NN00@Z 004015f3 f ele_math.obj
 0001:000006f6       ?intersect_line_sphere@@YAPAPAPANNPAN00@Z 004016f6 f ele_math.obj
 0001:00000843       ?intersect_line_cyl@@YAPAPAPANNPAN000@Z 00401843 f ele_math.obj
 0001:00000a6a       ?intersect_line_cone@@YAPAPAPANNPAN000@Z 00401a6a f ele_math.obj
 0001:00000dd0       ?centroid@@YAPANHPAPAPAN0@Z 00401dd0 f ele_math.obj
 0001:00000f8a       ?cvec@@YAPANHPAPAPAN@Z     00401f8a f ele_math.obj
 0001:000012c2       ?norm_circ@@YAXHPAPAPANPANH01@Z 004022c2 f ele_math.obj
 0001:00002227       ?init_circ@@YAXHPAPAPANPANH01@Z 00403227 f ele_math.obj
 0001:00002ec9       ?find_ellipse@@YAPAPAPANHPAPAPAN@Z 00403ec9 f ele_math.obj
 0001:0000331a       ?xfind_ellipse@@YAPAPAPANHPAPAPAN@Z 0040431a f ele_math.obj
 0001:00003fc2       ?circle_by_edge@@YAPANHPAPAPAN0PAN1@Z 00404fc2 f ele_math.obj
 0001:00004fb9       ?xxcircle_by_edge@@YAPANHPAPAPAN0PAN@Z 00405fb9 f ele_math.obj
 0001:00005f4c       ?xcircle_by_edge@@YAPANHPAPAPAN0@Z 00406f4c f ele_math.obj
 0001:00006ed5       ?con_circles@@YAPANHPAH0PAPAPAPANPAPAPAN2@Z 00407ed5 f ele_math.obj
 0001:000082eb       ?sphere_by_edge@@YAPANHPAPAPAN0@Z 004092eb f ele_math.obj
 0001:00008c1f       ?make_sphere_by_edge@@YAHHPAPAPAN0AAUSphere@@AAU_transform@@@Z 00409c1f f ele_math.obj
 0001:00008de7       ?MakeCirc@@YAHHPAHPAPAPAPANPAPAPANAANAAU_transform@@@Z 00409de7 f ele_math.obj
 0001:000098b2       ?make_rtorus_by_edge@@YAHPAH0PAPAPAPANPAPAPAN22AAUrect_torus@@AAU_transform@@@Z 0040a8b2 f ele_math.obj
 0001:00009aff       ?make_snout_by_circle@@YAHPAH0PAPAPAPANPAPAPANAAUsnout@@AAU_transform@@@Z 0040aaff f ele_math.obj
 0001:00009b32       ?torus_by_edge@@YAPAPAPANHPAPAPAN0@Z 0040ab32 f ele_math.obj
 0001:0000c062       ?make_ctorus_by_edge@@YAHHPAPAPAN0AAUCirTorus@@AAU_transform@@@Z 0040d062 f ele_math.obj
 0001:0000c380       ?cone_by_edge@@YAPAPAPANHPAHPAPAPAPANPAPAPAN@Z 0040d380 f ele_math.obj
 0001:0000d7fe       ?make_cone_by_lines@@YAHHPAHPAPAPAPANPAPAPAN22AAUCone@@AAU_transform@@@Z 0040e7fe f ele_math.obj
 0001:0000dd60       ?multipl@@YAPAPAPANHPAH0PAPAPAPANPAPAPAN@Z 0040ed60 f ele_math.obj
 0001:0000f07d       ?MakeLineBy2DLines@@YAHPAH0PAPAPAPANPAPAPAN22AAULine2p@@@Z 0041007d f ele_math.obj
 0001:0000f356       ?make_box_by_perp_lines@@YAHPAH0PAPAPAPANPAPAPAN22AAUBox@@AAU_transform@@@Z 00410356 f ele_math.obj
 0001:000107c2       ?make_box_by_lines@@YAHPAH0PAPAPAPANPAPAPAN22AAUBox@@AAU_transform@@@Z 004117c2 f ele_math.obj
 0001:0001163a       ?make_cyl_by_endpnts@@YAXNPAN0AAUCylinder@@AAU_transform@@@Z 0041263a f ele_math.obj
 0001:00011a39       ?make_cyl_by_lines@@YAHHPAHPAPAPAPANPAPAPAN222AAUCylinder@@AAU_transform@@@Z 00412a39 f ele_math.obj
 0001:00012d58       ?xmake_cyl_by_3dpnts@@YAXHPAPAPAN00AAUCylinder@@AAU_transform@@@Z 00413d58 f ele_math.obj
 0001:00013a6b       ?ccc@@YAPANHPAPAPAN@Z      00414a6b f ele_math.obj
 0001:0001464f       ?cccp@@YAPANHPAPAPANPAN@Z  0041564f f ele_math.obj
 0001:000155bf       ?make_cyl_by_3dpnts@@YAHHPAPAPAN00AAUCylinder@@AAU_transform@@@Z 004165bf f ele_math.obj
 0001:00015781       ?get_plane_of_pnts@@YAXHPAPAPANPAN1@Z 00416781 f ele_math.obj
 0001:00015ac6       ?make_circle_by_3dpnts@@YAHHPAPAPANAANAAU_transform@@@Z 00416ac6 f ele_math.obj
 0001:00016420       ?CreateObject@CDatatbl@@SGPAVCObject@@XZ 00417420 f datatbl.obj
 0001:000164a8       ?_GetBaseClass@CDatatbl@@KGPAUCRuntimeClass@@XZ 004174a8 f datatbl.obj
 0001:000164bd       ?GetRuntimeClass@CDatatbl@@UBEPAUCRuntimeClass@@XZ 004174bd f datatbl.obj
 0001:000164d8       ?GetGridLineColor@CDatatbl@@QAEKXZ 004174d8 f datatbl.obj
 0001:00016501       ?SetGridLineColor@CDatatbl@@QAEXK@Z 00417501 f datatbl.obj
 0001:0001652d       ?GetAllowPaintCellEvent@CDatatbl@@QAEHXZ 0041752d f datatbl.obj
 0001:00016556       ?SetAllowPaintCellEvent@CDatatbl@@QAEXH@Z 00417556 f datatbl.obj
 0001:00016582       ?GetVertGridLines@CDatatbl@@QAEHXZ 00417582 f datatbl.obj
 0001:000165ab       ?SetVertGridLines@CDatatbl@@QAEXH@Z 004175ab f datatbl.obj
 0001:000165d7       ?GetVertScrollBar@CDatatbl@@QAEJXZ 004175d7 f datatbl.obj
 0001:00016600       ?SetVertScrollBar@CDatatbl@@QAEXJ@Z 00417600 f datatbl.obj
 0001:0001662c       ?GetVertSplitPane@CDatatbl@@QAEHXZ 0041762c f datatbl.obj
 0001:00016655       ?SetVertSplitPane@CDatatbl@@QAEXH@Z 00417655 f datatbl.obj
 0001:00016681       ?GetHorzSplitPane@CDatatbl@@QAEHXZ 00417681 f datatbl.obj
 0001:000166aa       ?SetHorzSplitPane@CDatatbl@@QAEXH@Z 004176aa f datatbl.obj
 0001:000166d6       ?GetSelBackColor@CDatatbl@@QAEKXZ 004176d6 f datatbl.obj
 0001:000166ff       ?SetSelBackColor@CDatatbl@@QAEXK@Z 004176ff f datatbl.obj
 0001:0001672b       ?GetHorzScrollBar@CDatatbl@@QAEJXZ 0041772b f datatbl.obj
 0001:00016754       ?SetHorzScrollBar@CDatatbl@@QAEXJ@Z 00417754 f datatbl.obj
 0001:00016780       ?GetHorzGridLines@CDatatbl@@QAEHXZ 00417780 f datatbl.obj
 0001:000167a9       ?SetHorzGridLines@CDatatbl@@QAEXH@Z 004177a9 f datatbl.obj
 0001:000167d5       ?GetSelForeColor@CDatatbl@@QAEKXZ 004177d5 f datatbl.obj
 0001:000167fe       ?SetSelForeColor@CDatatbl@@QAEXK@Z 004177fe f datatbl.obj
 0001:0001682a       ?GetBackColor@CDatatbl@@QAEKXZ 0041782a f datatbl.obj
 0001:00016856       ?SetBackColor@CDatatbl@@QAEXK@Z 00417856 f datatbl.obj
 0001:00016885       ?GetEnabled@CDatatbl@@QAEHXZ 00417885 f datatbl.obj
 0001:000168b1       ?SetEnabled@CDatatbl@@QAEXH@Z 004178b1 f datatbl.obj
 0001:000168e0       ?GetFont@CDatatbl@@QAE?AVCOleFont@@XZ 004178e0 f datatbl.obj
 0001:00016961       ?SetFont@CDatatbl@@QAEXPAUIDispatch@@@Z 00417961 f datatbl.obj
 0001:00016990       ?GetForeColor@CDatatbl@@QAEKXZ 00417990 f datatbl.obj
 0001:000169bc       ?SetForeColor@CDatatbl@@QAEXK@Z 004179bc f datatbl.obj
 0001:000169eb       ?GetHWnd@CDatatbl@@QAEIXZ  004179eb f datatbl.obj
 0001:00016a17       ?SetHWnd@CDatatbl@@QAEXI@Z 00417a17 f datatbl.obj
 0001:00016a46       ?GetDropDownType@CDatatbl@@QAEJXZ 00417a46 f datatbl.obj
 0001:00016a6f       ?SetDropDownType@CDatatbl@@QAEXJ@Z 00417a6f f datatbl.obj
 0001:00016a9b       ?GetVirtualMemType@CDatatbl@@QAEJXZ 00417a9b f datatbl.obj
 0001:00016ac4       ?SetVirtualMemType@CDatatbl@@QAEXJ@Z 00417ac4 f datatbl.obj
 0001:00016af0       ?GetDroppedState@CDatatbl@@QAEHXZ 00417af0 f datatbl.obj
 0001:00016b19       ?SetDroppedState@CDatatbl@@QAEXH@Z 00417b19 f datatbl.obj
 0001:00016b45       ?GetCurCell@CDatatbl@@QAE?AVCDTCurCell@@XZ 00417b45 f datatbl.obj
 0001:00016bc3       ?SetCurCell@CDatatbl@@QAEXPAUIDispatch@@@Z 00417bc3 f datatbl.obj
 0001:00016bef       ?GetRowSet@CDatatbl@@QAE?AVCDTRowSet@@XZ 00417bef f datatbl.obj
 0001:00016c6d       ?SetRowSet@CDatatbl@@QAEXPAUIDispatch@@@Z 00417c6d f datatbl.obj
 0001:00016c99       ?GetColumnSet@CDatatbl@@QAE?AVCDTColumnSet@@XZ 00417c99 f datatbl.obj
 0001:00016d17       ?SetColumnSet@CDatatbl@@QAEXPAUIDispatch@@@Z 00417d17 f datatbl.obj
 0001:00016d43       ?GetCellSet@CDatatbl@@QAE?AVCDTCellSet@@XZ 00417d43 f datatbl.obj
 0001:00016dc1       ?SetCellSet@CDatatbl@@QAEXPAUIDispatch@@@Z 00417dc1 f datatbl.obj
 0001:00016ded       ?GetVMDataKey@CDatatbl@@QAEJXZ 00417ded f datatbl.obj
 0001:00016e16       ?SetVMDataKey@CDatatbl@@QAEXJ@Z 00417e16 f datatbl.obj
 0001:00016e42       ?GetLeftPaneWidth@CDatatbl@@QAEMXZ 00417e42 f datatbl.obj
 0001:00016e6b       ?SetLeftPaneWidth@CDatatbl@@QAEXM@Z 00417e6b f datatbl.obj
 0001:00016e9c       ?GetTopPaneHeight@CDatatbl@@QAEMXZ 00417e9c f datatbl.obj
 0001:00016ec5       ?SetTopPaneHeight@CDatatbl@@QAEXM@Z 00417ec5 f datatbl.obj
 0001:00016ef6       ?GetRedraw@CDatatbl@@QAEHXZ 00417ef6 f datatbl.obj
 0001:00016f1f       ?SetRedraw@CDatatbl@@QAEXH@Z 00417f1f f datatbl.obj
 0001:00016f4b       ?GetDataSource@CDatatbl@@QAEPAUIUnknown@@XZ 00417f4b f datatbl.obj
 0001:00016f74       ?SetDataSource@CDatatbl@@QAEXPAUIUnknown@@@Z 00417f74 f datatbl.obj
 0001:00016fa0       ?GetBorderStyle@CDatatbl@@QAEJXZ 00417fa0 f datatbl.obj
 0001:00016fc9       ?SetBorderStyle@CDatatbl@@QAEXJ@Z 00417fc9 f datatbl.obj
 0001:00016ff5       ?GetAppearance@CDatatbl@@QAEJXZ 00417ff5 f datatbl.obj
 0001:0001701e       ?SetAppearance@CDatatbl@@QAEXJ@Z 0041801e f datatbl.obj
 0001:0001704a       ?GetMousePointer@CDatatbl@@QAEJXZ 0041804a f datatbl.obj
 0001:00017073       ?SetMousePointer@CDatatbl@@QAEXJ@Z 00418073 f datatbl.obj
 0001:0001709f       ?GetLargeData@CDatatbl@@QAEHXZ 0041809f f datatbl.obj
 0001:000170c8       ?SetLargeData@CDatatbl@@QAEXH@Z 004180c8 f datatbl.obj
 0001:000170f4       ?Reset@CDatatbl@@QAEXXZ    004180f4 f datatbl.obj
 0001:00017120       ?VMReady@CDatatbl@@QAEXJ@Z 00418120 f datatbl.obj
 0001:00017155       ?DBAutoConfig@CDatatbl@@QAEXXZ 00418155 f datatbl.obj
 0001:00017181       ?AboutBox@CDatatbl@@QAEXXZ 00418181 f datatbl.obj
 0001:000171b0       ??0CDatatbl@@QAE@XZ        004181b0 f datatbl.obj
 0001:00017220       ?Create@CDatatbl@@UAEHPBD0KABUtagRECT@@PAVCWnd@@IPAUCCreateContext@@@Z 00418220 f datatbl.obj
 0001:00017270       ?GetClsid@CDatatbl@@QAEABU_GUID@@XZ 00418270 f datatbl.obj
 0001:00017290       ??_GCDatatbl@@UAEPAXI@Z    00418290 f datatbl.obj
 0001:00017290       ??_ECDatatbl@@UAEPAXI@Z    00418290 f datatbl.obj
 0001:000172d0       ??1CDatatbl@@UAE@XZ        004182d0 f datatbl.obj
 0001:00017330       ??0COleFont@@QAE@PAUIDispatch@@@Z 00418330 f datatbl.obj
 0001:000173a0       ??1COleFont@@QAE@XZ        004183a0 f datatbl.obj
 0001:00017400       ??0CDTCurCell@@QAE@PAUIDispatch@@@Z 00418400 f datatbl.obj
 0001:00017470       ??1CDTCurCell@@QAE@XZ      00418470 f datatbl.obj
 0001:000174d0       ??0CDTRowSet@@QAE@PAUIDispatch@@@Z 004184d0 f datatbl.obj
 0001:00017540       ??1CDTRowSet@@QAE@XZ       00418540 f datatbl.obj
 0001:000175a0       ??0CDTColumnSet@@QAE@PAUIDispatch@@@Z 004185a0 f datatbl.obj
 0001:00017610       ??1CDTColumnSet@@QAE@XZ    00418610 f datatbl.obj
 0001:00017670       ??0CDTCellSet@@QAE@PAUIDispatch@@@Z 00418670 f datatbl.obj
 0001:000176e0       ??1CDTCellSet@@QAE@XZ      004186e0 f datatbl.obj
 0001:00017740       ?rdmGroupLock@@YAHHPAUlock_request@@PAUDB_TASK_S@@H@Z 00418740 f rdm_utils.obj
 0001:000179b6       ?rdmGroupFree@@YAHHPAUlock_request@@PAUDB_TASK_S@@H@Z 004189b6 f rdm_utils.obj
 0001:00017a95       ?rdmFreeAll@@YAHPAUDB_TASK_S@@H@Z 00418a95 f rdm_utils.obj
 0001:00017aff       ?rdmRecLock@@YAHHPADPAUDB_TASK_S@@H@Z 00418aff f rdm_utils.obj
 0001:00017bf4       ?rdmRecFree@@YAHHPAUDB_TASK_S@@H@Z 00418bf4 f rdm_utils.obj
 0001:00017cfb       ?IsTransActive@@YAHPAUDB_TASK_S@@@Z 00418cfb f rdm_utils.obj
 0001:00017d2b       ?rdmTransBegin@@YAHPADPAUDB_TASK_S@@@Z 00418d2b f rdm_utils.obj
 0001:00017d63       ?rdmTransEnd@@YAHPAUDB_TASK_S@@@Z 00418d63 f rdm_utils.obj
 0001:00017db2       ?rdmTransAbort@@YAHPAUDB_TASK_S@@@Z 00418db2 f rdm_utils.obj
 0001:00017e01       ?c_lock2_i@@YAHD@Z         00418e01 f rdm_utils.obj
 0001:00017ecb       ?i_lock2_c@@YADH@Z         00418ecb f rdm_utils.obj
 0001:00017f8b       ?CreateRecLockTable@@YAHPAUDB_TASK_S@@@Z 00418f8b f rdm_utils.obj
 0001:00017fef       ?DestroyRecLockTable@@YAHXZ 00418fef f rdm_utils.obj
 0001:00018030       ?IncRecLock@@YAHHPAUDB_TASK_S@@H@Z 00419030 f rdm_utils.obj
 0001:0001807b       ?DecRecLock@@YAHHPAUDB_TASK_S@@H@Z 0041907b f rdm_utils.obj
 0001:000180ef       ?GetRecLockCount@@YAHHPAUDB_TASK_S@@H@Z 004190ef f rdm_utils.obj
 0001:00018137       ?ClearLockTables@@YAHXZ    00419137 f rdm_utils.obj
 0001:000181cd       ?rdmSetFree@@YAHHPAUDB_TASK_S@@H@Z 004191cd f rdm_utils.obj
 0001:00018268       ?rdmSetLock@@YAHHPADPAUDB_TASK_S@@H@Z 00419268 f rdm_utils.obj
 0001:00018349       ?rdmRecWrite@@YAHPAXPAUDB_TASK_S@@HPADH@Z 00419349 f rdm_utils.obj
 0001:0001837e       ?rdmFillNew@@YAHHPAXPAUDB_TASK_S@@HPADH@Z 0041937e f rdm_utils.obj
 0001:000183b0       ??4RDXDbAddr@@QAEAAV0@ABV0@@Z 004193b0 f calc3dp.obj
 0001:000183e0       ??4RDXLockObj@@QAEAAV0@ABV0@@Z 004193e0 f calc3dp.obj
 0001:00018410       ??0DbAddr@@IAE@XZ          00419410 f calc3dp.obj
 0001:00018440       ??0DbAddr@@QAE@J@Z         00419440 f calc3dp.obj
 0001:00018470       ?GetDba@DbAddr@@QBEKXZ     00419470 f calc3dp.obj
 0001:00018490       ?SetDba@DbAddr@@QAEXK@Z    00419490 f calc3dp.obj
 0001:000184b0       ??4DbAddr@@QAEAAV0@ABV0@@Z 004194b0 f calc3dp.obj
 0001:000184e0       ??0VistaObj@@IAE@PAVVistaDb@@@Z 004194e0 f calc3dp.obj
 0001:00018530       ?SetStatus@VistaObj@@QAEXH@Z 00419530 f calc3dp.obj
 0001:00018560       ?GetStatus@VistaObj@@QAEHXZ 00419560 f calc3dp.obj
 0001:00018580       ??1VistaObj@@UAE@XZ        00419580 f calc3dp.obj
 0001:000185a0       ?GetDb@VistaObj@@UAEPAVVistaDb@@XZ 004195a0 f calc3dp.obj
 0001:000185e0       ?SetDb@VistaObj@@UAEPAVVistaDb@@PAV2@@Z 004195e0 f calc3dp.obj
 0001:00018610       ?RecName@VistaObj@@UAEPADXZ 00419610 f calc3dp.obj
 0001:00018630       ??0VistaObj@@QAE@ABV0@@Z   00419630 f calc3dp.obj
 0001:000186c0       ??4VistaObj@@QAEAAV0@ABV0@@Z 004196c0 f calc3dp.obj
 0001:00018750       ??_FVistaObj@@QAEXXZ       00419750 f calc3dp.obj
 0001:00018770       ??_GVistaObj@@UAEPAXI@Z    00419770 f calc3dp.obj
 0001:000187b0       ??_EVistaObj@@UAEPAXI@Z    004197b0 f calc3dp.obj
 0001:00018820       ?SetDbdPath@ActivateTask@@IAEPADPAD@Z 00419820 f calc3dp.obj
 0001:00018850       ?DupStr@@YAPADPAPADQAD@Z   00419850 f calc3dp.obj
 0001:000188a0       ?SetDbfPath@ActivateTask@@IAEPADPAD@Z 004198a0 f calc3dp.obj
 0001:000188d0       ?SetTafPath@ActivateTask@@IAEPADPAD@Z 004198d0 f calc3dp.obj
 0001:00018900       ?SetLogPath@ActivateTask@@IAEPADPAD@Z 00419900 f calc3dp.obj
 0001:00018930       ?SetUID@ActivateTask@@IAEPADPAD@Z 00419930 f calc3dp.obj
 0001:00018960       ?GetDbdPath@ActivateTask@@QAEPADXZ 00419960 f calc3dp.obj
 0001:00018980       ?GetDbfPath@ActivateTask@@QAEPADXZ 00419980 f calc3dp.obj
 0001:000189a0       ?GetTafPath@ActivateTask@@QAEPADXZ 004199a0 f calc3dp.obj
 0001:000189c0       ?GetLogPath@ActivateTask@@QAEPADXZ 004199c0 f calc3dp.obj
 0001:000189e0       ?GetUID@ActivateTask@@QAEPADXZ 004199e0 f calc3dp.obj
 0001:00018a00       ??0ActivateTask@@QAE@PAD00@Z 00419a00 f calc3dp.obj
 0001:00018a60       ??1ActivateTask@@QAE@XZ    00419a60 f calc3dp.obj
 0001:00018a80       ??4ActivateTask@@QAEAAV0@ABV0@@Z 00419a80 f calc3dp.obj
 0001:00018ab0       ??_FActivateTask@@QAEXXZ   00419ab0 f calc3dp.obj
 0001:00018ae0       ??_GActivateTask@@QAEPAXI@Z 00419ae0 f calc3dp.obj
 0001:00018b20       ??_EActivateTask@@QAEPAXI@Z 00419b20 f calc3dp.obj
 0001:00018b90       ?SetStatus@RDXTask@@IAEXH@Z 00419b90 f calc3dp.obj
 0001:00018bc0       ?DbTask@RDXTask@@QAEPAUDB_TASK_S@@XZ 00419bc0 f calc3dp.obj
 0001:00018be0       ?Okay@RDXTask@@QAE?AW4T_F@@XZ 00419be0 f calc3dp.obj
 0001:00018c10       ?GetStatus@RDXTask@@QAEHXZ 00419c10 f calc3dp.obj
 0001:00018c30       ?dbdpath@RDXTask@@QAEHPAD@Z 00419c30 f calc3dp.obj
 0001:00018c60       ?dbfpath@RDXTask@@QAEHPAD@Z 00419c60 f calc3dp.obj
 0001:00018c90       ?dblog@RDXTask@@QAEHPAD@Z  00419c90 f calc3dp.obj
 0001:00018cc0       ?dbtaf@RDXTask@@QAEHPAD@Z  00419cc0 f calc3dp.obj
 0001:00018cf0       ?dbuserid@RDXTask@@QAEHPAD@Z 00419cf0 f calc3dp.obj
 0001:00018d20       ?checkid@RDXTask@@QAEHPAD@Z 00419d20 f calc3dp.obj
 0001:00018d50       ?internals@RDXTask@@QAEHHHHPAXI@Z 00419d50 f calc3dp.obj
 0001:00018d90       ?destroy@RDXTask@@QAEHPAD@Z 00419d90 f calc3dp.obj
 0001:00018dc0       ?freeall@RDXTask@@QAEHXZ   00419dc0 f calc3dp.obj
 0001:00018df0       ?lockcomm@RDXTask@@QAEHH@Z 00419df0 f calc3dp.obj
 0001:00018e20       ?lockmgr@RDXTask@@QAEHPAD@Z 00419e20 f calc3dp.obj
 0001:00018e50       ?off_opt@RDXTask@@QAEHH@Z  00419e50 f calc3dp.obj
 0001:00018e80       ?on_opt@RDXTask@@QAEHK@Z   00419e80 f calc3dp.obj
 0001:00018eb0       ?recover@RDXTask@@QAEHPAD@Z 00419eb0 f calc3dp.obj
 0001:00018ee0       ?renfile@RDXTask@@QAEHPADF0@Z 00419ee0 f calc3dp.obj
 0001:00018f10       ?renclean@RDXTask@@QAEHXZ  00419f10 f calc3dp.obj
 0001:00018f40       ?setpages@RDXTask@@QAEHHH@Z 00419f40 f calc3dp.obj
 0001:00018f70       ?setfiles@RDXTask@@QAEHH@Z 00419f70 f calc3dp.obj
 0001:00018fa0       ?set_dberr@RDXTask@@QAEHP6GXHPAD@Z@Z 00419fa0 f calc3dp.obj
 0001:00018fd0       ?timeout@RDXTask@@QAEHH@Z  00419fd0 f calc3dp.obj
 0001:00019000       ?trabort@RDXTask@@QAEHXZ   0041a000 f calc3dp.obj
 0001:00019030       ?trbegin@RDXTask@@QAEHQAD@Z 0041a030 f calc3dp.obj
 0001:00019060       ?trend@RDXTask@@QAEHXZ     0041a060 f calc3dp.obj
 0001:00019090       ??4RDXTask@@QAEAAV0@ABV0@@Z 0041a090 f calc3dp.obj
 0001:000190c0       ??_GRDXTask@@QAEPAXI@Z     0041a0c0 f calc3dp.obj
 0001:00019100       ??_ERDXTask@@QAEPAXI@Z     0041a100 f calc3dp.obj
 0001:00019170       ?SetTransact@VistaTask@@AAEXPAVTransAction@@@Z 0041a170 f calc3dp.obj
 0001:000191a0       ?GetOpenType@VistaTask@@IAEPADXZ 0041a1a0 f calc3dp.obj
 0001:000191c0       ?GetTransact@VistaTask@@QAEPAVTransAction@@XZ 0041a1c0 f calc3dp.obj
 0001:000191e0       ?GetDbTotNumber@VistaTask@@QAEHXZ 0041a1e0 f calc3dp.obj
 0001:00019210       ??0VistaTask@@QAE@ABV0@@Z  0041a210 f calc3dp.obj
 0001:00019310       ??4VistaTask@@QAEAAV0@ABV0@@Z 0041a310 f calc3dp.obj
 0001:00019410       ??_GVistaTask@@QAEPAXI@Z   0041a410 f calc3dp.obj
 0001:00019450       ??_EVistaTask@@QAEPAXI@Z   0041a450 f calc3dp.obj
 0001:000194d0       ?SetDbn@RDXDb@@IAEXH@Z     0041a4d0 f calc3dp.obj
 0001:00019500       ?GetDbn@RDXDb@@QAEHXZ      0041a500 f calc3dp.obj
 0001:00019520       ?GetDbStatus@RDXDb@@QAEHXZ 0041a520 f calc3dp.obj
 0001:00019540       ?recstat@RDXDb@@QAEHKK@Z   0041a540 f calc3dp.obj
 0001:00019580       ?rlbclr@RDXDb@@QAEHXZ      0041a580 f calc3dp.obj
 0001:000195c0       ?rlbset@RDXDb@@QAEHXZ      0041a5c0 f calc3dp.obj
 0001:00019600       ?rlbtst@RDXDb@@QAEHXZ      0041a600 f calc3dp.obj
 0001:00019640       ?cmstat@RDXDb@@QAEHH@Z     0041a640 f calc3dp.obj
 0001:00019680       ?cmtype@RDXDb@@QAEHHPAH@Z  0041a680 f calc3dp.obj
 0001:000196c0       ?connect@RDXDb@@QAEHH@Z    0041a6c0 f calc3dp.obj
 0001:00019700       ?costat@RDXDb@@QAEHH@Z     0041a700 f calc3dp.obj
 0001:00019740       ?cotype@RDXDb@@QAEHHPAH@Z  0041a740 f calc3dp.obj
 0001:00019780       ?crget@RDXDb@@QAEHPAK@Z    0041a780 f calc3dp.obj
 0001:000197c0       ?crread@RDXDb@@QAEHJPAX@Z  0041a7c0 f calc3dp.obj
 0001:00019800       ?crset@RDXDb@@QAEHPAK@Z    0041a800 f calc3dp.obj
 0001:00019840       ?crstat@RDXDb@@QAEHXZ      0041a840 f calc3dp.obj
 0001:00019880       ?crtype@RDXDb@@QAEHPAH@Z   0041a880 f calc3dp.obj
 0001:000198c0       ?crwrite@RDXDb@@QAEHJPAX@Z 0041a8c0 f calc3dp.obj
 0001:00019900       ?csmget@RDXDb@@QAEHHPAK@Z  0041a900 f calc3dp.obj
 0001:00019940       ?csmread@RDXDb@@QAEHHJPAX@Z 0041a940 f calc3dp.obj
 0001:00019990       ?csmset@RDXDb@@QAEHHPAK@Z  0041a990 f calc3dp.obj
 0001:000199d0       ?csmwrite@RDXDb@@QAEHHJPAX@Z 0041a9d0 f calc3dp.obj
 0001:00019a20       ?csoget@RDXDb@@QAEHHPAK@Z  0041aa20 f calc3dp.obj
 0001:00019a60       ?csoread@RDXDb@@QAEHHJPAX@Z 0041aa60 f calc3dp.obj
 0001:00019ab0       ?csoset@RDXDb@@QAEHHPAK@Z  0041aab0 f calc3dp.obj
 0001:00019af0       ?csowrite@RDXDb@@QAEHHJPAX@Z 0041aaf0 f calc3dp.obj
 0001:00019b40       ?csstat@RDXDb@@QAEHH@Z     0041ab40 f calc3dp.obj
 0001:00019b80       ?ctbpath@RDXDb@@QAEHPAD@Z  0041ab80 f calc3dp.obj
 0001:00019bc0       ?ctscm@RDXDb@@QAEHHPAK@Z   0041abc0 f calc3dp.obj
 0001:00019c00       ?ctsco@RDXDb@@QAEHHPAK@Z   0041ac00 f calc3dp.obj
 0001:00019c40       ?ctscr@RDXDb@@QAEHPAK@Z    0041ac40 f calc3dp.obj
 0001:00019c80       ?curkey@RDXDb@@QAEHXZ      0041ac80 f calc3dp.obj
 0001:00019cc0       ?d_delete@RDXDb@@QAEHXZ    0041acc0 f calc3dp.obj
 0001:00019d00       ?disdel@RDXDb@@QAEHXZ      0041ad00 f calc3dp.obj
 0001:00019d40       ?recnext@RDXDb@@QAEHXZ     0041ad40 f calc3dp.obj
 0001:00019d80       ?recprev@RDXDb@@QAEHXZ     0041ad80 f calc3dp.obj
 0001:00019dc0       ?discon@RDXDb@@QAEHH@Z     0041adc0 f calc3dp.obj
 0001:00019e00       ?fillnew@RDXDb@@QAEHHPAX@Z 0041ae00 f calc3dp.obj
 0001:00019e40       ?findco@RDXDb@@QAEHH@Z     0041ae40 f calc3dp.obj
 0001:00019e80       ?findfm@RDXDb@@QAEHH@Z     0041ae80 f calc3dp.obj
 0001:00019ec0       ?findlm@RDXDb@@QAEHH@Z     0041aec0 f calc3dp.obj
 0001:00019f00       ?findnm@RDXDb@@QAEHH@Z     0041af00 f calc3dp.obj
 0001:00019f40       ?findpm@RDXDb@@QAEHH@Z     0041af40 f calc3dp.obj
 0001:00019f80       ?gtscm@RDXDb@@QAEHHPAK@Z   0041af80 f calc3dp.obj
 0001:00019fc0       ?gtsco@RDXDb@@QAEHHPAK@Z   0041afc0 f calc3dp.obj
 0001:0001a000       ?gtscr@RDXDb@@QAEHPAK@Z    0041b000 f calc3dp.obj
 0001:0001a040       ?gtscs@RDXDb@@QAEHHPAK@Z   0041b040 f calc3dp.obj
 0001:0001a080       ?initialize@RDXDb@@QAEHXZ  0041b080 f calc3dp.obj
 0001:0001a0c0       ?initfile@RDXDb@@QAEHF@Z   0041b0c0 f calc3dp.obj
 0001:0001a100       ?ismember@RDXDb@@QAEHH@Z   0041b100 f calc3dp.obj
 0001:0001a140       ?isowner@RDXDb@@QAEHH@Z    0041b140 f calc3dp.obj
 0001:0001a180       ?keybuild@RDXDb@@QAEHXZ    0041b180 f calc3dp.obj
 0001:0001a1c0       ?keydel@RDXDb@@QAEHJ@Z     0041b1c0 f calc3dp.obj
 0001:0001a200       ?keyexist@RDXDb@@QAEHJ@Z   0041b200 f calc3dp.obj
 0001:0001a240       ?keyfind@RDXDb@@QAEHJPAX@Z 0041b240 f calc3dp.obj
 0001:0001a280       ?keyfree@RDXDb@@QAEHJ@Z    0041b280 f calc3dp.obj
 0001:0001a2c0       ?keyfrst@RDXDb@@QAEHJ@Z    0041b2c0 f calc3dp.obj
 0001:0001a300       ?keylast@RDXDb@@QAEHJ@Z    0041b300 f calc3dp.obj
 0001:0001a340       ?keylock@RDXDb@@QAEHJPAD@Z 0041b340 f calc3dp.obj
 0001:0001a380       ?keylstat@RDXDb@@QAEHJPAD@Z 0041b380 f calc3dp.obj
 0001:0001a3c0       ?keynext@RDXDb@@QAEHJ@Z    0041b3c0 f calc3dp.obj
 0001:0001a400       ?keyprev@RDXDb@@QAEHJ@Z    0041b400 f calc3dp.obj
 0001:0001a440       ?keyread@RDXDb@@QAEHPAX@Z  0041b440 f calc3dp.obj
 0001:0001a480       ?keystore@RDXDb@@QAEHJ@Z   0041b480 f calc3dp.obj
 0001:0001a4c0       ?internals@RDXDb@@QAEHHHHPAXI@Z 0041b4c0 f calc3dp.obj
 0001:0001a500       ?lock@RDXDb@@QAEHHPAUlock_request@@@Z 0041b500 f calc3dp.obj
 0001:0001a540       ?makenew@RDXDb@@QAEHH@Z    0041b540 f calc3dp.obj
 0001:0001a580       ?members@RDXDb@@QAEHHPAJ@Z 0041b580 f calc3dp.obj
 0001:0001a5c0       ?recfree@RDXDb@@QAEHH@Z    0041b5c0 f calc3dp.obj
 0001:0001a600       ?recfrst@RDXDb@@QAEHH@Z    0041b600 f calc3dp.obj
 0001:0001a640       ?reclast@RDXDb@@QAEHH@Z    0041b640 f calc3dp.obj
 0001:0001a680       ?reclock@RDXDb@@QAEHHPAD@Z 0041b680 f calc3dp.obj
 0001:0001a6c0       ?reclstat@RDXDb@@QAEHHPAD@Z 0041b6c0 f calc3dp.obj
 0001:0001a700       ?recread@RDXDb@@QAEHPAX@Z  0041b700 f calc3dp.obj
 0001:0001a740       ?recset@RDXDb@@QAEHH@Z     0041b740 f calc3dp.obj
 0001:0001a780       ?recwrite@RDXDb@@QAEHPAX@Z 0041b780 f calc3dp.obj
 0001:0001a7c0       ?setfree@RDXDb@@QAEHH@Z    0041b7c0 f calc3dp.obj
 0001:0001a800       ?setkey@RDXDb@@QAEHJPAX@Z  0041b800 f calc3dp.obj
 0001:0001a840       ?setlock@RDXDb@@QAEHHPAX@Z 0041b840 f calc3dp.obj
 0001:0001a880       ?setlstat@RDXDb@@QAEHHPAX@Z 0041b880 f calc3dp.obj
 0001:0001a8c0       ?setmm@RDXDb@@QAEHHH@Z     0041b8c0 f calc3dp.obj
 0001:0001a900       ?setmo@RDXDb@@QAEHHH@Z     0041b900 f calc3dp.obj
 0001:0001a940       ?setmr@RDXDb@@QAEHH@Z      0041b940 f calc3dp.obj
 0001:0001a980       ?setom@RDXDb@@QAEHHH@Z     0041b980 f calc3dp.obj
 0001:0001a9c0       ?setoo@RDXDb@@QAEHHH@Z     0041b9c0 f calc3dp.obj
 0001:0001aa00       ?setor@RDXDb@@QAEHH@Z      0041ba00 f calc3dp.obj
 0001:0001aa40       ?setrm@RDXDb@@QAEHH@Z      0041ba40 f calc3dp.obj
 0001:0001aa80       ?setro@RDXDb@@QAEHH@Z      0041ba80 f calc3dp.obj
 0001:0001aac0       ?stscm@RDXDb@@QAEHHK@Z     0041bac0 f calc3dp.obj
 0001:0001ab00       ?stsco@RDXDb@@QAEHHK@Z     0041bb00 f calc3dp.obj
 0001:0001ab40       ?stscr@RDXDb@@QAEHK@Z      0041bb40 f calc3dp.obj
 0001:0001ab80       ?stscs@RDXDb@@QAEHHK@Z     0041bb80 f calc3dp.obj
 0001:0001abc0       ?utscm@RDXDb@@QAEHHPAK@Z   0041bbc0 f calc3dp.obj
 0001:0001ac00       ?utsco@RDXDb@@QAEHHPAK@Z   0041bc00 f calc3dp.obj
 0001:0001ac40       ?utscr@RDXDb@@QAEHPAK@Z    0041bc40 f calc3dp.obj
 0001:0001ac80       ?utscs@RDXDb@@QAEHHPAK@Z   0041bc80 f calc3dp.obj
 0001:0001acc0       ??0RDXDb@@QAE@XZ           0041bcc0 f calc3dp.obj
 0001:0001acf0       ??0RDXDb@@QAE@ABV0@@Z      0041bcf0 f calc3dp.obj
 0001:0001ad40       ??4RDXDb@@QAEAAV0@ABV0@@Z  0041bd40 f calc3dp.obj
 0001:0001ad80       ??_GRDXDb@@UAEPAXI@Z       0041bd80 f calc3dp.obj
 0001:0001adc0       ??_ERDXDb@@UAEPAXI@Z       0041bdc0 f calc3dp.obj
 0001:0001ae30       ?GetName@VistaDb@@IAEPADXZ 0041be30 f calc3dp.obj
 0001:0001ae50       ?SetOpenStat@VistaDb@@IAEXW4OpenStat@@@Z 0041be50 f calc3dp.obj
 0001:0001ae80       ?IsOpen@VistaDb@@QAE?AW4T_F@@XZ 0041be80 f calc3dp.obj
 0001:0001aea0       ?MakeCurrent@VistaDb@@UAEXXZ 0041bea0 f calc3dp.obj
 0001:0001aec0       ?GetTask@VistaDb@@QAEPAVVistaTask@@XZ 0041bec0 f calc3dp.obj
 0001:0001aee0       ??0VistaDb@@QAE@ABV0@@Z    0041bee0 f calc3dp.obj
 0001:0001afa0       ??4VistaDb@@QAEAAV0@ABV0@@Z 0041bfa0 f calc3dp.obj
 0001:0001b030       ??_GVistaDb@@UAEPAXI@Z     0041c030 f calc3dp.obj
 0001:0001b070       ??_EVistaDb@@UAEPAXI@Z     0041c070 f calc3dp.obj
 0001:0001b0f0       ??0StoreDb@@QAE@ABV0@@Z    0041c0f0 f calc3dp.obj
 0001:0001b170       ??4StoreDb@@QAEAAV0@ABV0@@Z 0041c170 f calc3dp.obj
 0001:0001b1a0       ??1StoreDb@@UAE@XZ         0041c1a0 f calc3dp.obj
 0001:0001b200       ??_GStoreDb@@UAEPAXI@Z     0041c200 f calc3dp.obj
 0001:0001b240       ??_EStoreDb@@UAEPAXI@Z     0041c240 f calc3dp.obj
 0001:0001b2c0       ??0StoreTask@@QAE@XZ       0041c2c0 f calc3dp.obj
 0001:0001b340       ??0StoreTask@@QAE@PAD@Z    0041c340 f calc3dp.obj
 0001:0001b3c0       ??0StoreTask@@QAE@AAVActivateTask@@@Z 0041c3c0 f calc3dp.obj
 0001:0001b440       ??0StoreTask@@QAE@PADAAVActivateTask@@@Z 0041c440 f calc3dp.obj
 0001:0001b4c0       ??0StoreTask@@QAE@ABV0@@Z  0041c4c0 f calc3dp.obj
 0001:0001b540       ??4StoreTask@@QAEAAV0@ABV0@@Z 0041c540 f calc3dp.obj
 0001:0001b570       ??1StoreTask@@QAE@XZ       0041c570 f calc3dp.obj
 0001:0001b5d0       ??_GStoreTask@@QAEPAXI@Z   0041c5d0 f calc3dp.obj
 0001:0001b610       ??_EStoreTask@@QAEPAXI@Z   0041c610 f calc3dp.obj
 0001:0001b690       ??0SetObj@@QAE@H@Z         0041c690 f calc3dp.obj
 0001:0001b6c0       ?Num@SetObj@@QBEHXZ        0041c6c0 f calc3dp.obj
 0001:0001b6e0       ??4SetObj@@QAEAAV0@ABV0@@Z 0041c6e0 f calc3dp.obj
 0001:0001b710       ?NotRead@StoreObj@@IAE?AW4T_F@@XZ 0041c710 f calc3dp.obj
 0001:0001b740       ?Okay@StoreObj@@QAE?AW4T_F@@XZ 0041c740 f calc3dp.obj
 0001:0001b770       ??AStoreObj@@QAEAAV0@AAVKeyObj@@@Z 0041c770 f calc3dp.obj
 0001:0001b7a0       ??AStoreObj@@QAEAAV0@AAVDbAddr@@@Z 0041c7a0 f calc3dp.obj
 0001:0001b7d0       ?First@StoreObj@@QAEAAV1@XZ 0041c7d0 f calc3dp.obj
 0001:0001b7f0       ?Last@StoreObj@@QAEAAV1@XZ 0041c7f0 f calc3dp.obj
 0001:0001b810       ?Next@StoreObj@@QAEAAV1@XZ 0041c810 f calc3dp.obj
 0001:0001b830       ?Prev@StoreObj@@QAEAAV1@XZ 0041c830 f calc3dp.obj
 0001:0001b850       ?First@StoreObj@@QAEAAV1@AAVKeyObj@@@Z 0041c850 f calc3dp.obj
 0001:0001b880       ?Last@StoreObj@@QAEAAV1@AAVKeyObj@@@Z 0041c880 f calc3dp.obj
 0001:0001b8b0       ?Next@StoreObj@@QAEAAV1@AAVKeyObj@@@Z 0041c8b0 f calc3dp.obj
 0001:0001b8e0       ?Prev@StoreObj@@QAEAAV1@AAVKeyObj@@@Z 0041c8e0 f calc3dp.obj
 0001:0001b910       ?ReadLock@StoreObj@@QAE?AW4T_F@@XZ 0041c910 f calc3dp.obj
 0001:0001b940       ?WriteLock@StoreObj@@QAE?AW4T_F@@XZ 0041c940 f calc3dp.obj
 0001:0001b970       ?ExclusiveLock@StoreObj@@QAE?AW4T_F@@XZ 0041c970 f calc3dp.obj
 0001:0001b9a0       ?KeepLock@StoreObj@@QAE?AW4T_F@@XZ 0041c9a0 f calc3dp.obj
 0001:0001b9d0       ??_FStoreObj@@QAEXXZ       0041c9d0 f calc3dp.obj
 0001:0001b9f0       ??_GStoreObj@@UAEPAXI@Z    0041c9f0 f calc3dp.obj
 0001:0001ba30       ??_EStoreObj@@UAEPAXI@Z    0041ca30 f calc3dp.obj
 0001:0001baa0       ??0KeyObj@@QAE@J@Z         0041caa0 f calc3dp.obj
 0001:0001bad0       ??0KeyObj@@QAE@JPAD@Z      0041cad0 f calc3dp.obj
 0001:0001bb00       ??0KeyObj@@QAE@JAAH@Z      0041cb00 f calc3dp.obj
 0001:0001bb30       ??0KeyObj@@QAE@JAAJ@Z      0041cb30 f calc3dp.obj
 0001:0001bb60       ??0KeyObj@@QAE@JAAN@Z      0041cb60 f calc3dp.obj
 0001:0001bb90       ??0KeyObj@@QAE@JAAM@Z      0041cb90 f calc3dp.obj
 0001:0001bbc0       ??0KeyObj@@QAE@JPAX@Z      0041cbc0 f calc3dp.obj
 0001:0001bbf0       ?Set@KeyObj@@QAEAAV1@PAD@Z 0041cbf0 f calc3dp.obj
 0001:0001bc20       ?Set@KeyObj@@QAEAAV1@AAH@Z 0041cc20 f calc3dp.obj
 0001:0001bc50       ?Set@KeyObj@@QAEAAV1@AAJ@Z 0041cc50 f calc3dp.obj
 0001:0001bc80       ?Set@KeyObj@@QAEAAV1@AAN@Z 0041cc80 f calc3dp.obj
 0001:0001bcb0       ?Set@KeyObj@@QAEAAV1@AAM@Z 0041ccb0 f calc3dp.obj
 0001:0001bce0       ?Set@KeyObj@@QAEAAV1@PAX@Z 0041cce0 f calc3dp.obj
 0001:0001bd10       ?Fld@KeyObj@@QBEJXZ        0041cd10 f calc3dp.obj
 0001:0001bd30       ?HasValue@KeyObj@@QBE?AW4T_F@@XZ 0041cd30 f calc3dp.obj
 0001:0001bd60       ?Value@KeyObj@@QBEPAXXZ    0041cd60 f calc3dp.obj
 0001:0001bd80       ??4KeyObj@@QAEAAV0@ABV0@@Z 0041cd80 f calc3dp.obj
 0001:0001bdb0       ??0ObjInfo@@IAE@XZ         0041cdb0 f calc3dp.obj
 0001:0001bde0       ?Set@ObjInfo@@QAEXAAVStoreObj@@@Z 0041cde0 f calc3dp.obj
 0001:0001be20       ?NotSet@ObjInfo@@QAE?AW4T_F@@XZ 0041ce20 f calc3dp.obj
 0001:0001be50       ?RecType@ObjInfo@@QAEHXZ   0041ce50 f calc3dp.obj
 0001:0001be70       ?GetObj@ObjInfo@@QAEPAVStoreObj@@XZ 0041ce70 f calc3dp.obj
 0001:0001be90       ??4ObjInfo@@QAEAAV0@ABV0@@Z 0041ce90 f calc3dp.obj
 0001:0001bec0       ?GetInfo@Polymorph@@IAEPAVObjInfo@@XZ 0041cec0 f calc3dp.obj
 0001:0001bee0       ??CPolymorph@@QAEPAVStoreObj@@XZ 0041cee0 f calc3dp.obj
 0001:0001bf10       ?GetObj@Polymorph@@QAEPAVStoreObj@@XZ 0041cf10 f calc3dp.obj
 0001:0001bf40       ?RecType@Polymorph@@UAEHXZ 0041cf40 f calc3dp.obj
 0001:0001bf70       ??0Polymorph@@QAE@AAV0@@Z  0041cf70 f calc3dp.obj
 0001:0001c020       ??4Polymorph@@QAEAAV0@AAV0@@Z 0041d020 f calc3dp.obj
 0001:0001c080       ??_GPolymorph@@UAEPAXI@Z   0041d080 f calc3dp.obj
 0001:0001c0c0       ??_EPolymorph@@UAEPAXI@Z   0041d0c0 f calc3dp.obj
 0001:0001c130       ??0triton@@QAE@XZ          0041d130 f calc3dp.obj
 0001:0001c1b0       ?OpenMe@triton@@QAEXXZ     0041d1b0 f calc3dp.obj
 0001:0001c1d0       ?MakeCurrent@triton@@UAEXXZ 0041d1d0 f calc3dp.obj
 0001:0001c1f0       ??0triton@@QAE@ABV0@@Z     0041d1f0 f calc3dp.obj
 0001:0001c270       ??4triton@@QAEAAV0@ABV0@@Z 0041d270 f calc3dp.obj
 0001:0001c2a0       ??1triton@@UAE@XZ          0041d2a0 f calc3dp.obj
 0001:0001c300       ??_Gtriton@@UAEPAXI@Z      0041d300 f calc3dp.obj
 0001:0001c340       ??_Etriton@@UAEPAXI@Z      0041d340 f calc3dp.obj
 0001:0001c3c0       ??0TransformObj@@QAE@XZ    0041d3c0 f calc3dp.obj
 0001:0001c440       ??1TransformObj@@UAE@XZ    0041d440 f calc3dp.obj
 0001:0001c4b0       ?RecType@TransformObj@@UAEHXZ 0041d4b0 f calc3dp.obj
 0001:0001c4d0       ?RecName@TransformObj@@UAEPADXZ 0041d4d0 f calc3dp.obj
 0001:0001c4f0       ?RecData@TransformObj@@UAEPAXXZ 0041d4f0 f calc3dp.obj
 0001:0001c510       ?RecDataSize@TransformObj@@QAEJXZ 0041d510 f calc3dp.obj
 0001:0001c530       ?_GetDb@TransformObj@@UAEPAVVistaDb@@XZ 0041d530 f calc3dp.obj
 0001:0001c550       ??ATransformObj@@QAEAAV0@W4NavCtrl@@@Z 0041d550 f calc3dp.obj
 0001:0001c580       ??ATransformObj@@QAEAAV0@AAVKeyObj@@@Z 0041d580 f calc3dp.obj
 0001:0001c5b0       ??ATransformObj@@QAEAAV0@AAVDbAddr@@@Z 0041d5b0 f calc3dp.obj
 0001:0001c5e0       ??ETransformObj@@QAEAAV0@XZ 0041d5e0 f calc3dp.obj
 0001:0001c600       ??FTransformObj@@QAEAAV0@XZ 0041d600 f calc3dp.obj
 0001:0001c620       ??ETransformObj@@QAEAAV0@H@Z 0041d620 f calc3dp.obj
 0001:0001c640       ??FTransformObj@@QAEAAV0@H@Z 0041d640 f calc3dp.obj
 0001:0001c660       ??5TransformObj@@QAEAAVClassesObj@@AAV1@@Z 0041d660 f calc3dp.obj
 0001:0001c690       ?OwnerUsingSet@TransformObj@@QAEAAVClassesObj@@AAV2@H@Z 0041d690 f calc3dp.obj
 0001:0001c6c0       ?Members@TransformObj@@QAEJAAVClassesObj@@H@Z 0041d6c0 f calc3dp.obj
 0001:0001c6f0       ??0TransformObj@@QAE@AAV0@@Z 0041d6f0 f calc3dp.obj
 0001:0001c7a0       ??4TransformObj@@QAEAAV0@AAV0@@Z 0041d7a0 f calc3dp.obj
 0001:0001c800       ??_GTransformObj@@UAEPAXI@Z 0041d800 f calc3dp.obj
 0001:0001c840       ??_ETransformObj@@UAEPAXI@Z 0041d840 f calc3dp.obj
 0001:0001c8c0       ??0ClassesObj@@QAE@XZ      0041d8c0 f calc3dp.obj
 0001:0001c940       ??0ClassesObj@@QAE@AAVSetObj@@@Z 0041d940 f calc3dp.obj
 0001:0001c9c0       ??0ClassesObj@@QAE@AAVKeyObj@@@Z 0041d9c0 f calc3dp.obj
 0001:0001ca40       ??0ClassesObj@@QAE@AAVSystemObj@@@Z 0041da40 f calc3dp.obj
 0001:0001cad0       ??0ClassesObj@@QAE@AAV0@@Z 0041dad0 f calc3dp.obj
 0001:0001cb60       ??0ClassesObj@@QAE@AAVTransformObj@@@Z 0041db60 f calc3dp.obj
 0001:0001cbf0       ??0ClassesObj@@QAE@AAVGroupsObj@@@Z 0041dbf0 f calc3dp.obj
 0001:0001cc80       ??0ClassesObj@@QAE@AAVPropertiesObj@@@Z 0041dc80 f calc3dp.obj
 0001:0001cd10       ??1ClassesObj@@UAE@XZ      0041dd10 f calc3dp.obj
 0001:0001cd80       ?RecType@ClassesObj@@UAEHXZ 0041dd80 f calc3dp.obj
 0001:0001cda0       ?RecName@ClassesObj@@UAEPADXZ 0041dda0 f calc3dp.obj
 0001:0001cdc0       ?RecData@ClassesObj@@UAEPAXXZ 0041ddc0 f calc3dp.obj
 0001:0001cde0       ?RecDataSize@ClassesObj@@QAEJXZ 0041dde0 f calc3dp.obj
 0001:0001ce00       ?_GetDb@ClassesObj@@UAEPAVVistaDb@@XZ 0041de00 f calc3dp.obj
 0001:0001ce20       ??AClassesObj@@QAEAAV0@W4NavCtrl@@@Z 0041de20 f calc3dp.obj
 0001:0001ce50       ??AClassesObj@@QAEAAV0@AAVKeyObj@@@Z 0041de50 f calc3dp.obj
 0001:0001ce80       ??AClassesObj@@QAEAAV0@AAVDbAddr@@@Z 0041de80 f calc3dp.obj
 0001:0001ceb0       ??EClassesObj@@QAEAAV0@XZ  0041deb0 f calc3dp.obj
 0001:0001ced0       ??FClassesObj@@QAEAAV0@XZ  0041ded0 f calc3dp.obj
 0001:0001cef0       ??EClassesObj@@QAEAAV0@H@Z 0041def0 f calc3dp.obj
 0001:0001cf10       ??FClassesObj@@QAEAAV0@H@Z 0041df10 f calc3dp.obj
 0001:0001cf30       ??5ClassesObj@@QAEAAV0@AAV0@@Z 0041df30 f calc3dp.obj
 0001:0001cf60       ?OwnerUsingSet@ClassesObj@@QAEAAV1@AAV1@H@Z 0041df60 f calc3dp.obj
 0001:0001cf90       ?Members@ClassesObj@@QAEJAAV1@H@Z 0041df90 f calc3dp.obj
 0001:0001cfc0       ??5ClassesObj@@QAEAAVConeObj@@AAV1@@Z 0041dfc0 f calc3dp.obj
 0001:0001cff0       ?OwnerUsingSet@ClassesObj@@QAEAAVConeObj@@AAV2@H@Z 0041dff0 f calc3dp.obj
 0001:0001d020       ?Members@ClassesObj@@QAEJAAVConeObj@@H@Z 0041e020 f calc3dp.obj
 0001:0001d050       ??5ClassesObj@@QAEAAVCylinderObj@@AAV1@@Z 0041e050 f calc3dp.obj
 0001:0001d080       ?OwnerUsingSet@ClassesObj@@QAEAAVCylinderObj@@AAV2@H@Z 0041e080 f calc3dp.obj
 0001:0001d0b0       ?Members@ClassesObj@@QAEJAAVCylinderObj@@H@Z 0041e0b0 f calc3dp.obj
 0001:0001d0e0       ??5ClassesObj@@QAEAAVSphereObj@@AAV1@@Z 0041e0e0 f calc3dp.obj
 0001:0001d110       ?OwnerUsingSet@ClassesObj@@QAEAAVSphereObj@@AAV2@H@Z 0041e110 f calc3dp.obj
 0001:0001d140       ?Members@ClassesObj@@QAEJAAVSphereObj@@H@Z 0041e140 f calc3dp.obj
 0001:0001d170       ??5ClassesObj@@QAEAAVBoxObj@@AAV1@@Z 0041e170 f calc3dp.obj
 0001:0001d1a0       ?OwnerUsingSet@ClassesObj@@QAEAAVBoxObj@@AAV2@H@Z 0041e1a0 f calc3dp.obj
 0001:0001d1d0       ?Members@ClassesObj@@QAEJAAVBoxObj@@H@Z 0041e1d0 f calc3dp.obj
 0001:0001d200       ??5ClassesObj@@QAEAAVComplexObj@@AAV1@@Z 0041e200 f calc3dp.obj
 0001:0001d230       ?OwnerUsingSet@ClassesObj@@QAEAAVComplexObj@@AAV2@H@Z 0041e230 f calc3dp.obj
 0001:0001d260       ?Members@ClassesObj@@QAEJAAVComplexObj@@H@Z 0041e260 f calc3dp.obj
 0001:0001d290       ??5ClassesObj@@QAEAAVCirTorusObj@@AAV1@@Z 0041e290 f calc3dp.obj
 0001:0001d2c0       ?OwnerUsingSet@ClassesObj@@QAEAAVCirTorusObj@@AAV2@H@Z 0041e2c0 f calc3dp.obj
 0001:0001d2f0       ?Members@ClassesObj@@QAEJAAVCirTorusObj@@H@Z 0041e2f0 f calc3dp.obj
 0001:0001d320       ??5ClassesObj@@QAEAAVRectTorusObj@@AAV1@@Z 0041e320 f calc3dp.obj
 0001:0001d350       ?OwnerUsingSet@ClassesObj@@QAEAAVRectTorusObj@@AAV2@H@Z 0041e350 f calc3dp.obj
 0001:0001d380       ?Members@ClassesObj@@QAEJAAVRectTorusObj@@H@Z 0041e380 f calc3dp.obj
 0001:0001d3b0       ??5ClassesObj@@QAEAAVPyramidObj@@AAV1@@Z 0041e3b0 f calc3dp.obj
 0001:0001d3e0       ?OwnerUsingSet@ClassesObj@@QAEAAVPyramidObj@@AAV2@H@Z 0041e3e0 f calc3dp.obj
 0001:0001d410       ?Members@ClassesObj@@QAEJAAVPyramidObj@@H@Z 0041e410 f calc3dp.obj
 0001:0001d440       ??5ClassesObj@@QAEAAVLineObj@@AAV1@@Z 0041e440 f calc3dp.obj
 0001:0001d470       ?OwnerUsingSet@ClassesObj@@QAEAAVLineObj@@AAV2@H@Z 0041e470 f calc3dp.obj
 0001:0001d4a0       ?Members@ClassesObj@@QAEJAAVLineObj@@H@Z 0041e4a0 f calc3dp.obj
 0001:0001d4d0       ??5ClassesObj@@QAEAAVPointObj@@AAV1@@Z 0041e4d0 f calc3dp.obj
 0001:0001d500       ?OwnerUsingSet@ClassesObj@@QAEAAVPointObj@@AAV2@H@Z 0041e500 f calc3dp.obj
 0001:0001d530       ?Members@ClassesObj@@QAEJAAVPointObj@@H@Z 0041e530 f calc3dp.obj
 0001:0001d560       ?Connect@ClassesObj@@QAE?AW4T_F@@AAVSystemObj@@H@Z 0041e560 f calc3dp.obj
 0001:0001d590       ?GotoSet@ClassesObj@@QAEAAVStoreObj@@AAVSystemObj@@W4NavCtrl@@H@Z 0041e590 f calc3dp.obj
 0001:0001d5c0       ?DisConnect@ClassesObj@@QAE?AW4T_F@@AAVSystemObj@@H@Z 0041e5c0 f calc3dp.obj
 0001:0001d5f0       ?Set@ClassesObj@@QAEHAAVSystemObj@@@Z 0041e5f0 f calc3dp.obj
 0001:0001d610       ??6ClassesObj@@QAEAAVSystemObj@@AAV1@@Z 0041e610 f calc3dp.obj
 0001:0001d640       ?MemberUsingSet@ClassesObj@@QAEAAVSystemObj@@AAV2@H@Z 0041e640 f calc3dp.obj
 0001:0001d670       ?Connect@ClassesObj@@QAE?AW4T_F@@AAV1@H@Z 0041e670 f calc3dp.obj
 0001:0001d6a0       ?GotoSet@ClassesObj@@QAEAAVStoreObj@@AAV1@W4NavCtrl@@H@Z 0041e6a0 f calc3dp.obj
 0001:0001d6d0       ?DisConnect@ClassesObj@@QAE?AW4T_F@@AAV1@H@Z 0041e6d0 f calc3dp.obj
 0001:0001d700       ?Set@ClassesObj@@QAEHAAV1@@Z 0041e700 f calc3dp.obj
 0001:0001d720       ??6ClassesObj@@QAEAAV0@AAV0@@Z 0041e720 f calc3dp.obj
 0001:0001d750       ?MemberUsingSet@ClassesObj@@QAEAAV1@AAV1@H@Z 0041e750 f calc3dp.obj
 0001:0001d780       ?Connect@ClassesObj@@QAE?AW4T_F@@AAVTransformObj@@H@Z 0041e780 f calc3dp.obj
 0001:0001d7b0       ?GotoSet@ClassesObj@@QAEAAVStoreObj@@AAVTransformObj@@W4NavCtrl@@H@Z 0041e7b0 f calc3dp.obj
 0001:0001d7e0       ?DisConnect@ClassesObj@@QAE?AW4T_F@@AAVTransformObj@@H@Z 0041e7e0 f calc3dp.obj
 0001:0001d810       ?Set@ClassesObj@@QAEHAAVTransformObj@@@Z 0041e810 f calc3dp.obj
 0001:0001d830       ??6ClassesObj@@QAEAAVTransformObj@@AAV1@@Z 0041e830 f calc3dp.obj
 0001:0001d860       ?MemberUsingSet@ClassesObj@@QAEAAVTransformObj@@AAV2@H@Z 0041e860 f calc3dp.obj
 0001:0001d890       ?Connect@ClassesObj@@QAE?AW4T_F@@AAVGroupsObj@@H@Z 0041e890 f calc3dp.obj
 0001:0001d8c0       ?GotoSet@ClassesObj@@QAEAAVStoreObj@@AAVGroupsObj@@W4NavCtrl@@H@Z 0041e8c0 f calc3dp.obj
 0001:0001d8f0       ?DisConnect@ClassesObj@@QAE?AW4T_F@@AAVGroupsObj@@H@Z 0041e8f0 f calc3dp.obj
 0001:0001d920       ?Set@ClassesObj@@QAEHAAVGroupsObj@@@Z 0041e920 f calc3dp.obj
 0001:0001d940       ??6ClassesObj@@QAEAAVGroupsObj@@AAV1@@Z 0041e940 f calc3dp.obj
 0001:0001d970       ?MemberUsingSet@ClassesObj@@QAEAAVGroupsObj@@AAV2@H@Z 0041e970 f calc3dp.obj
 0001:0001d9a0       ?Connect@ClassesObj@@QAE?AW4T_F@@AAVPropertiesObj@@H@Z 0041e9a0 f calc3dp.obj
 0001:0001d9d0       ?GotoSet@ClassesObj@@QAEAAVStoreObj@@AAVPropertiesObj@@W4NavCtrl@@H@Z 0041e9d0 f calc3dp.obj
 0001:0001da00       ?DisConnect@ClassesObj@@QAE?AW4T_F@@AAVPropertiesObj@@H@Z 0041ea00 f calc3dp.obj
 0001:0001da30       ?Set@ClassesObj@@QAEHAAVPropertiesObj@@@Z 0041ea30 f calc3dp.obj
 0001:0001da50       ??6ClassesObj@@QAEAAVPropertiesObj@@AAV1@@Z 0041ea50 f calc3dp.obj
 0001:0001da80       ?MemberUsingSet@ClassesObj@@QAEAAVPropertiesObj@@AAV2@H@Z 0041ea80 f calc3dp.obj
 0001:0001dab0       ??4ClassesObj@@QAEAAV0@AAV0@@Z 0041eab0 f calc3dp.obj
 0001:0001db10       ??_GClassesObj@@UAEPAXI@Z  0041eb10 f calc3dp.obj
 0001:0001db50       ??_EClassesObj@@UAEPAXI@Z  0041eb50 f calc3dp.obj
 0001:0001dbd0       ??0GroupsObj@@QAE@XZ       0041ebd0 f calc3dp.obj
 0001:0001dc50       ??0GroupsObj@@QAE@AAVKeyObj@@@Z 0041ec50 f calc3dp.obj
 0001:0001dcd0       ??1GroupsObj@@UAE@XZ       0041ecd0 f calc3dp.obj
 0001:0001dd40       ?RecType@GroupsObj@@UAEHXZ 0041ed40 f calc3dp.obj
 0001:0001dd60       ?RecName@GroupsObj@@UAEPADXZ 0041ed60 f calc3dp.obj
 0001:0001dd80       ?RecData@GroupsObj@@UAEPAXXZ 0041ed80 f calc3dp.obj
 0001:0001dda0       ?RecDataSize@GroupsObj@@QAEJXZ 0041eda0 f calc3dp.obj
 0001:0001ddc0       ?_GetDb@GroupsObj@@UAEPAVVistaDb@@XZ 0041edc0 f calc3dp.obj
 0001:0001dde0       ??AGroupsObj@@QAEAAV0@W4NavCtrl@@@Z 0041ede0 f calc3dp.obj
 0001:0001de10       ??AGroupsObj@@QAEAAV0@AAVKeyObj@@@Z 0041ee10 f calc3dp.obj
 0001:0001de40       ??AGroupsObj@@QAEAAV0@AAVDbAddr@@@Z 0041ee40 f calc3dp.obj
 0001:0001de70       ??EGroupsObj@@QAEAAV0@XZ   0041ee70 f calc3dp.obj
 0001:0001de90       ??FGroupsObj@@QAEAAV0@XZ   0041ee90 f calc3dp.obj
 0001:0001deb0       ??EGroupsObj@@QAEAAV0@H@Z  0041eeb0 f calc3dp.obj
 0001:0001ded0       ??FGroupsObj@@QAEAAV0@H@Z  0041eed0 f calc3dp.obj
 0001:0001def0       ??5GroupsObj@@QAEAAVClassesObj@@AAV1@@Z 0041eef0 f calc3dp.obj
 0001:0001df20       ?OwnerUsingSet@GroupsObj@@QAEAAVClassesObj@@AAV2@H@Z 0041ef20 f calc3dp.obj
 0001:0001df50       ?Members@GroupsObj@@QAEJAAVClassesObj@@H@Z 0041ef50 f calc3dp.obj
 0001:0001df80       ??0GroupsObj@@QAE@AAV0@@Z  0041ef80 f calc3dp.obj
 0001:0001e030       ??4GroupsObj@@QAEAAV0@AAV0@@Z 0041f030 f calc3dp.obj
 0001:0001e090       ??_GGroupsObj@@UAEPAXI@Z   0041f090 f calc3dp.obj
 0001:0001e0d0       ??_EGroupsObj@@UAEPAXI@Z   0041f0d0 f calc3dp.obj
 0001:0001e140       ??0PropertiesObj@@QAE@XZ   0041f140 f calc3dp.obj
 0001:0001e1c0       ??1PropertiesObj@@UAE@XZ   0041f1c0 f calc3dp.obj
 0001:0001e230       ?RecType@PropertiesObj@@UAEHXZ 0041f230 f calc3dp.obj
 0001:0001e250       ?RecName@PropertiesObj@@UAEPADXZ 0041f250 f calc3dp.obj
 0001:0001e270       ?RecData@PropertiesObj@@UAEPAXXZ 0041f270 f calc3dp.obj
 0001:0001e290       ?RecDataSize@PropertiesObj@@QAEJXZ 0041f290 f calc3dp.obj
 0001:0001e2b0       ?_GetDb@PropertiesObj@@UAEPAVVistaDb@@XZ 0041f2b0 f calc3dp.obj
 0001:0001e2d0       ??APropertiesObj@@QAEAAV0@W4NavCtrl@@@Z 0041f2d0 f calc3dp.obj
 0001:0001e300       ??APropertiesObj@@QAEAAV0@AAVKeyObj@@@Z 0041f300 f calc3dp.obj
 0001:0001e330       ??APropertiesObj@@QAEAAV0@AAVDbAddr@@@Z 0041f330 f calc3dp.obj
 0001:0001e360       ??EPropertiesObj@@QAEAAV0@XZ 0041f360 f calc3dp.obj
 0001:0001e380       ??FPropertiesObj@@QAEAAV0@XZ 0041f380 f calc3dp.obj
 0001:0001e3a0       ??EPropertiesObj@@QAEAAV0@H@Z 0041f3a0 f calc3dp.obj
 0001:0001e3c0       ??FPropertiesObj@@QAEAAV0@H@Z 0041f3c0 f calc3dp.obj
 0001:0001e3e0       ??5PropertiesObj@@QAEAAVClassesObj@@AAV1@@Z 0041f3e0 f calc3dp.obj
 0001:0001e410       ?OwnerUsingSet@PropertiesObj@@QAEAAVClassesObj@@AAV2@H@Z 0041f410 f calc3dp.obj
 0001:0001e440       ?Members@PropertiesObj@@QAEJAAVClassesObj@@H@Z 0041f440 f calc3dp.obj
 0001:0001e470       ??0PropertiesObj@@QAE@AAV0@@Z 0041f470 f calc3dp.obj
 0001:0001e520       ??4PropertiesObj@@QAEAAV0@AAV0@@Z 0041f520 f calc3dp.obj
 0001:0001e580       ??_GPropertiesObj@@UAEPAXI@Z 0041f580 f calc3dp.obj
 0001:0001e5c0       ??_EPropertiesObj@@UAEPAXI@Z 0041f5c0 f calc3dp.obj
 0001:0001e630       ??0ElementObj@@QAE@XZ      0041f630 f calc3dp.obj
 0001:0001e6b0       ?RecData@ElementObj@@UAEPAXXZ 0041f6b0 f calc3dp.obj
 0001:0001e6d0       ?_GetDb@ElementObj@@UAEPAVVistaDb@@XZ 0041f6d0 f calc3dp.obj
 0001:0001e6f0       ??0ElementObj@@QAE@AAV0@@Z 0041f6f0 f calc3dp.obj
 0001:0001e790       ??4ElementObj@@QAEAAV0@AAV0@@Z 0041f790 f calc3dp.obj
 0001:0001e800       ??1ElementObj@@UAE@XZ      0041f800 f calc3dp.obj
 0001:0001e860       ??_GElementObj@@UAEPAXI@Z  0041f860 f calc3dp.obj
 0001:0001e8a0       ??_EElementObj@@UAEPAXI@Z  0041f8a0 f calc3dp.obj
 0001:0001e910       ??0BoxObj@@QAE@XZ          0041f910 f calc3dp.obj
 0001:0001e980       ??1BoxObj@@UAE@XZ          0041f980 f calc3dp.obj
 0001:0001e9f0       ?RecType@BoxObj@@UAEHXZ    0041f9f0 f calc3dp.obj
 0001:0001ea10       ?RecName@BoxObj@@UAEPADXZ  0041fa10 f calc3dp.obj
 0001:0001ea30       ?RecDataSize@BoxObj@@UAEJXZ 0041fa30 f calc3dp.obj
 0001:0001ea50       ?_GetDb@BoxObj@@UAEPAVVistaDb@@XZ 0041fa50 f calc3dp.obj
 0001:0001ea70       ??ABoxObj@@QAEAAV0@W4NavCtrl@@@Z 0041fa70 f calc3dp.obj
 0001:0001eaa0       ??ABoxObj@@QAEAAV0@AAVKeyObj@@@Z 0041faa0 f calc3dp.obj
 0001:0001ead0       ??ABoxObj@@QAEAAV0@AAVDbAddr@@@Z 0041fad0 f calc3dp.obj
 0001:0001eb00       ??EBoxObj@@QAEAAV0@XZ      0041fb00 f calc3dp.obj
 0001:0001eb20       ??FBoxObj@@QAEAAV0@XZ      0041fb20 f calc3dp.obj
 0001:0001eb40       ??EBoxObj@@QAEAAV0@H@Z     0041fb40 f calc3dp.obj
 0001:0001eb60       ??FBoxObj@@QAEAAV0@H@Z     0041fb60 f calc3dp.obj
 0001:0001eb80       ?Connect@BoxObj@@QAE?AW4T_F@@AAVClassesObj@@H@Z 0041fb80 f calc3dp.obj
 0001:0001ebb0       ?GotoSet@BoxObj@@QAEAAVStoreObj@@AAVClassesObj@@W4NavCtrl@@H@Z 0041fbb0 f calc3dp.obj
 0001:0001ebe0       ?DisConnect@BoxObj@@QAE?AW4T_F@@AAVClassesObj@@H@Z 0041fbe0 f calc3dp.obj
 0001:0001ec10       ?Set@BoxObj@@QAEHAAVClassesObj@@@Z 0041fc10 f calc3dp.obj
 0001:0001ec30       ??6BoxObj@@QAEAAVClassesObj@@AAV1@@Z 0041fc30 f calc3dp.obj
 0001:0001ec60       ?MemberUsingSet@BoxObj@@QAEAAVClassesObj@@AAV2@H@Z 0041fc60 f calc3dp.obj
 0001:0001ec90       ??0BoxObj@@QAE@AAV0@@Z     0041fc90 f calc3dp.obj
 0001:0001ed40       ??4BoxObj@@QAEAAV0@AAV0@@Z 0041fd40 f calc3dp.obj
 0001:0001eda0       ??_GBoxObj@@UAEPAXI@Z      0041fda0 f calc3dp.obj
 0001:0001ede0       ??_EBoxObj@@UAEPAXI@Z      0041fde0 f calc3dp.obj
 0001:0001ee50       ??0CirTorusObj@@QAE@XZ     0041fe50 f calc3dp.obj
 0001:0001eec0       ??1CirTorusObj@@UAE@XZ     0041fec0 f calc3dp.obj
 0001:0001ef30       ?RecType@CirTorusObj@@UAEHXZ 0041ff30 f calc3dp.obj
 0001:0001ef50       ?RecName@CirTorusObj@@UAEPADXZ 0041ff50 f calc3dp.obj
 0001:0001ef70       ?RecDataSize@CirTorusObj@@UAEJXZ 0041ff70 f calc3dp.obj
 0001:0001ef90       ?_GetDb@CirTorusObj@@UAEPAVVistaDb@@XZ 0041ff90 f calc3dp.obj
 0001:0001efb0       ??ACirTorusObj@@QAEAAV0@W4NavCtrl@@@Z 0041ffb0 f calc3dp.obj
 0001:0001efe0       ??ACirTorusObj@@QAEAAV0@AAVKeyObj@@@Z 0041ffe0 f calc3dp.obj
 0001:0001f010       ??ACirTorusObj@@QAEAAV0@AAVDbAddr@@@Z 00420010 f calc3dp.obj
 0001:0001f040       ??ECirTorusObj@@QAEAAV0@XZ 00420040 f calc3dp.obj
 0001:0001f060       ??FCirTorusObj@@QAEAAV0@XZ 00420060 f calc3dp.obj
 0001:0001f080       ??ECirTorusObj@@QAEAAV0@H@Z 00420080 f calc3dp.obj
 0001:0001f0a0       ??FCirTorusObj@@QAEAAV0@H@Z 004200a0 f calc3dp.obj
 0001:0001f0c0       ?Connect@CirTorusObj@@QAE?AW4T_F@@AAVClassesObj@@H@Z 004200c0 f calc3dp.obj
 0001:0001f0f0       ?GotoSet@CirTorusObj@@QAEAAVStoreObj@@AAVClassesObj@@W4NavCtrl@@H@Z 004200f0 f calc3dp.obj
 0001:0001f120       ?DisConnect@CirTorusObj@@QAE?AW4T_F@@AAVClassesObj@@H@Z 00420120 f calc3dp.obj
 0001:0001f150       ?Set@CirTorusObj@@QAEHAAVClassesObj@@@Z 00420150 f calc3dp.obj
 0001:0001f170       ??6CirTorusObj@@QAEAAVClassesObj@@AAV1@@Z 00420170 f calc3dp.obj
 0001:0001f1a0       ?MemberUsingSet@CirTorusObj@@QAEAAVClassesObj@@AAV2@H@Z 004201a0 f calc3dp.obj
 0001:0001f1d0       ??0CirTorusObj@@QAE@AAV0@@Z 004201d0 f calc3dp.obj
 0001:0001f280       ??4CirTorusObj@@QAEAAV0@AAV0@@Z 00420280 f calc3dp.obj
 0001:0001f2e0       ??_GCirTorusObj@@UAEPAXI@Z 004202e0 f calc3dp.obj
 0001:0001f320       ??_ECirTorusObj@@UAEPAXI@Z 00420320 f calc3dp.obj
 0001:0001f390       ??0ConeObj@@QAE@XZ         00420390 f calc3dp.obj
 0001:0001f400       ??1ConeObj@@UAE@XZ         00420400 f calc3dp.obj
 0001:0001f470       ?RecType@ConeObj@@UAEHXZ   00420470 f calc3dp.obj
 0001:0001f490       ?RecName@ConeObj@@UAEPADXZ 00420490 f calc3dp.obj
 0001:0001f4b0       ?RecDataSize@ConeObj@@UAEJXZ 004204b0 f calc3dp.obj
 0001:0001f4d0       ?_GetDb@ConeObj@@UAEPAVVistaDb@@XZ 004204d0 f calc3dp.obj
 0001:0001f4f0       ??AConeObj@@QAEAAV0@W4NavCtrl@@@Z 004204f0 f calc3dp.obj
 0001:0001f520       ??AConeObj@@QAEAAV0@AAVKeyObj@@@Z 00420520 f calc3dp.obj
 0001:0001f550       ??AConeObj@@QAEAAV0@AAVDbAddr@@@Z 00420550 f calc3dp.obj
 0001:0001f580       ??EConeObj@@QAEAAV0@XZ     00420580 f calc3dp.obj
 0001:0001f5a0       ??FConeObj@@QAEAAV0@XZ     004205a0 f calc3dp.obj
 0001:0001f5c0       ??EConeObj@@QAEAAV0@H@Z    004205c0 f calc3dp.obj
 0001:0001f5e0       ??FConeObj@@QAEAAV0@H@Z    004205e0 f calc3dp.obj
 0001:0001f600       ?Connect@ConeObj@@QAE?AW4T_F@@AAVClassesObj@@H@Z 00420600 f calc3dp.obj
 0001:0001f630       ?GotoSet@ConeObj@@QAEAAVStoreObj@@AAVClassesObj@@W4NavCtrl@@H@Z 00420630 f calc3dp.obj
 0001:0001f660       ?DisConnect@ConeObj@@QAE?AW4T_F@@AAVClassesObj@@H@Z 00420660 f calc3dp.obj
 0001:0001f690       ?Set@ConeObj@@QAEHAAVClassesObj@@@Z 00420690 f calc3dp.obj
 0001:0001f6b0       ??6ConeObj@@QAEAAVClassesObj@@AAV1@@Z 004206b0 f calc3dp.obj
 0001:0001f6e0       ?MemberUsingSet@ConeObj@@QAEAAVClassesObj@@AAV2@H@Z 004206e0 f calc3dp.obj
 0001:0001f710       ??0ConeObj@@QAE@AAV0@@Z    00420710 f calc3dp.obj
 0001:0001f7c0       ??4ConeObj@@QAEAAV0@AAV0@@Z 004207c0 f calc3dp.obj
 0001:0001f820       ??_GConeObj@@UAEPAXI@Z     00420820 f calc3dp.obj
 0001:0001f860       ??_EConeObj@@UAEPAXI@Z     00420860 f calc3dp.obj
 0001:0001f8d0       ??0CylinderObj@@QAE@XZ     004208d0 f calc3dp.obj
 0001:0001f940       ??1CylinderObj@@UAE@XZ     00420940 f calc3dp.obj
 0001:0001f9b0       ?RecType@CylinderObj@@UAEHXZ 004209b0 f calc3dp.obj
 0001:0001f9d0       ?RecName@CylinderObj@@UAEPADXZ 004209d0 f calc3dp.obj
 0001:0001f9f0       ?RecDataSize@CylinderObj@@UAEJXZ 004209f0 f calc3dp.obj
 0001:0001fa10       ?_GetDb@CylinderObj@@UAEPAVVistaDb@@XZ 00420a10 f calc3dp.obj
 0001:0001fa30       ??ACylinderObj@@QAEAAV0@W4NavCtrl@@@Z 00420a30 f calc3dp.obj
 0001:0001fa60       ??ACylinderObj@@QAEAAV0@AAVKeyObj@@@Z 00420a60 f calc3dp.obj
 0001:0001fa90       ??ACylinderObj@@QAEAAV0@AAVDbAddr@@@Z 00420a90 f calc3dp.obj
 0001:0001fac0       ??ECylinderObj@@QAEAAV0@XZ 00420ac0 f calc3dp.obj
 0001:0001fae0       ??FCylinderObj@@QAEAAV0@XZ 00420ae0 f calc3dp.obj
 0001:0001fb00       ??ECylinderObj@@QAEAAV0@H@Z 00420b00 f calc3dp.obj
 0001:0001fb20       ??FCylinderObj@@QAEAAV0@H@Z 00420b20 f calc3dp.obj
 0001:0001fb40       ?Connect@CylinderObj@@QAE?AW4T_F@@AAVClassesObj@@H@Z 00420b40 f calc3dp.obj
 0001:0001fb70       ?GotoSet@CylinderObj@@QAEAAVStoreObj@@AAVClassesObj@@W4NavCtrl@@H@Z 00420b70 f calc3dp.obj
 0001:0001fba0       ?DisConnect@CylinderObj@@QAE?AW4T_F@@AAVClassesObj@@H@Z 00420ba0 f calc3dp.obj
 0001:0001fbd0       ?Set@CylinderObj@@QAEHAAVClassesObj@@@Z 00420bd0 f calc3dp.obj
 0001:0001fbf0       ??6CylinderObj@@QAEAAVClassesObj@@AAV1@@Z 00420bf0 f calc3dp.obj
 0001:0001fc20       ?MemberUsingSet@CylinderObj@@QAEAAVClassesObj@@AAV2@H@Z 00420c20 f calc3dp.obj
 0001:0001fc50       ??0CylinderObj@@QAE@AAV0@@Z 00420c50 f calc3dp.obj
 0001:0001fd00       ??4CylinderObj@@QAEAAV0@AAV0@@Z 00420d00 f calc3dp.obj
 0001:0001fd60       ??_GCylinderObj@@UAEPAXI@Z 00420d60 f calc3dp.obj
 0001:0001fda0       ??_ECylinderObj@@UAEPAXI@Z 00420da0 f calc3dp.obj
 0001:0001fe10       ??0RectTorusObj@@QAE@XZ    00420e10 f calc3dp.obj
 0001:0001fe80       ??1RectTorusObj@@UAE@XZ    00420e80 f calc3dp.obj
 0001:0001fef0       ?RecType@RectTorusObj@@UAEHXZ 00420ef0 f calc3dp.obj
 0001:0001ff10       ?RecName@RectTorusObj@@UAEPADXZ 00420f10 f calc3dp.obj
 0001:0001ff30       ?RecDataSize@RectTorusObj@@UAEJXZ 00420f30 f calc3dp.obj
 0001:0001ff50       ?_GetDb@RectTorusObj@@UAEPAVVistaDb@@XZ 00420f50 f calc3dp.obj
 0001:0001ff70       ??ARectTorusObj@@QAEAAV0@W4NavCtrl@@@Z 00420f70 f calc3dp.obj
 0001:0001ffa0       ??ARectTorusObj@@QAEAAV0@AAVKeyObj@@@Z 00420fa0 f calc3dp.obj
 0001:0001ffd0       ??ARectTorusObj@@QAEAAV0@AAVDbAddr@@@Z 00420fd0 f calc3dp.obj
 0001:00020000       ??ERectTorusObj@@QAEAAV0@XZ 00421000 f calc3dp.obj
 0001:00020020       ??FRectTorusObj@@QAEAAV0@XZ 00421020 f calc3dp.obj
 0001:00020040       ??ERectTorusObj@@QAEAAV0@H@Z 00421040 f calc3dp.obj
 0001:00020060       ??FRectTorusObj@@QAEAAV0@H@Z 00421060 f calc3dp.obj
 0001:00020080       ?Connect@RectTorusObj@@QAE?AW4T_F@@AAVClassesObj@@H@Z 00421080 f calc3dp.obj
 0001:000200b0       ?GotoSet@RectTorusObj@@QAEAAVStoreObj@@AAVClassesObj@@W4NavCtrl@@H@Z 004210b0 f calc3dp.obj
 0001:000200e0       ?DisConnect@RectTorusObj@@QAE?AW4T_F@@AAVClassesObj@@H@Z 004210e0 f calc3dp.obj
 0001:00020110       ?Set@RectTorusObj@@QAEHAAVClassesObj@@@Z 00421110 f calc3dp.obj
 0001:00020130       ??6RectTorusObj@@QAEAAVClassesObj@@AAV1@@Z 00421130 f calc3dp.obj
 0001:00020160       ?MemberUsingSet@RectTorusObj@@QAEAAVClassesObj@@AAV2@H@Z 00421160 f calc3dp.obj
 0001:00020190       ??0RectTorusObj@@QAE@AAV0@@Z 00421190 f calc3dp.obj
 0001:00020240       ??4RectTorusObj@@QAEAAV0@AAV0@@Z 00421240 f calc3dp.obj
 0001:000202a0       ??_GRectTorusObj@@UAEPAXI@Z 004212a0 f calc3dp.obj
 0001:000202e0       ??_ERectTorusObj@@UAEPAXI@Z 004212e0 f calc3dp.obj
 0001:00020350       ??0SphereObj@@QAE@XZ       00421350 f calc3dp.obj
 0001:000203c0       ??1SphereObj@@UAE@XZ       004213c0 f calc3dp.obj
 0001:00020430       ?RecType@SphereObj@@UAEHXZ 00421430 f calc3dp.obj
 0001:00020450       ?RecName@SphereObj@@UAEPADXZ 00421450 f calc3dp.obj
 0001:00020470       ?RecDataSize@SphereObj@@UAEJXZ 00421470 f calc3dp.obj
 0001:00020490       ?_GetDb@SphereObj@@UAEPAVVistaDb@@XZ 00421490 f calc3dp.obj
 0001:000204b0       ??ASphereObj@@QAEAAV0@W4NavCtrl@@@Z 004214b0 f calc3dp.obj
 0001:000204e0       ??ASphereObj@@QAEAAV0@AAVKeyObj@@@Z 004214e0 f calc3dp.obj
 0001:00020510       ??ASphereObj@@QAEAAV0@AAVDbAddr@@@Z 00421510 f calc3dp.obj
 0001:00020540       ??ESphereObj@@QAEAAV0@XZ   00421540 f calc3dp.obj
 0001:00020560       ??FSphereObj@@QAEAAV0@XZ   00421560 f calc3dp.obj
 0001:00020580       ??ESphereObj@@QAEAAV0@H@Z  00421580 f calc3dp.obj
 0001:000205a0       ??FSphereObj@@QAEAAV0@H@Z  004215a0 f calc3dp.obj
 0001:000205c0       ?Connect@SphereObj@@QAE?AW4T_F@@AAVClassesObj@@H@Z 004215c0 f calc3dp.obj
 0001:000205f0       ?GotoSet@SphereObj@@QAEAAVStoreObj@@AAVClassesObj@@W4NavCtrl@@H@Z 004215f0 f calc3dp.obj
 0001:00020620       ?DisConnect@SphereObj@@QAE?AW4T_F@@AAVClassesObj@@H@Z 00421620 f calc3dp.obj
 0001:00020650       ?Set@SphereObj@@QAEHAAVClassesObj@@@Z 00421650 f calc3dp.obj
 0001:00020670       ??6SphereObj@@QAEAAVClassesObj@@AAV1@@Z 00421670 f calc3dp.obj
 0001:000206a0       ?MemberUsingSet@SphereObj@@QAEAAVClassesObj@@AAV2@H@Z 004216a0 f calc3dp.obj
 0001:000206d0       ??0SphereObj@@QAE@AAV0@@Z  004216d0 f calc3dp.obj
 0001:00020780       ??4SphereObj@@QAEAAV0@AAV0@@Z 00421780 f calc3dp.obj
 0001:000207e0       ??_GSphereObj@@UAEPAXI@Z   004217e0 f calc3dp.obj
 0001:00020820       ??_ESphereObj@@UAEPAXI@Z   00421820 f calc3dp.obj
 0001:00020890       ??0PyramidObj@@QAE@XZ      00421890 f calc3dp.obj
 0001:00020900       ??1PyramidObj@@UAE@XZ      00421900 f calc3dp.obj
 0001:00020970       ?RecType@PyramidObj@@UAEHXZ 00421970 f calc3dp.obj
 0001:00020990       ?RecName@PyramidObj@@UAEPADXZ 00421990 f calc3dp.obj
 0001:000209b0       ?RecDataSize@PyramidObj@@UAEJXZ 004219b0 f calc3dp.obj
 0001:000209d0       ?_GetDb@PyramidObj@@UAEPAVVistaDb@@XZ 004219d0 f calc3dp.obj
 0001:000209f0       ??APyramidObj@@QAEAAV0@W4NavCtrl@@@Z 004219f0 f calc3dp.obj
 0001:00020a20       ??APyramidObj@@QAEAAV0@AAVKeyObj@@@Z 00421a20 f calc3dp.obj
 0001:00020a50       ??APyramidObj@@QAEAAV0@AAVDbAddr@@@Z 00421a50 f calc3dp.obj
 0001:00020a80       ??EPyramidObj@@QAEAAV0@XZ  00421a80 f calc3dp.obj
 0001:00020aa0       ??FPyramidObj@@QAEAAV0@XZ  00421aa0 f calc3dp.obj
 0001:00020ac0       ??EPyramidObj@@QAEAAV0@H@Z 00421ac0 f calc3dp.obj
 0001:00020ae0       ??FPyramidObj@@QAEAAV0@H@Z 00421ae0 f calc3dp.obj
 0001:00020b00       ?Connect@PyramidObj@@QAE?AW4T_F@@AAVClassesObj@@H@Z 00421b00 f calc3dp.obj
 0001:00020b30       ?GotoSet@PyramidObj@@QAEAAVStoreObj@@AAVClassesObj@@W4NavCtrl@@H@Z 00421b30 f calc3dp.obj
 0001:00020b60       ?DisConnect@PyramidObj@@QAE?AW4T_F@@AAVClassesObj@@H@Z 00421b60 f calc3dp.obj
 0001:00020b90       ?Set@PyramidObj@@QAEHAAVClassesObj@@@Z 00421b90 f calc3dp.obj
 0001:00020bb0       ??6PyramidObj@@QAEAAVClassesObj@@AAV1@@Z 00421bb0 f calc3dp.obj
 0001:00020be0       ?MemberUsingSet@PyramidObj@@QAEAAVClassesObj@@AAV2@H@Z 00421be0 f calc3dp.obj
 0001:00020c10       ??0PyramidObj@@QAE@AAV0@@Z 00421c10 f calc3dp.obj
 0001:00020cc0       ??4PyramidObj@@QAEAAV0@AAV0@@Z 00421cc0 f calc3dp.obj
 0001:00020d20       ??_GPyramidObj@@UAEPAXI@Z  00421d20 f calc3dp.obj
 0001:00020d60       ??_EPyramidObj@@UAEPAXI@Z  00421d60 f calc3dp.obj
 0001:00020dd0       ??0ComplexObj@@QAE@XZ      00421dd0 f calc3dp.obj
 0001:00020e40       ??1ComplexObj@@UAE@XZ      00421e40 f calc3dp.obj
 0001:00020eb0       ?RecType@ComplexObj@@UAEHXZ 00421eb0 f calc3dp.obj
 0001:00020ed0       ?RecName@ComplexObj@@UAEPADXZ 00421ed0 f calc3dp.obj
 0001:00020ef0       ?RecDataSize@ComplexObj@@UAEJXZ 00421ef0 f calc3dp.obj
 0001:00020f10       ?_GetDb@ComplexObj@@UAEPAVVistaDb@@XZ 00421f10 f calc3dp.obj
 0001:00020f30       ??AComplexObj@@QAEAAV0@W4NavCtrl@@@Z 00421f30 f calc3dp.obj
 0001:00020f60       ??AComplexObj@@QAEAAV0@AAVKeyObj@@@Z 00421f60 f calc3dp.obj
 0001:00020f90       ??AComplexObj@@QAEAAV0@AAVDbAddr@@@Z 00421f90 f calc3dp.obj
 0001:00020fc0       ??EComplexObj@@QAEAAV0@XZ  00421fc0 f calc3dp.obj
 0001:00020fe0       ??FComplexObj@@QAEAAV0@XZ  00421fe0 f calc3dp.obj
 0001:00021000       ??EComplexObj@@QAEAAV0@H@Z 00422000 f calc3dp.obj
 0001:00021020       ??FComplexObj@@QAEAAV0@H@Z 00422020 f calc3dp.obj
 0001:00021040       ??5ComplexObj@@QAEAAVFacesObj@@AAV1@@Z 00422040 f calc3dp.obj
 0001:00021070       ?OwnerUsingSet@ComplexObj@@QAEAAVFacesObj@@AAV2@H@Z 00422070 f calc3dp.obj
 0001:000210a0       ?Members@ComplexObj@@QAEJAAVFacesObj@@H@Z 004220a0 f calc3dp.obj
 0001:000210d0       ?Connect@ComplexObj@@QAE?AW4T_F@@AAVClassesObj@@H@Z 004220d0 f calc3dp.obj
 0001:00021100       ?GotoSet@ComplexObj@@QAEAAVStoreObj@@AAVClassesObj@@W4NavCtrl@@H@Z 00422100 f calc3dp.obj
 0001:00021130       ?DisConnect@ComplexObj@@QAE?AW4T_F@@AAVClassesObj@@H@Z 00422130 f calc3dp.obj
 0001:00021160       ?Set@ComplexObj@@QAEHAAVClassesObj@@@Z 00422160 f calc3dp.obj
 0001:00021180       ??6ComplexObj@@QAEAAVClassesObj@@AAV1@@Z 00422180 f calc3dp.obj
 0001:000211b0       ?MemberUsingSet@ComplexObj@@QAEAAVClassesObj@@AAV2@H@Z 004221b0 f calc3dp.obj
 0001:000211e0       ??0ComplexObj@@QAE@AAV0@@Z 004221e0 f calc3dp.obj
 0001:00021290       ??4ComplexObj@@QAEAAV0@AAV0@@Z 00422290 f calc3dp.obj
 0001:000212f0       ??_GComplexObj@@UAEPAXI@Z  004222f0 f calc3dp.obj
 0001:00021330       ??_EComplexObj@@UAEPAXI@Z  00422330 f calc3dp.obj
 0001:000213a0       ??0FacesObj@@QAE@XZ        004223a0 f calc3dp.obj
 0001:00021410       ??1FacesObj@@UAE@XZ        00422410 f calc3dp.obj
 0001:00021480       ?RecType@FacesObj@@UAEHXZ  00422480 f calc3dp.obj
 0001:000214a0       ?RecName@FacesObj@@UAEPADXZ 004224a0 f calc3dp.obj
 0001:000214c0       ?RecDataSize@FacesObj@@UAEJXZ 004224c0 f calc3dp.obj
 0001:000214e0       ?_GetDb@FacesObj@@UAEPAVVistaDb@@XZ 004224e0 f calc3dp.obj
 0001:00021500       ??AFacesObj@@QAEAAV0@W4NavCtrl@@@Z 00422500 f calc3dp.obj
 0001:00021530       ??AFacesObj@@QAEAAV0@AAVKeyObj@@@Z 00422530 f calc3dp.obj
 0001:00021560       ??AFacesObj@@QAEAAV0@AAVDbAddr@@@Z 00422560 f calc3dp.obj
 0001:00021590       ??EFacesObj@@QAEAAV0@XZ    00422590 f calc3dp.obj
 0001:000215b0       ??FFacesObj@@QAEAAV0@XZ    004225b0 f calc3dp.obj
 0001:000215d0       ??EFacesObj@@QAEAAV0@H@Z   004225d0 f calc3dp.obj
 0001:000215f0       ??FFacesObj@@QAEAAV0@H@Z   004225f0 f calc3dp.obj
 0001:00021610       ??5FacesObj@@QAEAAVVerticesObj@@AAV1@@Z 00422610 f calc3dp.obj
 0001:00021640       ?OwnerUsingSet@FacesObj@@QAEAAVVerticesObj@@AAV2@H@Z 00422640 f calc3dp.obj
 0001:00021670       ?Members@FacesObj@@QAEJAAVVerticesObj@@H@Z 00422670 f calc3dp.obj
 0001:000216a0       ?Connect@FacesObj@@QAE?AW4T_F@@AAVComplexObj@@H@Z 004226a0 f calc3dp.obj
 0001:000216d0       ?GotoSet@FacesObj@@QAEAAVStoreObj@@AAVComplexObj@@W4NavCtrl@@H@Z 004226d0 f calc3dp.obj
 0001:00021700       ?DisConnect@FacesObj@@QAE?AW4T_F@@AAVComplexObj@@H@Z 00422700 f calc3dp.obj
 0001:00021730       ?Set@FacesObj@@QAEHAAVComplexObj@@@Z 00422730 f calc3dp.obj
 0001:00021750       ??6FacesObj@@QAEAAVComplexObj@@AAV1@@Z 00422750 f calc3dp.obj
 0001:00021780       ?MemberUsingSet@FacesObj@@QAEAAVComplexObj@@AAV2@H@Z 00422780 f calc3dp.obj
 0001:000217b0       ??0FacesObj@@QAE@AAV0@@Z   004227b0 f calc3dp.obj
 0001:00021850       ??4FacesObj@@QAEAAV0@AAV0@@Z 00422850 f calc3dp.obj
 0001:000218b0       ??_GFacesObj@@UAEPAXI@Z    004228b0 f calc3dp.obj
 0001:000218f0       ??_EFacesObj@@UAEPAXI@Z    004228f0 f calc3dp.obj
 0001:00021960       ??0VerticesObj@@QAE@XZ     00422960 f calc3dp.obj
 0001:000219d0       ??1VerticesObj@@UAE@XZ     004229d0 f calc3dp.obj
 0001:00021a40       ?RecType@VerticesObj@@UAEHXZ 00422a40 f calc3dp.obj
 0001:00021a60       ?RecName@VerticesObj@@UAEPADXZ 00422a60 f calc3dp.obj
 0001:00021a80       ?RecDataSize@VerticesObj@@UAEJXZ 00422a80 f calc3dp.obj
 0001:00021aa0       ?_GetDb@VerticesObj@@UAEPAVVistaDb@@XZ 00422aa0 f calc3dp.obj
 0001:00021ac0       ??AVerticesObj@@QAEAAV0@W4NavCtrl@@@Z 00422ac0 f calc3dp.obj
 0001:00021af0       ??AVerticesObj@@QAEAAV0@AAVKeyObj@@@Z 00422af0 f calc3dp.obj
 0001:00021b20       ??AVerticesObj@@QAEAAV0@AAVDbAddr@@@Z 00422b20 f calc3dp.obj
 0001:00021b50       ??EVerticesObj@@QAEAAV0@XZ 00422b50 f calc3dp.obj
 0001:00021b70       ??FVerticesObj@@QAEAAV0@XZ 00422b70 f calc3dp.obj
 0001:00021b90       ??EVerticesObj@@QAEAAV0@H@Z 00422b90 f calc3dp.obj
 0001:00021bb0       ??FVerticesObj@@QAEAAV0@H@Z 00422bb0 f calc3dp.obj
 0001:00021bd0       ?Connect@VerticesObj@@QAE?AW4T_F@@AAVFacesObj@@H@Z 00422bd0 f calc3dp.obj
 0001:00021c00       ?GotoSet@VerticesObj@@QAEAAVStoreObj@@AAVFacesObj@@W4NavCtrl@@H@Z 00422c00 f calc3dp.obj
 0001:00021c30       ?DisConnect@VerticesObj@@QAE?AW4T_F@@AAVFacesObj@@H@Z 00422c30 f calc3dp.obj
 0001:00021c60       ?Set@VerticesObj@@QAEHAAVFacesObj@@@Z 00422c60 f calc3dp.obj
 0001:00021c80       ??6VerticesObj@@QAEAAVFacesObj@@AAV1@@Z 00422c80 f calc3dp.obj
 0001:00021cb0       ?MemberUsingSet@VerticesObj@@QAEAAVFacesObj@@AAV2@H@Z 00422cb0 f calc3dp.obj
 0001:00021ce0       ??0VerticesObj@@QAE@AAV0@@Z 00422ce0 f calc3dp.obj
 0001:00021d90       ??4VerticesObj@@QAEAAV0@AAV0@@Z 00422d90 f calc3dp.obj
 0001:00021df0       ??_GVerticesObj@@UAEPAXI@Z 00422df0 f calc3dp.obj
 0001:00021e30       ??_EVerticesObj@@UAEPAXI@Z 00422e30 f calc3dp.obj
 0001:00021ea0       ??0PointObj@@QAE@XZ        00422ea0 f calc3dp.obj
 0001:00021f10       ??1PointObj@@UAE@XZ        00422f10 f calc3dp.obj
 0001:00021f80       ?RecType@PointObj@@UAEHXZ  00422f80 f calc3dp.obj
 0001:00021fa0       ?RecName@PointObj@@UAEPADXZ 00422fa0 f calc3dp.obj
 0001:00021fc0       ?RecDataSize@PointObj@@UAEJXZ 00422fc0 f calc3dp.obj
 0001:00021fe0       ?_GetDb@PointObj@@UAEPAVVistaDb@@XZ 00422fe0 f calc3dp.obj
 0001:00022000       ??APointObj@@QAEAAV0@W4NavCtrl@@@Z 00423000 f calc3dp.obj
 0001:00022030       ??APointObj@@QAEAAV0@AAVKeyObj@@@Z 00423030 f calc3dp.obj
 0001:00022060       ??APointObj@@QAEAAV0@AAVDbAddr@@@Z 00423060 f calc3dp.obj
 0001:00022090       ??EPointObj@@QAEAAV0@XZ    00423090 f calc3dp.obj
 0001:000220b0       ??FPointObj@@QAEAAV0@XZ    004230b0 f calc3dp.obj
 0001:000220d0       ??EPointObj@@QAEAAV0@H@Z   004230d0 f calc3dp.obj
 0001:000220f0       ??FPointObj@@QAEAAV0@H@Z   004230f0 f calc3dp.obj
 0001:00022110       ?Connect@PointObj@@QAE?AW4T_F@@AAVClassesObj@@H@Z 00423110 f calc3dp.obj
 0001:00022140       ?GotoSet@PointObj@@QAEAAVStoreObj@@AAVClassesObj@@W4NavCtrl@@H@Z 00423140 f calc3dp.obj
 0001:00022170       ?DisConnect@PointObj@@QAE?AW4T_F@@AAVClassesObj@@H@Z 00423170 f calc3dp.obj
 0001:000221a0       ?Set@PointObj@@QAEHAAVClassesObj@@@Z 004231a0 f calc3dp.obj
 0001:000221c0       ??6PointObj@@QAEAAVClassesObj@@AAV1@@Z 004231c0 f calc3dp.obj
 0001:000221f0       ?MemberUsingSet@PointObj@@QAEAAVClassesObj@@AAV2@H@Z 004231f0 f calc3dp.obj
 0001:00022220       ??0PointObj@@QAE@AAV0@@Z   00423220 f calc3dp.obj
 0001:000222d0       ??4PointObj@@QAEAAV0@AAV0@@Z 004232d0 f calc3dp.obj
 0001:00022330       ??_GPointObj@@UAEPAXI@Z    00423330 f calc3dp.obj
 0001:00022370       ??_EPointObj@@UAEPAXI@Z    00423370 f calc3dp.obj
 0001:000223e0       ??0LineObj@@QAE@XZ         004233e0 f calc3dp.obj
 0001:00022450       ??1LineObj@@UAE@XZ         00423450 f calc3dp.obj
 0001:000224c0       ?RecType@LineObj@@UAEHXZ   004234c0 f calc3dp.obj
 0001:000224e0       ?RecName@LineObj@@UAEPADXZ 004234e0 f calc3dp.obj
 0001:00022500       ?RecDataSize@LineObj@@UAEJXZ 00423500 f calc3dp.obj
 0001:00022520       ?_GetDb@LineObj@@UAEPAVVistaDb@@XZ 00423520 f calc3dp.obj
 0001:00022540       ??ALineObj@@QAEAAV0@W4NavCtrl@@@Z 00423540 f calc3dp.obj
 0001:00022570       ??ALineObj@@QAEAAV0@AAVKeyObj@@@Z 00423570 f calc3dp.obj
 0001:000225a0       ??ALineObj@@QAEAAV0@AAVDbAddr@@@Z 004235a0 f calc3dp.obj
 0001:000225d0       ??ELineObj@@QAEAAV0@XZ     004235d0 f calc3dp.obj
 0001:000225f0       ??FLineObj@@QAEAAV0@XZ     004235f0 f calc3dp.obj
 0001:00022610       ??ELineObj@@QAEAAV0@H@Z    00423610 f calc3dp.obj
 0001:00022630       ??FLineObj@@QAEAAV0@H@Z    00423630 f calc3dp.obj
 0001:00022650       ?Connect@LineObj@@QAE?AW4T_F@@AAVClassesObj@@H@Z 00423650 f calc3dp.obj
 0001:00022680       ?GotoSet@LineObj@@QAEAAVStoreObj@@AAVClassesObj@@W4NavCtrl@@H@Z 00423680 f calc3dp.obj
 0001:000226b0       ?DisConnect@LineObj@@QAE?AW4T_F@@AAVClassesObj@@H@Z 004236b0 f calc3dp.obj
 0001:000226e0       ?Set@LineObj@@QAEHAAVClassesObj@@@Z 004236e0 f calc3dp.obj
 0001:00022700       ??6LineObj@@QAEAAVClassesObj@@AAV1@@Z 00423700 f calc3dp.obj
 0001:00022730       ?MemberUsingSet@LineObj@@QAEAAVClassesObj@@AAV2@H@Z 00423730 f calc3dp.obj
 0001:00022760       ??0LineObj@@QAE@AAV0@@Z    00423760 f calc3dp.obj
 0001:00022810       ??4LineObj@@QAEAAV0@AAV0@@Z 00423810 f calc3dp.obj
 0001:00022870       ??_GLineObj@@UAEPAXI@Z     00423870 f calc3dp.obj
 0001:000228b0       ??_ELineObj@@UAEPAXI@Z     004238b0 f calc3dp.obj
 0001:00022920       ??0SystemObj@@QAE@XZ       00423920 f calc3dp.obj
 0001:000229a0       ?RecType@SystemObj@@UAEHXZ 004239a0 f calc3dp.obj
 0001:000229c0       ?RecName@SystemObj@@UAEPADXZ 004239c0 f calc3dp.obj
 0001:000229e0       ?_GetDb@SystemObj@@UAEPAVVistaDb@@XZ 004239e0 f calc3dp.obj
 0001:00022a00       ??5SystemObj@@QAEAAVClassesObj@@AAV1@@Z 00423a00 f calc3dp.obj
 0001:00022a30       ?OwnerUsingSet@SystemObj@@QAEAAVClassesObj@@AAV2@H@Z 00423a30 f calc3dp.obj
 0001:00022a60       ?Members@SystemObj@@QAEJAAVClassesObj@@H@Z 00423a60 f calc3dp.obj
 0001:00022a90       ??0SystemObj@@QAE@AAV0@@Z  00423a90 f calc3dp.obj
 0001:00022b10       ??4SystemObj@@QAEAAV0@AAV0@@Z 00423b10 f calc3dp.obj
 0001:00022b40       ??1SystemObj@@UAE@XZ       00423b40 f calc3dp.obj
 0001:00022ba0       ??_GSystemObj@@UAEPAXI@Z   00423ba0 f calc3dp.obj
 0001:00022be0       ??_ESystemObj@@UAEPAXI@Z   00423be0 f calc3dp.obj
 0001:00022c50       ??0Classes_type_KeyObj@@QAE@XZ 00423c50 f calc3dp.obj
 0001:00022c90       ??1Classes_type_KeyObj@@UAE@XZ 00423c90 f calc3dp.obj
 0001:00022cb0       ??0Classes_type_KeyObj@@QAE@ABV0@@Z 00423cb0 f calc3dp.obj
 0001:00022d20       ??4Classes_type_KeyObj@@QAEAAV0@ABV0@@Z 00423d20 f calc3dp.obj
 0001:00022d80       ??_GClasses_type_KeyObj@@UAEPAXI@Z 00423d80 f calc3dp.obj
 0001:00022dc0       ??_EClasses_type_KeyObj@@UAEPAXI@Z 00423dc0 f calc3dp.obj
 0001:00022e30       ??0Classes_name_KeyObj@@QAE@XZ 00423e30 f calc3dp.obj
 0001:00022e70       ??1Classes_name_KeyObj@@UAE@XZ 00423e70 f calc3dp.obj
 0001:00022e90       ??0Classes_name_KeyObj@@QAE@ABV0@@Z 00423e90 f calc3dp.obj
 0001:00022f00       ??4Classes_name_KeyObj@@QAEAAV0@ABV0@@Z 00423f00 f calc3dp.obj
 0001:00022f80       ??_GClasses_name_KeyObj@@UAEPAXI@Z 00423f80 f calc3dp.obj
 0001:00022fc0       ??_EClasses_name_KeyObj@@UAEPAXI@Z 00423fc0 f calc3dp.obj
 0001:00023030       ??0Groups_name_KeyObj@@QAE@XZ 00424030 f calc3dp.obj
 0001:00023070       ??1Groups_name_KeyObj@@UAE@XZ 00424070 f calc3dp.obj
 0001:00023090       ??0Groups_name_KeyObj@@QAE@ABV0@@Z 00424090 f calc3dp.obj
 0001:00023100       ??4Groups_name_KeyObj@@QAEAAV0@ABV0@@Z 00424100 f calc3dp.obj
 0001:00023180       ??_GGroups_name_KeyObj@@UAEPAXI@Z 00424180 f calc3dp.obj
 0001:000231c0       ??_EGroups_name_KeyObj@@UAEPAXI@Z 004241c0 f calc3dp.obj
 0001:00023230       ??0rvqLiteDb@@QAE@XZ       00424230 f calc3dp.obj
 0001:000232b0       ?MakeCurrent@rvqLiteDb@@UAEXXZ 004242b0 f calc3dp.obj
 0001:000232d0       ??0rvqLiteDb@@QAE@ABV0@@Z  004242d0 f calc3dp.obj
 0001:00023350       ??4rvqLiteDb@@QAEAAV0@ABV0@@Z 00424350 f calc3dp.obj
 0001:00023380       ??1rvqLiteDb@@UAE@XZ       00424380 f calc3dp.obj
 0001:000233e0       ??_GrvqLiteDb@@UAEPAXI@Z   004243e0 f calc3dp.obj
 0001:00023420       ??_ErvqLiteDb@@UAEPAXI@Z   00424420 f calc3dp.obj
 0001:000234a0       ??0equipObj@@QAE@XZ        004244a0 f calc3dp.obj
 0001:00023530       ??1equipObj@@UAE@XZ        00424530 f calc3dp.obj
 0001:000235a0       ?RecType@equipObj@@UAEHXZ  004245a0 f calc3dp.obj
 0001:000235c0       ?RecName@equipObj@@UAEPADXZ 004245c0 f calc3dp.obj
 0001:000235e0       ?TotalSize@equipObj@@UAEJXZ 004245e0 f calc3dp.obj
 0001:00023600       ?MakeEmpty@equipObj@@QAEXXZ 00424600 f calc3dp.obj
 0001:00023640       ?RecData@equipObj@@UAEPAXXZ 00424640 f calc3dp.obj
 0001:00023660       ?_GetDb@equipObj@@UAEPAVVistaDb@@XZ 00424660 f calc3dp.obj
 0001:00023680       ??AequipObj@@QAEAAV0@W4NavCtrl@@@Z 00424680 f calc3dp.obj
 0001:000236b0       ??AequipObj@@QAEAAV0@AAVKeyObj@@@Z 004246b0 f calc3dp.obj
 0001:000236e0       ??AequipObj@@QAEAAV0@AAVDbAddr@@@Z 004246e0 f calc3dp.obj
 0001:00023710       ??EequipObj@@QAEAAV0@XZ    00424710 f calc3dp.obj
 0001:00023730       ??FequipObj@@QAEAAV0@XZ    00424730 f calc3dp.obj
 0001:00023750       ??EequipObj@@QAEAAV0@H@Z   00424750 f calc3dp.obj
 0001:00023770       ??FequipObj@@QAEAAV0@H@Z   00424770 f calc3dp.obj
 0001:00023790       ??5equipObj@@QAEAAVeq_docs_intObj@@AAV1@@Z 00424790 f calc3dp.obj
 0001:000237c0       ?OwnerUsingSet@equipObj@@QAEAAVeq_docs_intObj@@AAV2@H@Z 004247c0 f calc3dp.obj
 0001:000237f0       ?Members@equipObj@@QAEJAAVeq_docs_intObj@@H@Z 004247f0 f calc3dp.obj
 0001:00023820       ??5equipObj@@QAEAAVprogressObj@@AAV1@@Z 00424820 f calc3dp.obj
 0001:00023850       ?OwnerUsingSet@equipObj@@QAEAAVprogressObj@@AAV2@H@Z 00424850 f calc3dp.obj
 0001:00023880       ?Members@equipObj@@QAEJAAVprogressObj@@H@Z 00424880 f calc3dp.obj
 0001:000238b0       ??5equipObj@@QAEAAVeq_mproc_intObj@@AAV1@@Z 004248b0 f calc3dp.obj
 0001:000238e0       ?OwnerUsingSet@equipObj@@QAEAAVeq_mproc_intObj@@AAV2@H@Z 004248e0 f calc3dp.obj
 0001:00023910       ?Members@equipObj@@QAEJAAVeq_mproc_intObj@@H@Z 00424910 f calc3dp.obj
 0001:00023940       ??5equipObj@@QAEAAVmhistObj@@AAV1@@Z 00424940 f calc3dp.obj
 0001:00023970       ?OwnerUsingSet@equipObj@@QAEAAVmhistObj@@AAV2@H@Z 00424970 f calc3dp.obj
 0001:000239a0       ?Members@equipObj@@QAEJAAVmhistObj@@H@Z 004249a0 f calc3dp.obj
 0001:000239d0       ??5equipObj@@QAEAAVeq_parts_intObj@@AAV1@@Z 004249d0 f calc3dp.obj
 0001:00023a00       ?OwnerUsingSet@equipObj@@QAEAAVeq_parts_intObj@@AAV2@H@Z 00424a00 f calc3dp.obj
 0001:00023a30       ?Members@equipObj@@QAEJAAVeq_parts_intObj@@H@Z 00424a30 f calc3dp.obj
 0001:00023a60       ??5equipObj@@QAEAAV0@AAV0@@Z 00424a60 f calc3dp.obj
 0001:00023a90       ?OwnerUsingSet@equipObj@@QAEAAV1@AAV1@H@Z 00424a90 f calc3dp.obj
 0001:00023ac0       ?Members@equipObj@@QAEJAAV1@H@Z 00424ac0 f calc3dp.obj
 0001:00023af0       ??5equipObj@@QAEAAVimage_equip_boxObj@@AAV1@@Z 00424af0 f calc3dp.obj
 0001:00023b20       ?OwnerUsingSet@equipObj@@QAEAAVimage_equip_boxObj@@AAV2@H@Z 00424b20 f calc3dp.obj
 0001:00023b50       ?Members@equipObj@@QAEJAAVimage_equip_boxObj@@H@Z 00424b50 f calc3dp.obj
 0001:00023b80       ?Connect@equipObj@@QAE?AW4T_F@@AAVcommsysObj@@H@Z 00424b80 f calc3dp.obj
 0001:00023bb0       ?GotoSet@equipObj@@QAEAAVStoreObj@@AAVcommsysObj@@W4NavCtrl@@H@Z 00424bb0 f calc3dp.obj
 0001:00023be0       ?DisConnect@equipObj@@QAE?AW4T_F@@AAVcommsysObj@@H@Z 00424be0 f calc3dp.obj
 0001:00023c10       ?Set@equipObj@@QAEHAAVcommsysObj@@@Z 00424c10 f calc3dp.obj
 0001:00023c30       ??6equipObj@@QAEAAVcommsysObj@@AAV1@@Z 00424c30 f calc3dp.obj
 0001:00023c60       ?MemberUsingSet@equipObj@@QAEAAVcommsysObj@@AAV2@H@Z 00424c60 f calc3dp.obj
 0001:00023c90       ?Connect@equipObj@@QAE?AW4T_F@@AAV1@H@Z 00424c90 f calc3dp.obj
 0001:00023cc0       ?GotoSet@equipObj@@QAEAAVStoreObj@@AAV1@W4NavCtrl@@H@Z 00424cc0 f calc3dp.obj
 0001:00023cf0       ?DisConnect@equipObj@@QAE?AW4T_F@@AAV1@H@Z 00424cf0 f calc3dp.obj
 0001:00023d20       ?Set@equipObj@@QAEHAAV1@@Z 00424d20 f calc3dp.obj
 0001:00023d40       ??6equipObj@@QAEAAV0@AAV0@@Z 00424d40 f calc3dp.obj
 0001:00023d70       ?MemberUsingSet@equipObj@@QAEAAV1@AAV1@H@Z 00424d70 f calc3dp.obj
 0001:00023da0       ?Connect@equipObj@@QAE?AW4T_F@@AAVvendorObj@@H@Z 00424da0 f calc3dp.obj
 0001:00023dd0       ?GotoSet@equipObj@@QAEAAVStoreObj@@AAVvendorObj@@W4NavCtrl@@H@Z 00424dd0 f calc3dp.obj
 0001:00023e00       ?DisConnect@equipObj@@QAE?AW4T_F@@AAVvendorObj@@H@Z 00424e00 f calc3dp.obj
 0001:00023e30       ?Set@equipObj@@QAEHAAVvendorObj@@@Z 00424e30 f calc3dp.obj
 0001:00023e50       ??6equipObj@@QAEAAVvendorObj@@AAV1@@Z 00424e50 f calc3dp.obj
 0001:00023e80       ?MemberUsingSet@equipObj@@QAEAAVvendorObj@@AAV2@H@Z 00424e80 f calc3dp.obj
 0001:00023eb0       ??0equipObj@@QAE@AAV0@@Z   00424eb0 f calc3dp.obj
 0001:00023f60       ??4equipObj@@QAEAAV0@AAV0@@Z 00424f60 f calc3dp.obj
 0001:00023fc0       ??_GequipObj@@UAEPAXI@Z    00424fc0 f calc3dp.obj
 0001:00024000       ??_EequipObj@@UAEPAXI@Z    00425000 f calc3dp.obj
 0001:00024080       ??0engdocObj@@QAE@XZ       00425080 f calc3dp.obj
 0001:00024110       ??1engdocObj@@UAE@XZ       00425110 f calc3dp.obj
 0001:00024180       ?RecType@engdocObj@@UAEHXZ 00425180 f calc3dp.obj
 0001:000241a0       ?RecName@engdocObj@@UAEPADXZ 004251a0 f calc3dp.obj
 0001:000241c0       ?TotalSize@engdocObj@@UAEJXZ 004251c0 f calc3dp.obj
 0001:000241e0       ?MakeEmpty@engdocObj@@QAEXXZ 004251e0 f calc3dp.obj
 0001:00024220       ?RecData@engdocObj@@UAEPAXXZ 00425220 f calc3dp.obj
 0001:00024240       ?_GetDb@engdocObj@@UAEPAVVistaDb@@XZ 00425240 f calc3dp.obj
 0001:00024260       ??AengdocObj@@QAEAAV0@W4NavCtrl@@@Z 00425260 f calc3dp.obj
 0001:00024290       ??AengdocObj@@QAEAAV0@AAVKeyObj@@@Z 00425290 f calc3dp.obj
 0001:000242c0       ??AengdocObj@@QAEAAV0@AAVDbAddr@@@Z 004252c0 f calc3dp.obj
 0001:000242f0       ??EengdocObj@@QAEAAV0@XZ   004252f0 f calc3dp.obj
 0001:00024310       ??FengdocObj@@QAEAAV0@XZ   00425310 f calc3dp.obj
 0001:00024330       ??EengdocObj@@QAEAAV0@H@Z  00425330 f calc3dp.obj
 0001:00024350       ??FengdocObj@@QAEAAV0@H@Z  00425350 f calc3dp.obj
 0001:00024370       ??5engdocObj@@QAEAAVeq_docs_intObj@@AAV1@@Z 00425370 f calc3dp.obj
 0001:000243a0       ?OwnerUsingSet@engdocObj@@QAEAAVeq_docs_intObj@@AAV2@H@Z 004253a0 f calc3dp.obj
 0001:000243d0       ?Members@engdocObj@@QAEJAAVeq_docs_intObj@@H@Z 004253d0 f calc3dp.obj
 0001:00024400       ??5engdocObj@@QAEAAVparts_docs_intObj@@AAV1@@Z 00425400 f calc3dp.obj
 0001:00024430       ?OwnerUsingSet@engdocObj@@QAEAAVparts_docs_intObj@@AAV2@H@Z 00425430 f calc3dp.obj
 0001:00024460       ?Members@engdocObj@@QAEJAAVparts_docs_intObj@@H@Z 00425460 f calc3dp.obj
 0001:00024490       ??0engdocObj@@QAE@AAV0@@Z  00425490 f calc3dp.obj
 0001:00024540       ??4engdocObj@@QAEAAV0@AAV0@@Z 00425540 f calc3dp.obj
 0001:000245a0       ??_GengdocObj@@UAEPAXI@Z   004255a0 f calc3dp.obj
 0001:000245e0       ??_EengdocObj@@UAEPAXI@Z   004255e0 f calc3dp.obj
 0001:00024660       ??0progressObj@@QAE@XZ     00425660 f calc3dp.obj
 0001:000246e0       ??1progressObj@@UAE@XZ     004256e0 f calc3dp.obj
 0001:00024750       ?RecType@progressObj@@UAEHXZ 00425750 f calc3dp.obj
 0001:00024770       ?RecName@progressObj@@UAEPADXZ 00425770 f calc3dp.obj
 0001:00024790       ?TotalSize@progressObj@@UAEJXZ 00425790 f calc3dp.obj
 0001:000247b0       ?MakeEmpty@progressObj@@QAEXXZ 004257b0 f calc3dp.obj
 0001:000247f0       ?RecData@progressObj@@UAEPAXXZ 004257f0 f calc3dp.obj
 0001:00024810       ?_GetDb@progressObj@@UAEPAVVistaDb@@XZ 00425810 f calc3dp.obj
 0001:00024830       ??AprogressObj@@QAEAAV0@W4NavCtrl@@@Z 00425830 f calc3dp.obj
 0001:00024860       ??AprogressObj@@QAEAAV0@AAVKeyObj@@@Z 00425860 f calc3dp.obj
 0001:00024890       ??AprogressObj@@QAEAAV0@AAVDbAddr@@@Z 00425890 f calc3dp.obj
 0001:000248c0       ??EprogressObj@@QAEAAV0@XZ 004258c0 f calc3dp.obj
 0001:000248e0       ??FprogressObj@@QAEAAV0@XZ 004258e0 f calc3dp.obj
 0001:00024900       ??EprogressObj@@QAEAAV0@H@Z 00425900 f calc3dp.obj
 0001:00024920       ??FprogressObj@@QAEAAV0@H@Z 00425920 f calc3dp.obj
 0001:00024940       ?Connect@progressObj@@QAE?AW4T_F@@AAVequipObj@@H@Z 00425940 f calc3dp.obj
 0001:00024970       ?GotoSet@progressObj@@QAEAAVStoreObj@@AAVequipObj@@W4NavCtrl@@H@Z 00425970 f calc3dp.obj
 0001:000249a0       ?DisConnect@progressObj@@QAE?AW4T_F@@AAVequipObj@@H@Z 004259a0 f calc3dp.obj
 0001:000249d0       ?Set@progressObj@@QAEHAAVequipObj@@@Z 004259d0 f calc3dp.obj
 0001:000249f0       ??6progressObj@@QAEAAVequipObj@@AAV1@@Z 004259f0 f calc3dp.obj
 0001:00024a20       ?MemberUsingSet@progressObj@@QAEAAVequipObj@@AAV2@H@Z 00425a20 f calc3dp.obj
 0001:00024a50       ??0progressObj@@QAE@AAV0@@Z 00425a50 f calc3dp.obj
 0001:00024b00       ??4progressObj@@QAEAAV0@AAV0@@Z 00425b00 f calc3dp.obj
 0001:00024b60       ??_GprogressObj@@UAEPAXI@Z 00425b60 f calc3dp.obj
 0001:00024ba0       ??_EprogressObj@@UAEPAXI@Z 00425ba0 f calc3dp.obj
 0001:00024c10       ??0mprocObj@@QAE@XZ        00425c10 f calc3dp.obj
 0001:00024ca0       ??1mprocObj@@UAE@XZ        00425ca0 f calc3dp.obj
 0001:00024d10       ?RecType@mprocObj@@UAEHXZ  00425d10 f calc3dp.obj
 0001:00024d30       ?RecName@mprocObj@@UAEPADXZ 00425d30 f calc3dp.obj
 0001:00024d50       ?TotalSize@mprocObj@@UAEJXZ 00425d50 f calc3dp.obj
 0001:00024d70       ?MakeEmpty@mprocObj@@QAEXXZ 00425d70 f calc3dp.obj
 0001:00024db0       ?RecData@mprocObj@@UAEPAXXZ 00425db0 f calc3dp.obj
 0001:00024dd0       ?_GetDb@mprocObj@@UAEPAVVistaDb@@XZ 00425dd0 f calc3dp.obj
 0001:00024df0       ??AmprocObj@@QAEAAV0@W4NavCtrl@@@Z 00425df0 f calc3dp.obj
 0001:00024e20       ??AmprocObj@@QAEAAV0@AAVKeyObj@@@Z 00425e20 f calc3dp.obj
 0001:00024e50       ??AmprocObj@@QAEAAV0@AAVDbAddr@@@Z 00425e50 f calc3dp.obj
 0001:00024e80       ??EmprocObj@@QAEAAV0@XZ    00425e80 f calc3dp.obj
 0001:00024ea0       ??FmprocObj@@QAEAAV0@XZ    00425ea0 f calc3dp.obj
 0001:00024ec0       ??EmprocObj@@QAEAAV0@H@Z   00425ec0 f calc3dp.obj
 0001:00024ee0       ??FmprocObj@@QAEAAV0@H@Z   00425ee0 f calc3dp.obj
 0001:00024f00       ??5mprocObj@@QAEAAVeq_mproc_intObj@@AAV1@@Z 00425f00 f calc3dp.obj
 0001:00024f30       ?OwnerUsingSet@mprocObj@@QAEAAVeq_mproc_intObj@@AAV2@H@Z 00425f30 f calc3dp.obj
 0001:00024f60       ?Members@mprocObj@@QAEJAAVeq_mproc_intObj@@H@Z 00425f60 f calc3dp.obj
 0001:00024f90       ??5mprocObj@@QAEAAVmhist_mproc_intObj@@AAV1@@Z 00425f90 f calc3dp.obj
 0001:00024fc0       ?OwnerUsingSet@mprocObj@@QAEAAVmhist_mproc_intObj@@AAV2@H@Z 00425fc0 f calc3dp.obj
 0001:00024ff0       ?Members@mprocObj@@QAEJAAVmhist_mproc_intObj@@H@Z 00425ff0 f calc3dp.obj
 0001:00025020       ??0mprocObj@@QAE@AAV0@@Z   00426020 f calc3dp.obj
 0001:000250d0       ??4mprocObj@@QAEAAV0@AAV0@@Z 004260d0 f calc3dp.obj
 0001:00025130       ??_GmprocObj@@UAEPAXI@Z    00426130 f calc3dp.obj
 0001:00025170       ??_EmprocObj@@UAEPAXI@Z    00426170 f calc3dp.obj
 0001:000251f0       ??0mhistObj@@QAE@XZ        004261f0 f calc3dp.obj
 0001:00025280       ??1mhistObj@@UAE@XZ        00426280 f calc3dp.obj
 0001:000252f0       ?RecType@mhistObj@@UAEHXZ  004262f0 f calc3dp.obj
 0001:00025310       ?RecName@mhistObj@@UAEPADXZ 00426310 f calc3dp.obj
 0001:00025330       ?TotalSize@mhistObj@@UAEJXZ 00426330 f calc3dp.obj
 0001:00025350       ?MakeEmpty@mhistObj@@QAEXXZ 00426350 f calc3dp.obj
 0001:00025390       ?RecData@mhistObj@@UAEPAXXZ 00426390 f calc3dp.obj
 0001:000253b0       ?_GetDb@mhistObj@@UAEPAVVistaDb@@XZ 004263b0 f calc3dp.obj
 0001:000253d0       ??AmhistObj@@QAEAAV0@W4NavCtrl@@@Z 004263d0 f calc3dp.obj
 0001:00025400       ??AmhistObj@@QAEAAV0@AAVKeyObj@@@Z 00426400 f calc3dp.obj
 0001:00025430       ??AmhistObj@@QAEAAV0@AAVDbAddr@@@Z 00426430 f calc3dp.obj
 0001:00025460       ??EmhistObj@@QAEAAV0@XZ    00426460 f calc3dp.obj
 0001:00025480       ??FmhistObj@@QAEAAV0@XZ    00426480 f calc3dp.obj
 0001:000254a0       ??EmhistObj@@QAEAAV0@H@Z   004264a0 f calc3dp.obj
 0001:000254c0       ??FmhistObj@@QAEAAV0@H@Z   004264c0 f calc3dp.obj
 0001:000254e0       ??5mhistObj@@QAEAAVmhist_mproc_intObj@@AAV1@@Z 004264e0 f calc3dp.obj
 0001:00025510       ?OwnerUsingSet@mhistObj@@QAEAAVmhist_mproc_intObj@@AAV2@H@Z 00426510 f calc3dp.obj
 0001:00025540       ?Members@mhistObj@@QAEJAAVmhist_mproc_intObj@@H@Z 00426540 f calc3dp.obj
 0001:00025570       ?Connect@mhistObj@@QAE?AW4T_F@@AAVequipObj@@H@Z 00426570 f calc3dp.obj
 0001:000255a0       ?GotoSet@mhistObj@@QAEAAVStoreObj@@AAVequipObj@@W4NavCtrl@@H@Z 004265a0 f calc3dp.obj
 0001:000255d0       ?DisConnect@mhistObj@@QAE?AW4T_F@@AAVequipObj@@H@Z 004265d0 f calc3dp.obj
 0001:00025600       ?Set@mhistObj@@QAEHAAVequipObj@@@Z 00426600 f calc3dp.obj
 0001:00025620       ??6mhistObj@@QAEAAVequipObj@@AAV1@@Z 00426620 f calc3dp.obj
 0001:00025650       ?MemberUsingSet@mhistObj@@QAEAAVequipObj@@AAV2@H@Z 00426650 f calc3dp.obj
 0001:00025680       ??0mhistObj@@QAE@AAV0@@Z   00426680 f calc3dp.obj
 0001:00025730       ??4mhistObj@@QAEAAV0@AAV0@@Z 00426730 f calc3dp.obj
 0001:00025790       ??_GmhistObj@@UAEPAXI@Z    00426790 f calc3dp.obj
 0001:000257d0       ??_EmhistObj@@UAEPAXI@Z    004267d0 f calc3dp.obj
 0001:00025850       ??0mhist_mproc_intObj@@QAE@XZ 00426850 f calc3dp.obj
 0001:000258d0       ??0mhist_mproc_intObj@@QAE@AAVSetObj@@@Z 004268d0 f calc3dp.obj
 0001:00025950       ??0mhist_mproc_intObj@@QAE@AAVmprocObj@@@Z 00426950 f calc3dp.obj
 0001:000259e0       ??0mhist_mproc_intObj@@QAE@AAVmhistObj@@@Z 004269e0 f calc3dp.obj
 0001:00025a70       ??1mhist_mproc_intObj@@UAE@XZ 00426a70 f calc3dp.obj
 0001:00025ae0       ?RecType@mhist_mproc_intObj@@UAEHXZ 00426ae0 f calc3dp.obj
 0001:00025b00       ?RecName@mhist_mproc_intObj@@UAEPADXZ 00426b00 f calc3dp.obj
 0001:00025b20       ?_GetDb@mhist_mproc_intObj@@UAEPAVVistaDb@@XZ 00426b20 f calc3dp.obj
 0001:00025b40       ??Amhist_mproc_intObj@@QAEAAV0@W4NavCtrl@@@Z 00426b40 f calc3dp.obj
 0001:00025b70       ??Amhist_mproc_intObj@@QAEAAV0@AAVKeyObj@@@Z 00426b70 f calc3dp.obj
 0001:00025ba0       ??Amhist_mproc_intObj@@QAEAAV0@AAVDbAddr@@@Z 00426ba0 f calc3dp.obj
 0001:00025bd0       ??Emhist_mproc_intObj@@QAEAAV0@XZ 00426bd0 f calc3dp.obj
 0001:00025bf0       ??Fmhist_mproc_intObj@@QAEAAV0@XZ 00426bf0 f calc3dp.obj
 0001:00025c10       ??Emhist_mproc_intObj@@QAEAAV0@H@Z 00426c10 f calc3dp.obj
 0001:00025c30       ??Fmhist_mproc_intObj@@QAEAAV0@H@Z 00426c30 f calc3dp.obj
 0001:00025c50       ?Connect@mhist_mproc_intObj@@QAE?AW4T_F@@AAVmprocObj@@H@Z 00426c50 f calc3dp.obj
 0001:00025c80       ?GotoSet@mhist_mproc_intObj@@QAEAAVStoreObj@@AAVmprocObj@@W4NavCtrl@@H@Z 00426c80 f calc3dp.obj
 0001:00025cb0       ?DisConnect@mhist_mproc_intObj@@QAE?AW4T_F@@AAVmprocObj@@H@Z 00426cb0 f calc3dp.obj
 0001:00025ce0       ?Set@mhist_mproc_intObj@@QAEHAAVmprocObj@@@Z 00426ce0 f calc3dp.obj
 0001:00025d00       ??6mhist_mproc_intObj@@QAEAAVmprocObj@@AAV1@@Z 00426d00 f calc3dp.obj
 0001:00025d30       ?MemberUsingSet@mhist_mproc_intObj@@QAEAAVmprocObj@@AAV2@H@Z 00426d30 f calc3dp.obj
 0001:00025d60       ?Connect@mhist_mproc_intObj@@QAE?AW4T_F@@AAVmhistObj@@H@Z 00426d60 f calc3dp.obj
 0001:00025d90       ?GotoSet@mhist_mproc_intObj@@QAEAAVStoreObj@@AAVmhistObj@@W4NavCtrl@@H@Z 00426d90 f calc3dp.obj
 0001:00025dc0       ?DisConnect@mhist_mproc_intObj@@QAE?AW4T_F@@AAVmhistObj@@H@Z 00426dc0 f calc3dp.obj
 0001:00025df0       ?Set@mhist_mproc_intObj@@QAEHAAVmhistObj@@@Z 00426df0 f calc3dp.obj
 0001:00025e10       ??6mhist_mproc_intObj@@QAEAAVmhistObj@@AAV1@@Z 00426e10 f calc3dp.obj
 0001:00025e40       ?MemberUsingSet@mhist_mproc_intObj@@QAEAAVmhistObj@@AAV2@H@Z 00426e40 f calc3dp.obj
 0001:00025e70       ??0mhist_mproc_intObj@@QAE@AAV0@@Z 00426e70 f calc3dp.obj
 0001:00025ef0       ??4mhist_mproc_intObj@@QAEAAV0@AAV0@@Z 00426ef0 f calc3dp.obj
 0001:00025f20       ??_Gmhist_mproc_intObj@@UAEPAXI@Z 00426f20 f calc3dp.obj
 0001:00025f60       ??_Emhist_mproc_intObj@@UAEPAXI@Z 00426f60 f calc3dp.obj
 0001:00025fd0       ??0partsObj@@QAE@XZ        00426fd0 f calc3dp.obj
 0001:00026060       ??0partsObj@@QAE@AAVvendorObj@@@Z 00427060 f calc3dp.obj
 0001:000260f0       ??1partsObj@@UAE@XZ        004270f0 f calc3dp.obj
 0001:00026160       ?RecType@partsObj@@UAEHXZ  00427160 f calc3dp.obj
 0001:00026180       ?RecName@partsObj@@UAEPADXZ 00427180 f calc3dp.obj
 0001:000261a0       ?TotalSize@partsObj@@UAEJXZ 004271a0 f calc3dp.obj
 0001:000261c0       ?MakeEmpty@partsObj@@QAEXXZ 004271c0 f calc3dp.obj
 0001:00026200       ?RecData@partsObj@@UAEPAXXZ 00427200 f calc3dp.obj
 0001:00026220       ?_GetDb@partsObj@@UAEPAVVistaDb@@XZ 00427220 f calc3dp.obj
 0001:00026240       ??ApartsObj@@QAEAAV0@W4NavCtrl@@@Z 00427240 f calc3dp.obj
 0001:00026270       ??ApartsObj@@QAEAAV0@AAVKeyObj@@@Z 00427270 f calc3dp.obj
 0001:000262a0       ??ApartsObj@@QAEAAV0@AAVDbAddr@@@Z 004272a0 f calc3dp.obj
 0001:000262d0       ??EpartsObj@@QAEAAV0@XZ    004272d0 f calc3dp.obj
 0001:000262f0       ??FpartsObj@@QAEAAV0@XZ    004272f0 f calc3dp.obj
 0001:00026310       ??EpartsObj@@QAEAAV0@H@Z   00427310 f calc3dp.obj
 0001:00026330       ??FpartsObj@@QAEAAV0@H@Z   00427330 f calc3dp.obj
 0001:00026350       ??5partsObj@@QAEAAVeq_parts_intObj@@AAV1@@Z 00427350 f calc3dp.obj
 0001:00026380       ?OwnerUsingSet@partsObj@@QAEAAVeq_parts_intObj@@AAV2@H@Z 00427380 f calc3dp.obj
 0001:000263b0       ?Members@partsObj@@QAEJAAVeq_parts_intObj@@H@Z 004273b0 f calc3dp.obj
 0001:000263e0       ??5partsObj@@QAEAAVparts_docs_intObj@@AAV1@@Z 004273e0 f calc3dp.obj
 0001:00026410       ?OwnerUsingSet@partsObj@@QAEAAVparts_docs_intObj@@AAV2@H@Z 00427410 f calc3dp.obj
 0001:00026440       ?Members@partsObj@@QAEJAAVparts_docs_intObj@@H@Z 00427440 f calc3dp.obj
 0001:00026470       ?Connect@partsObj@@QAE?AW4T_F@@AAVvendorObj@@H@Z 00427470 f calc3dp.obj
 0001:000264a0       ?GotoSet@partsObj@@QAEAAVStoreObj@@AAVvendorObj@@W4NavCtrl@@H@Z 004274a0 f calc3dp.obj
 0001:000264d0       ?DisConnect@partsObj@@QAE?AW4T_F@@AAVvendorObj@@H@Z 004274d0 f calc3dp.obj
 0001:00026500       ?Set@partsObj@@QAEHAAVvendorObj@@@Z 00427500 f calc3dp.obj
 0001:00026520       ??6partsObj@@QAEAAVvendorObj@@AAV1@@Z 00427520 f calc3dp.obj
 0001:00026550       ?MemberUsingSet@partsObj@@QAEAAVvendorObj@@AAV2@H@Z 00427550 f calc3dp.obj
 0001:00026580       ??0partsObj@@QAE@AAV0@@Z   00427580 f calc3dp.obj
 0001:00026630       ??4partsObj@@QAEAAV0@AAV0@@Z 00427630 f calc3dp.obj
 0001:00026690       ??_GpartsObj@@UAEPAXI@Z    00427690 f calc3dp.obj
 0001:000266d0       ??_EpartsObj@@UAEPAXI@Z    004276d0 f calc3dp.obj
 0001:00026750       ??0eq_parts_intObj@@QAE@XZ 00427750 f calc3dp.obj
 0001:000267d0       ??0eq_parts_intObj@@QAE@AAVSetObj@@@Z 004277d0 f calc3dp.obj
 0001:00026850       ??0eq_parts_intObj@@QAE@AAVequipObj@@@Z 00427850 f calc3dp.obj
 0001:000268e0       ??0eq_parts_intObj@@QAE@AAVpartsObj@@@Z 004278e0 f calc3dp.obj
 0001:00026970       ??1eq_parts_intObj@@UAE@XZ 00427970 f calc3dp.obj
 0001:000269e0       ?RecType@eq_parts_intObj@@UAEHXZ 004279e0 f calc3dp.obj
 0001:00026a00       ?RecName@eq_parts_intObj@@UAEPADXZ 00427a00 f calc3dp.obj
 0001:00026a20       ?_GetDb@eq_parts_intObj@@UAEPAVVistaDb@@XZ 00427a20 f calc3dp.obj
 0001:00026a40       ??Aeq_parts_intObj@@QAEAAV0@W4NavCtrl@@@Z 00427a40 f calc3dp.obj
 0001:00026a70       ??Aeq_parts_intObj@@QAEAAV0@AAVKeyObj@@@Z 00427a70 f calc3dp.obj
 0001:00026aa0       ??Aeq_parts_intObj@@QAEAAV0@AAVDbAddr@@@Z 00427aa0 f calc3dp.obj
 0001:00026ad0       ??Eeq_parts_intObj@@QAEAAV0@XZ 00427ad0 f calc3dp.obj
 0001:00026af0       ??Feq_parts_intObj@@QAEAAV0@XZ 00427af0 f calc3dp.obj
 0001:00026b10       ??Eeq_parts_intObj@@QAEAAV0@H@Z 00427b10 f calc3dp.obj
 0001:00026b30       ??Feq_parts_intObj@@QAEAAV0@H@Z 00427b30 f calc3dp.obj
 0001:00026b50       ?Connect@eq_parts_intObj@@QAE?AW4T_F@@AAVequipObj@@H@Z 00427b50 f calc3dp.obj
 0001:00026b80       ?GotoSet@eq_parts_intObj@@QAEAAVStoreObj@@AAVequipObj@@W4NavCtrl@@H@Z 00427b80 f calc3dp.obj
 0001:00026bb0       ?DisConnect@eq_parts_intObj@@QAE?AW4T_F@@AAVequipObj@@H@Z 00427bb0 f calc3dp.obj
 0001:00026be0       ?Set@eq_parts_intObj@@QAEHAAVequipObj@@@Z 00427be0 f calc3dp.obj
 0001:00026c00       ??6eq_parts_intObj@@QAEAAVequipObj@@AAV1@@Z 00427c00 f calc3dp.obj
 0001:00026c30       ?MemberUsingSet@eq_parts_intObj@@QAEAAVequipObj@@AAV2@H@Z 00427c30 f calc3dp.obj
 0001:00026c60       ?Connect@eq_parts_intObj@@QAE?AW4T_F@@AAVpartsObj@@H@Z 00427c60 f calc3dp.obj
 0001:00026c90       ?GotoSet@eq_parts_intObj@@QAEAAVStoreObj@@AAVpartsObj@@W4NavCtrl@@H@Z 00427c90 f calc3dp.obj
 0001:00026cc0       ?DisConnect@eq_parts_intObj@@QAE?AW4T_F@@AAVpartsObj@@H@Z 00427cc0 f calc3dp.obj
 0001:00026cf0       ?Set@eq_parts_intObj@@QAEHAAVpartsObj@@@Z 00427cf0 f calc3dp.obj
 0001:00026d10       ??6eq_parts_intObj@@QAEAAVpartsObj@@AAV1@@Z 00427d10 f calc3dp.obj
 0001:00026d40       ?MemberUsingSet@eq_parts_intObj@@QAEAAVpartsObj@@AAV2@H@Z 00427d40 f calc3dp.obj
 0001:00026d70       ??0eq_parts_intObj@@QAE@AAV0@@Z 00427d70 f calc3dp.obj
 0001:00026df0       ??4eq_parts_intObj@@QAEAAV0@AAV0@@Z 00427df0 f calc3dp.obj
 0001:00026e20       ??_Geq_parts_intObj@@UAEPAXI@Z 00427e20 f calc3dp.obj
 0001:00026e60       ??_Eeq_parts_intObj@@UAEPAXI@Z 00427e60 f calc3dp.obj
 0001:00026ed0       ??0parts_docs_intObj@@QAE@XZ 00427ed0 f calc3dp.obj
 0001:00026f50       ??0parts_docs_intObj@@QAE@AAVSetObj@@@Z 00427f50 f calc3dp.obj
 0001:00026fd0       ??0parts_docs_intObj@@QAE@AAVpartsObj@@@Z 00427fd0 f calc3dp.obj
 0001:00027060       ??0parts_docs_intObj@@QAE@AAVengdocObj@@@Z 00428060 f calc3dp.obj
 0001:000270f0       ??1parts_docs_intObj@@UAE@XZ 004280f0 f calc3dp.obj
 0001:00027160       ?RecType@parts_docs_intObj@@UAEHXZ 00428160 f calc3dp.obj
 0001:00027180       ?RecName@parts_docs_intObj@@UAEPADXZ 00428180 f calc3dp.obj
 0001:000271a0       ?_GetDb@parts_docs_intObj@@UAEPAVVistaDb@@XZ 004281a0 f calc3dp.obj
 0001:000271c0       ??Aparts_docs_intObj@@QAEAAV0@W4NavCtrl@@@Z 004281c0 f calc3dp.obj
 0001:000271f0       ??Aparts_docs_intObj@@QAEAAV0@AAVKeyObj@@@Z 004281f0 f calc3dp.obj
 0001:00027220       ??Aparts_docs_intObj@@QAEAAV0@AAVDbAddr@@@Z 00428220 f calc3dp.obj
 0001:00027250       ??Eparts_docs_intObj@@QAEAAV0@XZ 00428250 f calc3dp.obj
 0001:00027270       ??Fparts_docs_intObj@@QAEAAV0@XZ 00428270 f calc3dp.obj
 0001:00027290       ??Eparts_docs_intObj@@QAEAAV0@H@Z 00428290 f calc3dp.obj
 0001:000272b0       ??Fparts_docs_intObj@@QAEAAV0@H@Z 004282b0 f calc3dp.obj
 0001:000272d0       ?Connect@parts_docs_intObj@@QAE?AW4T_F@@AAVpartsObj@@H@Z 004282d0 f calc3dp.obj
 0001:00027300       ?GotoSet@parts_docs_intObj@@QAEAAVStoreObj@@AAVpartsObj@@W4NavCtrl@@H@Z 00428300 f calc3dp.obj
 0001:00027330       ?DisConnect@parts_docs_intObj@@QAE?AW4T_F@@AAVpartsObj@@H@Z 00428330 f calc3dp.obj
 0001:00027360       ?Set@parts_docs_intObj@@QAEHAAVpartsObj@@@Z 00428360 f calc3dp.obj
 0001:00027380       ??6parts_docs_intObj@@QAEAAVpartsObj@@AAV1@@Z 00428380 f calc3dp.obj
 0001:000273b0       ?MemberUsingSet@parts_docs_intObj@@QAEAAVpartsObj@@AAV2@H@Z 004283b0 f calc3dp.obj
 0001:000273e0       ?Connect@parts_docs_intObj@@QAE?AW4T_F@@AAVengdocObj@@H@Z 004283e0 f calc3dp.obj
 0001:00027410       ?GotoSet@parts_docs_intObj@@QAEAAVStoreObj@@AAVengdocObj@@W4NavCtrl@@H@Z 00428410 f calc3dp.obj
 0001:00027440       ?DisConnect@parts_docs_intObj@@QAE?AW4T_F@@AAVengdocObj@@H@Z 00428440 f calc3dp.obj
 0001:00027470       ?Set@parts_docs_intObj@@QAEHAAVengdocObj@@@Z 00428470 f calc3dp.obj
 0001:00027490       ??6parts_docs_intObj@@QAEAAVengdocObj@@AAV1@@Z 00428490 f calc3dp.obj
 0001:000274c0       ?MemberUsingSet@parts_docs_intObj@@QAEAAVengdocObj@@AAV2@H@Z 004284c0 f calc3dp.obj
 0001:000274f0       ??0parts_docs_intObj@@QAE@AAV0@@Z 004284f0 f calc3dp.obj
 0001:00027570       ??4parts_docs_intObj@@QAEAAV0@AAV0@@Z 00428570 f calc3dp.obj
 0001:000275a0       ??_Gparts_docs_intObj@@UAEPAXI@Z 004285a0 f calc3dp.obj
 0001:000275e0       ??_Eparts_docs_intObj@@UAEPAXI@Z 004285e0 f calc3dp.obj
 0001:00027650       ??0vendorObj@@QAE@XZ       00428650 f calc3dp.obj
 0001:000276e0       ??1vendorObj@@UAE@XZ       004286e0 f calc3dp.obj
 0001:00027750       ?RecType@vendorObj@@UAEHXZ 00428750 f calc3dp.obj
 0001:00027770       ?RecName@vendorObj@@UAEPADXZ 00428770 f calc3dp.obj
 0001:00027790       ?TotalSize@vendorObj@@UAEJXZ 00428790 f calc3dp.obj
 0001:000277b0       ?MakeEmpty@vendorObj@@QAEXXZ 004287b0 f calc3dp.obj
 0001:000277f0       ?RecData@vendorObj@@UAEPAXXZ 004287f0 f calc3dp.obj
 0001:00027810       ?_GetDb@vendorObj@@UAEPAVVistaDb@@XZ 00428810 f calc3dp.obj
 0001:00027830       ??AvendorObj@@QAEAAV0@W4NavCtrl@@@Z 00428830 f calc3dp.obj
 0001:00027860       ??AvendorObj@@QAEAAV0@AAVKeyObj@@@Z 00428860 f calc3dp.obj
 0001:00027890       ??AvendorObj@@QAEAAV0@AAVDbAddr@@@Z 00428890 f calc3dp.obj
 0001:000278c0       ??EvendorObj@@QAEAAV0@XZ   004288c0 f calc3dp.obj
 0001:000278e0       ??FvendorObj@@QAEAAV0@XZ   004288e0 f calc3dp.obj
 0001:00027900       ??EvendorObj@@QAEAAV0@H@Z  00428900 f calc3dp.obj
 0001:00027920       ??FvendorObj@@QAEAAV0@H@Z  00428920 f calc3dp.obj
 0001:00027940       ??5vendorObj@@QAEAAVpartsObj@@AAV1@@Z 00428940 f calc3dp.obj
 0001:00027970       ?OwnerUsingSet@vendorObj@@QAEAAVpartsObj@@AAV2@H@Z 00428970 f calc3dp.obj
 0001:000279a0       ?Members@vendorObj@@QAEJAAVpartsObj@@H@Z 004289a0 f calc3dp.obj
 0001:000279d0       ??5vendorObj@@QAEAAVequipObj@@AAV1@@Z 004289d0 f calc3dp.obj
 0001:00027a00       ?OwnerUsingSet@vendorObj@@QAEAAVequipObj@@AAV2@H@Z 00428a00 f calc3dp.obj
 0001:00027a30       ?Members@vendorObj@@QAEJAAVequipObj@@H@Z 00428a30 f calc3dp.obj
 0001:00027a60       ??0vendorObj@@QAE@AAV0@@Z  00428a60 f calc3dp.obj
 0001:00027b10       ??4vendorObj@@QAEAAV0@AAV0@@Z 00428b10 f calc3dp.obj
 0001:00027b70       ??_GvendorObj@@UAEPAXI@Z   00428b70 f calc3dp.obj
 0001:00027bb0       ??_EvendorObj@@UAEPAXI@Z   00428bb0 f calc3dp.obj
 0001:00027c30       ??0commsysObj@@QAE@XZ      00428c30 f calc3dp.obj
 0001:00027cc0       ??1commsysObj@@UAE@XZ      00428cc0 f calc3dp.obj
 0001:00027d30       ?RecType@commsysObj@@UAEHXZ 00428d30 f calc3dp.obj
 0001:00027d50       ?RecName@commsysObj@@UAEPADXZ 00428d50 f calc3dp.obj
 0001:00027d70       ?TotalSize@commsysObj@@UAEJXZ 00428d70 f calc3dp.obj
 0001:00027d90       ?MakeEmpty@commsysObj@@QAEXXZ 00428d90 f calc3dp.obj
 0001:00027dd0       ?RecData@commsysObj@@UAEPAXXZ 00428dd0 f calc3dp.obj
 0001:00027df0       ?_GetDb@commsysObj@@UAEPAVVistaDb@@XZ 00428df0 f calc3dp.obj
 0001:00027e10       ??AcommsysObj@@QAEAAV0@W4NavCtrl@@@Z 00428e10 f calc3dp.obj
 0001:00027e40       ??AcommsysObj@@QAEAAV0@AAVKeyObj@@@Z 00428e40 f calc3dp.obj
 0001:00027e70       ??AcommsysObj@@QAEAAV0@AAVDbAddr@@@Z 00428e70 f calc3dp.obj
 0001:00027ea0       ??EcommsysObj@@QAEAAV0@XZ  00428ea0 f calc3dp.obj
 0001:00027ec0       ??FcommsysObj@@QAEAAV0@XZ  00428ec0 f calc3dp.obj
 0001:00027ee0       ??EcommsysObj@@QAEAAV0@H@Z 00428ee0 f calc3dp.obj
 0001:00027f00       ??FcommsysObj@@QAEAAV0@H@Z 00428f00 f calc3dp.obj
 0001:00027f20       ??5commsysObj@@QAEAAVequipObj@@AAV1@@Z 00428f20 f calc3dp.obj
 0001:00027f50       ?OwnerUsingSet@commsysObj@@QAEAAVequipObj@@AAV2@H@Z 00428f50 f calc3dp.obj
 0001:00027f80       ?Members@commsysObj@@QAEJAAVequipObj@@H@Z 00428f80 f calc3dp.obj
 0001:00027fb0       ??0commsysObj@@QAE@AAV0@@Z 00428fb0 f calc3dp.obj
 0001:00028060       ??4commsysObj@@QAEAAV0@AAV0@@Z 00429060 f calc3dp.obj
 0001:000280c0       ??_GcommsysObj@@UAEPAXI@Z  004290c0 f calc3dp.obj
 0001:00028100       ??_EcommsysObj@@UAEPAXI@Z  00429100 f calc3dp.obj
 0001:00028170       ??0eq_docs_intObj@@QAE@XZ  00429170 f calc3dp.obj
 0001:000281f0       ??0eq_docs_intObj@@QAE@AAVSetObj@@@Z 004291f0 f calc3dp.obj
 0001:00028270       ??0eq_docs_intObj@@QAE@AAVequipObj@@@Z 00429270 f calc3dp.obj
 0001:00028300       ??0eq_docs_intObj@@QAE@AAVengdocObj@@@Z 00429300 f calc3dp.obj
 0001:00028390       ??1eq_docs_intObj@@UAE@XZ  00429390 f calc3dp.obj
 0001:00028400       ?RecType@eq_docs_intObj@@UAEHXZ 00429400 f calc3dp.obj
 0001:00028420       ?RecName@eq_docs_intObj@@UAEPADXZ 00429420 f calc3dp.obj
 0001:00028440       ?_GetDb@eq_docs_intObj@@UAEPAVVistaDb@@XZ 00429440 f calc3dp.obj
 0001:00028460       ??Aeq_docs_intObj@@QAEAAV0@W4NavCtrl@@@Z 00429460 f calc3dp.obj
 0001:00028490       ??Aeq_docs_intObj@@QAEAAV0@AAVKeyObj@@@Z 00429490 f calc3dp.obj
 0001:000284c0       ??Aeq_docs_intObj@@QAEAAV0@AAVDbAddr@@@Z 004294c0 f calc3dp.obj
 0001:000284f0       ??Eeq_docs_intObj@@QAEAAV0@XZ 004294f0 f calc3dp.obj
 0001:00028510       ??Feq_docs_intObj@@QAEAAV0@XZ 00429510 f calc3dp.obj
 0001:00028530       ??Eeq_docs_intObj@@QAEAAV0@H@Z 00429530 f calc3dp.obj
 0001:00028550       ??Feq_docs_intObj@@QAEAAV0@H@Z 00429550 f calc3dp.obj
 0001:00028570       ?Connect@eq_docs_intObj@@QAE?AW4T_F@@AAVequipObj@@H@Z 00429570 f calc3dp.obj
 0001:000285a0       ?GotoSet@eq_docs_intObj@@QAEAAVStoreObj@@AAVequipObj@@W4NavCtrl@@H@Z 004295a0 f calc3dp.obj
 0001:000285d0       ?DisConnect@eq_docs_intObj@@QAE?AW4T_F@@AAVequipObj@@H@Z 004295d0 f calc3dp.obj
 0001:00028600       ?Set@eq_docs_intObj@@QAEHAAVequipObj@@@Z 00429600 f calc3dp.obj
 0001:00028620       ??6eq_docs_intObj@@QAEAAVequipObj@@AAV1@@Z 00429620 f calc3dp.obj
 0001:00028650       ?MemberUsingSet@eq_docs_intObj@@QAEAAVequipObj@@AAV2@H@Z 00429650 f calc3dp.obj
 0001:00028680       ?Connect@eq_docs_intObj@@QAE?AW4T_F@@AAVengdocObj@@H@Z 00429680 f calc3dp.obj
 0001:000286b0       ?GotoSet@eq_docs_intObj@@QAEAAVStoreObj@@AAVengdocObj@@W4NavCtrl@@H@Z 004296b0 f calc3dp.obj
 0001:000286e0       ?DisConnect@eq_docs_intObj@@QAE?AW4T_F@@AAVengdocObj@@H@Z 004296e0 f calc3dp.obj
 0001:00028710       ?Set@eq_docs_intObj@@QAEHAAVengdocObj@@@Z 00429710 f calc3dp.obj
 0001:00028730       ??6eq_docs_intObj@@QAEAAVengdocObj@@AAV1@@Z 00429730 f calc3dp.obj
 0001:00028760       ?MemberUsingSet@eq_docs_intObj@@QAEAAVengdocObj@@AAV2@H@Z 00429760 f calc3dp.obj
 0001:00028790       ??0eq_docs_intObj@@QAE@AAV0@@Z 00429790 f calc3dp.obj
 0001:00028810       ??4eq_docs_intObj@@QAEAAV0@AAV0@@Z 00429810 f calc3dp.obj
 0001:00028840       ??_Geq_docs_intObj@@UAEPAXI@Z 00429840 f calc3dp.obj
 0001:00028880       ??_Eeq_docs_intObj@@UAEPAXI@Z 00429880 f calc3dp.obj
 0001:000288f0       ??0eq_mproc_intObj@@QAE@XZ 004298f0 f calc3dp.obj
 0001:00028970       ??0eq_mproc_intObj@@QAE@AAVSetObj@@@Z 00429970 f calc3dp.obj
 0001:000289f0       ??0eq_mproc_intObj@@QAE@AAVequipObj@@@Z 004299f0 f calc3dp.obj
 0001:00028a80       ??0eq_mproc_intObj@@QAE@AAVmprocObj@@@Z 00429a80 f calc3dp.obj
 0001:00028b10       ??1eq_mproc_intObj@@UAE@XZ 00429b10 f calc3dp.obj
 0001:00028b80       ?RecType@eq_mproc_intObj@@UAEHXZ 00429b80 f calc3dp.obj
 0001:00028ba0       ?RecName@eq_mproc_intObj@@UAEPADXZ 00429ba0 f calc3dp.obj
 0001:00028bc0       ?_GetDb@eq_mproc_intObj@@UAEPAVVistaDb@@XZ 00429bc0 f calc3dp.obj
 0001:00028be0       ??Aeq_mproc_intObj@@QAEAAV0@W4NavCtrl@@@Z 00429be0 f calc3dp.obj
 0001:00028c10       ??Aeq_mproc_intObj@@QAEAAV0@AAVKeyObj@@@Z 00429c10 f calc3dp.obj
 0001:00028c40       ??Aeq_mproc_intObj@@QAEAAV0@AAVDbAddr@@@Z 00429c40 f calc3dp.obj
 0001:00028c70       ??Eeq_mproc_intObj@@QAEAAV0@XZ 00429c70 f calc3dp.obj
 0001:00028c90       ??Feq_mproc_intObj@@QAEAAV0@XZ 00429c90 f calc3dp.obj
 0001:00028cb0       ??Eeq_mproc_intObj@@QAEAAV0@H@Z 00429cb0 f calc3dp.obj
 0001:00028cd0       ??Feq_mproc_intObj@@QAEAAV0@H@Z 00429cd0 f calc3dp.obj
 0001:00028cf0       ?Connect@eq_mproc_intObj@@QAE?AW4T_F@@AAVequipObj@@H@Z 00429cf0 f calc3dp.obj
 0001:00028d20       ?GotoSet@eq_mproc_intObj@@QAEAAVStoreObj@@AAVequipObj@@W4NavCtrl@@H@Z 00429d20 f calc3dp.obj
 0001:00028d50       ?DisConnect@eq_mproc_intObj@@QAE?AW4T_F@@AAVequipObj@@H@Z 00429d50 f calc3dp.obj
 0001:00028d80       ?Set@eq_mproc_intObj@@QAEHAAVequipObj@@@Z 00429d80 f calc3dp.obj
 0001:00028da0       ??6eq_mproc_intObj@@QAEAAVequipObj@@AAV1@@Z 00429da0 f calc3dp.obj
 0001:00028dd0       ?MemberUsingSet@eq_mproc_intObj@@QAEAAVequipObj@@AAV2@H@Z 00429dd0 f calc3dp.obj
 0001:00028e00       ?Connect@eq_mproc_intObj@@QAE?AW4T_F@@AAVmprocObj@@H@Z 00429e00 f calc3dp.obj
 0001:00028e30       ?GotoSet@eq_mproc_intObj@@QAEAAVStoreObj@@AAVmprocObj@@W4NavCtrl@@H@Z 00429e30 f calc3dp.obj
 0001:00028e60       ?DisConnect@eq_mproc_intObj@@QAE?AW4T_F@@AAVmprocObj@@H@Z 00429e60 f calc3dp.obj
 0001:00028e90       ?Set@eq_mproc_intObj@@QAEHAAVmprocObj@@@Z 00429e90 f calc3dp.obj
 0001:00028eb0       ??6eq_mproc_intObj@@QAEAAVmprocObj@@AAV1@@Z 00429eb0 f calc3dp.obj
 0001:00028ee0       ?MemberUsingSet@eq_mproc_intObj@@QAEAAVmprocObj@@AAV2@H@Z 00429ee0 f calc3dp.obj
 0001:00028f10       ??0eq_mproc_intObj@@QAE@AAV0@@Z 00429f10 f calc3dp.obj
 0001:00028f90       ??4eq_mproc_intObj@@QAEAAV0@AAV0@@Z 00429f90 f calc3dp.obj
 0001:00028fc0       ??_Geq_mproc_intObj@@UAEPAXI@Z 00429fc0 f calc3dp.obj
 0001:00029000       ??_Eeq_mproc_intObj@@UAEPAXI@Z 0042a000 f calc3dp.obj
 0001:00029070       ??0image_ptrObj@@QAE@XZ    0042a070 f calc3dp.obj
 0001:00029100       ??1image_ptrObj@@UAE@XZ    0042a100 f calc3dp.obj
 0001:00029170       ?RecType@image_ptrObj@@UAEHXZ 0042a170 f calc3dp.obj
 0001:00029190       ?TotalSize@image_ptrObj@@UAEJXZ 0042a190 f calc3dp.obj
 0001:000291b0       ?MakeEmpty@image_ptrObj@@QAEXXZ 0042a1b0 f calc3dp.obj
 0001:000291f0       ?RecData@image_ptrObj@@UAEPAXXZ 0042a1f0 f calc3dp.obj
 0001:00029210       ?_GetDb@image_ptrObj@@UAEPAVVistaDb@@XZ 0042a210 f calc3dp.obj
 0001:00029230       ??Aimage_ptrObj@@QAEAAV0@W4NavCtrl@@@Z 0042a230 f calc3dp.obj
 0001:00029260       ??Aimage_ptrObj@@QAEAAV0@AAVKeyObj@@@Z 0042a260 f calc3dp.obj
 0001:00029290       ??Aimage_ptrObj@@QAEAAV0@AAVDbAddr@@@Z 0042a290 f calc3dp.obj
 0001:000292c0       ??Eimage_ptrObj@@QAEAAV0@XZ 0042a2c0 f calc3dp.obj
 0001:000292e0       ??Fimage_ptrObj@@QAEAAV0@XZ 0042a2e0 f calc3dp.obj
 0001:00029300       ??Eimage_ptrObj@@QAEAAV0@H@Z 0042a300 f calc3dp.obj
 0001:00029320       ??Fimage_ptrObj@@QAEAAV0@H@Z 0042a320 f calc3dp.obj
 0001:00029340       ??5image_ptrObj@@QAEAAVimage_equip_boxObj@@AAV1@@Z 0042a340 f calc3dp.obj
 0001:00029370       ?OwnerUsingSet@image_ptrObj@@QAEAAVimage_equip_boxObj@@AAV2@H@Z 0042a370 f calc3dp.obj
 0001:000293a0       ?Members@image_ptrObj@@QAEJAAVimage_equip_boxObj@@H@Z 0042a3a0 f calc3dp.obj
 0001:000293d0       ??0image_ptrObj@@QAE@AAV0@@Z 0042a3d0 f calc3dp.obj
 0001:00029470       ??4image_ptrObj@@QAEAAV0@AAV0@@Z 0042a470 f calc3dp.obj
 0001:000294d0       ??_Gimage_ptrObj@@UAEPAXI@Z 0042a4d0 f calc3dp.obj
 0001:00029510       ??_Eimage_ptrObj@@UAEPAXI@Z 0042a510 f calc3dp.obj
 0001:00029580       ??0image_equip_boxObj@@QAE@XZ 0042a580 f calc3dp.obj
 0001:00029600       ??0image_equip_boxObj@@QAE@AAVSetObj@@@Z 0042a600 f calc3dp.obj
 0001:00029680       ??1image_equip_boxObj@@UAE@XZ 0042a680 f calc3dp.obj
 0001:000296f0       ?RecType@image_equip_boxObj@@UAEHXZ 0042a6f0 f calc3dp.obj
 0001:00029710       ?TotalSize@image_equip_boxObj@@UAEJXZ 0042a710 f calc3dp.obj
 0001:00029730       ?MakeEmpty@image_equip_boxObj@@QAEXXZ 0042a730 f calc3dp.obj
 0001:00029770       ?RecData@image_equip_boxObj@@UAEPAXXZ 0042a770 f calc3dp.obj
 0001:00029790       ?_GetDb@image_equip_boxObj@@UAEPAVVistaDb@@XZ 0042a790 f calc3dp.obj
 0001:000297b0       ??Aimage_equip_boxObj@@QAEAAV0@W4NavCtrl@@@Z 0042a7b0 f calc3dp.obj
 0001:000297e0       ??Aimage_equip_boxObj@@QAEAAV0@AAVKeyObj@@@Z 0042a7e0 f calc3dp.obj
 0001:00029810       ??Aimage_equip_boxObj@@QAEAAV0@AAVDbAddr@@@Z 0042a810 f calc3dp.obj
 0001:00029840       ??Eimage_equip_boxObj@@QAEAAV0@XZ 0042a840 f calc3dp.obj
 0001:00029860       ??Fimage_equip_boxObj@@QAEAAV0@XZ 0042a860 f calc3dp.obj
 0001:00029880       ??Eimage_equip_boxObj@@QAEAAV0@H@Z 0042a880 f calc3dp.obj
 0001:000298a0       ??Fimage_equip_boxObj@@QAEAAV0@H@Z 0042a8a0 f calc3dp.obj
 0001:000298c0       ?Connect@image_equip_boxObj@@QAE?AW4T_F@@AAVimage_ptrObj@@H@Z 0042a8c0 f calc3dp.obj
 0001:000298f0       ?GotoSet@image_equip_boxObj@@QAEAAVStoreObj@@AAVimage_ptrObj@@W4NavCtrl@@H@Z 0042a8f0 f calc3dp.obj
 0001:00029920       ?DisConnect@image_equip_boxObj@@QAE?AW4T_F@@AAVimage_ptrObj@@H@Z 0042a920 f calc3dp.obj
 0001:00029950       ?Set@image_equip_boxObj@@QAEHAAVimage_ptrObj@@@Z 0042a950 f calc3dp.obj
 0001:00029970       ??6image_equip_boxObj@@QAEAAVimage_ptrObj@@AAV1@@Z 0042a970 f calc3dp.obj
 0001:000299a0       ?MemberUsingSet@image_equip_boxObj@@QAEAAVimage_ptrObj@@AAV2@H@Z 0042a9a0 f calc3dp.obj
 0001:000299d0       ?Connect@image_equip_boxObj@@QAE?AW4T_F@@AAVequipObj@@H@Z 0042a9d0 f calc3dp.obj
 0001:00029a00       ?GotoSet@image_equip_boxObj@@QAEAAVStoreObj@@AAVequipObj@@W4NavCtrl@@H@Z 0042aa00 f calc3dp.obj
 0001:00029a30       ?DisConnect@image_equip_boxObj@@QAE?AW4T_F@@AAVequipObj@@H@Z 0042aa30 f calc3dp.obj
 0001:00029a60       ?Set@image_equip_boxObj@@QAEHAAVequipObj@@@Z 0042aa60 f calc3dp.obj
 0001:00029a80       ??6image_equip_boxObj@@QAEAAVequipObj@@AAV1@@Z 0042aa80 f calc3dp.obj
 0001:00029ab0       ?MemberUsingSet@image_equip_boxObj@@QAEAAVequipObj@@AAV2@H@Z 0042aab0 f calc3dp.obj
 0001:00029ae0       ??0image_equip_boxObj@@QAE@AAV0@@Z 0042aae0 f calc3dp.obj
 0001:00029ba0       ??4image_equip_boxObj@@QAEAAV0@AAV0@@Z 0042aba0 f calc3dp.obj
 0001:00029c10       ??_Gimage_equip_boxObj@@UAEPAXI@Z 0042ac10 f calc3dp.obj
 0001:00029c50       ??_Eimage_equip_boxObj@@UAEPAXI@Z 0042ac50 f calc3dp.obj
 0001:00029cc0       ??0equip_name_KeyObj@@QAE@XZ 0042acc0 f calc3dp.obj
 0001:00029d00       ??1equip_name_KeyObj@@UAE@XZ 0042ad00 f calc3dp.obj
 0001:00029d20       ??0equip_name_KeyObj@@QAE@ABV0@@Z 0042ad20 f calc3dp.obj
 0001:00029d90       ??4equip_name_KeyObj@@QAEAAV0@ABV0@@Z 0042ad90 f calc3dp.obj
 0001:00029e10       ??_Gequip_name_KeyObj@@UAEPAXI@Z 0042ae10 f calc3dp.obj
 0001:00029e50       ??_Eequip_name_KeyObj@@UAEPAXI@Z 0042ae50 f calc3dp.obj
 0001:00029ec0       ??0engdoc_docno_KeyObj@@QAE@XZ 0042aec0 f calc3dp.obj
 0001:00029f00       ??1engdoc_docno_KeyObj@@UAE@XZ 0042af00 f calc3dp.obj
 0001:00029f20       ??0engdoc_docno_KeyObj@@QAE@ABV0@@Z 0042af20 f calc3dp.obj
 0001:00029fa0       ??4engdoc_docno_KeyObj@@QAEAAV0@ABV0@@Z 0042afa0 f calc3dp.obj
 0001:0002a020       ??_Gengdoc_docno_KeyObj@@UAEPAXI@Z 0042b020 f calc3dp.obj
 0001:0002a060       ??_Eengdoc_docno_KeyObj@@UAEPAXI@Z 0042b060 f calc3dp.obj
 0001:0002a0d0       ??0mproc_name_KeyObj@@QAE@XZ 0042b0d0 f calc3dp.obj
 0001:0002a110       ??1mproc_name_KeyObj@@UAE@XZ 0042b110 f calc3dp.obj
 0001:0002a130       ??0mproc_name_KeyObj@@QAE@ABV0@@Z 0042b130 f calc3dp.obj
 0001:0002a1a0       ??4mproc_name_KeyObj@@QAEAAV0@ABV0@@Z 0042b1a0 f calc3dp.obj
 0001:0002a220       ??_Gmproc_name_KeyObj@@UAEPAXI@Z 0042b220 f calc3dp.obj
 0001:0002a260       ??_Emproc_name_KeyObj@@UAEPAXI@Z 0042b260 f calc3dp.obj
 0001:0002a2d0       ??0parts_cat_no_KeyObj@@QAE@XZ 0042b2d0 f calc3dp.obj
 0001:0002a310       ??1parts_cat_no_KeyObj@@UAE@XZ 0042b310 f calc3dp.obj
 0001:0002a330       ??0parts_cat_no_KeyObj@@QAE@ABV0@@Z 0042b330 f calc3dp.obj
 0001:0002a3b0       ??4parts_cat_no_KeyObj@@QAEAAV0@ABV0@@Z 0042b3b0 f calc3dp.obj
 0001:0002a430       ??_Gparts_cat_no_KeyObj@@UAEPAXI@Z 0042b430 f calc3dp.obj
 0001:0002a470       ??_Eparts_cat_no_KeyObj@@UAEPAXI@Z 0042b470 f calc3dp.obj
 0001:0002a4e0       ??0vendor_vendcode_KeyObj@@QAE@XZ 0042b4e0 f calc3dp.obj
 0001:0002a520       ??1vendor_vendcode_KeyObj@@UAE@XZ 0042b520 f calc3dp.obj
 0001:0002a540       ??0vendor_vendcode_KeyObj@@QAE@ABV0@@Z 0042b540 f calc3dp.obj
 0001:0002a5b0       ??4vendor_vendcode_KeyObj@@QAEAAV0@ABV0@@Z 0042b5b0 f calc3dp.obj
 0001:0002a610       ??_Gvendor_vendcode_KeyObj@@UAEPAXI@Z 0042b610 f calc3dp.obj
 0001:0002a650       ??_Evendor_vendcode_KeyObj@@UAEPAXI@Z 0042b650 f calc3dp.obj
 0001:0002a6c0       ??0commsys_name_KeyObj@@QAE@XZ 0042b6c0 f calc3dp.obj
 0001:0002a700       ??1commsys_name_KeyObj@@UAE@XZ 0042b700 f calc3dp.obj
 0001:0002a720       ??0commsys_name_KeyObj@@QAE@ABV0@@Z 0042b720 f calc3dp.obj
 0001:0002a790       ??4commsys_name_KeyObj@@QAEAAV0@ABV0@@Z 0042b790 f calc3dp.obj
 0001:0002a810       ??_Gcommsys_name_KeyObj@@UAEPAXI@Z 0042b810 f calc3dp.obj
 0001:0002a850       ??_Ecommsys_name_KeyObj@@UAEPAXI@Z 0042b850 f calc3dp.obj
 0001:0002a8c0       ??0image_ptr_dba_KeyObj@@QAE@XZ 0042b8c0 f calc3dp.obj
 0001:0002a900       ??1image_ptr_dba_KeyObj@@UAE@XZ 0042b900 f calc3dp.obj
 0001:0002a920       ??0image_ptr_dba_KeyObj@@QAE@ABV0@@Z 0042b920 f calc3dp.obj
 0001:0002a990       ??4image_ptr_dba_KeyObj@@QAEAAV0@ABV0@@Z 0042b990 f calc3dp.obj
 0001:0002a9f0       ??_Gimage_ptr_dba_KeyObj@@UAEPAXI@Z 0042b9f0 f calc3dp.obj
 0001:0002aa30       ??_Eimage_ptr_dba_KeyObj@@UAEPAXI@Z 0042ba30 f calc3dp.obj
 0001:0002aaa0       ?moment@@YAHQANHPAN11111@Z 0042baa0 f calc3dp.obj
 0001:0002ac89       ?CalculateStdDev@@YAHPAPANHPAU_Point3d@@@Z 0042bc89 f calc3dp.obj
 0001:0002aee0       ?Calc3DPoint@@YAHPADPAU_Point3d@@@Z 0042bee0 f calc3dp.obj
 0001:0002bd8c       ?KillBundleList@@YAXPAVCPtrList@@@Z 0042cd8c f calc3dp.obj
 0001:0002bdec       ?SearchForBundle@@YAPADXZ  0042cdec f calc3dp.obj
 0001:0002c2bd       ?SearchForBundleSpecific@@YAPADPAPADH@Z 0042d2bd f calc3dp.obj
 0001:0002c620       ?fabs@@YAMM@Z              0042d620 f calc3dp.obj
 0001:0002c640       _fabsf                     0042d640 f calc3dp.obj
 0001:0002c670       ?GetSelected@CFotobrowView@@QAE?AVCPoint@@XZ 0042d670 f calc3dp.obj
 0001:0002c6a0       ?SetSelected@CFotobrowDoc@@QAEXH@Z 0042d6a0 f calc3dp.obj
 0001:0002c6d0       ?GetImageName@CFotobrowDoc@@QAEPBDXZ 0042d6d0 f calc3dp.obj
 0001:0002c700       ?GetStatus@TransAction@@QAE?AW4TrStatus@@XZ 0042d700 f fotobrow.obj
 0001:0002c720       ?GetName@TransAction@@QAEPADXZ 0042d720 f fotobrow.obj
 0001:0002c740       ?SetError@TransAction@@QAEXXZ 0042d740 f fotobrow.obj
 0001:0002c760       ??4TransAction@@QAEAAV0@ABV0@@Z 0042d760 f fotobrow.obj
 0001:0002c7a0       ??_FTransAction@@QAEXXZ    0042d7a0 f fotobrow.obj
 0001:0002c7c0       ??_GTransAction@@QAEPAXI@Z 0042d7c0 f fotobrow.obj
 0001:0002c800       ??_ETransAction@@QAEPAXI@Z 0042d800 f fotobrow.obj
 0001:0002c870       ?_GetBaseMessageMap@CFotobrowApp@@KGPBUAFX_MSGMAP@@XZ 0042d870 f fotobrow.obj
 0001:0002c885       ?GetMessageMap@CFotobrowApp@@MBEPBUAFX_MSGMAP@@XZ 0042d885 f fotobrow.obj
 0001:0002c8a0       ??0CFotobrowApp@@QAE@XZ    0042d8a0 f fotobrow.obj
 0001:0002c9cf       ??1CFotobrowApp@@UAE@XZ    0042d9cf f fotobrow.obj
 0001:0002cb70       ?InitInstance@CFotobrowApp@@UAEHXZ 0042db70 f fotobrow.obj
 0001:0002d55c       ??0CAboutDlg@@QAE@XZ       0042e55c f fotobrow.obj
 0001:0002d621       ?DoDataExchange@CAboutDlg@@MAEXPAVCDataExchange@@@Z 0042e621 f fotobrow.obj
 0001:0002d645       ?_GetBaseMessageMap@CAboutDlg@@KGPBUAFX_MSGMAP@@XZ 0042e645 f fotobrow.obj
 0001:0002d65a       ?GetMessageMap@CAboutDlg@@MBEPBUAFX_MSGMAP@@XZ 0042e65a f fotobrow.obj
 0001:0002d675       ?OnInitDialog@CAboutDlg@@MAEHXZ 0042e675 f fotobrow.obj
 0001:0002d809       ?OnPaint@CAboutDlg@@IAEXXZ 0042e809 f fotobrow.obj
 0001:0002d8e5       ?OnAppAbout@CFotobrowApp@@QAEXXZ 0042e8e5 f fotobrow.obj
 0001:0002d95e       ?AddDocToList@CFotobrowApp@@QAEXPAVCDocument@@@Z 0042e95e f fotobrow.obj
 0001:0002d976       ?DelDocFromList@CFotobrowApp@@QAEXPAVCDocument@@@Z 0042e976 f fotobrow.obj
 0001:0002d98e       ?ExitInstance@CFotobrowApp@@UAEHXZ 0042e98e f fotobrow.obj
 0001:0002da07       ?OnFileNew@CFotobrowApp@@QAEXXZ 0042ea07 f fotobrow.obj
 0001:0002da1d       ?GetDocumentList@CFotobrowApp@@QAEXPAVCObList@@@Z 0042ea1d f fotobrow.obj
 0001:0002dacb       ?KillTheTAF@CFotobrowApp@@QAEXXZ 0042eacb f fotobrow.obj
 0001:0002db72       ?ReadProfile@CFotobrowApp@@QAEHXZ 0042eb72 f fotobrow.obj
 0001:0002dc38       ?WriteProfile@CFotobrowApp@@QAEXXZ 0042ec38 f fotobrow.obj
 0001:0002dc6e       ?ReadRegistry@CFotobrowApp@@QAEHXZ 0042ec6e f fotobrow.obj
 0001:0002dd42       ?WriteRegistry@CFotobrowApp@@QAEXXZ 0042ed42 f fotobrow.obj
 0001:0002dd58       ?OnSetProject@CFotobrowApp@@QAEJPAUEnvStrings@@@Z 0042ed58 f fotobrow.obj
 0001:0002ddcd       ?SetReferenceNode@CFotobrowApp@@QAEXPAVPtg3DNode@@@Z 0042edcd f fotobrow.obj
 0001:0002de06       ?SetTransform@CFotobrowApp@@QAEXQAN@Z 0042ee06 f fotobrow.obj
 0001:0002def0       ??_ECFotobrowApp@@UAEPAXI@Z 0042eef0 f fotobrow.obj
 0001:0002def0       ??_GCFotobrowApp@@UAEPAXI@Z 0042eef0 f fotobrow.obj
 0001:0002df30       ??1COleTemplateServer@@UAE@XZ 0042ef30 f fotobrow.obj
 0001:0002df90       ??0TritonTask@@QAE@PAD@Z   0042ef90 f fotobrow.obj
 0001:0002e060       ?getModel@PtgWorld@@QAEPAVPtg3DNode@@XZ 0042f060 f fotobrow.obj
 0001:0002e080       ??_ECAboutDlg@@UAEPAXI@Z   0042f080 f fotobrow.obj
 0001:0002e080       ??_GCAboutDlg@@UAEPAXI@Z   0042f080 f fotobrow.obj
 0001:0002e0c0       ??1CAboutDlg@@UAE@XZ       0042f0c0 f fotobrow.obj
 0001:0002e160       ?isDatabaseOpen@CFotobrowApp@@QAEHXZ 0042f160 f fotobrow.obj
 0001:0002e180       ??_GrvqLiteTask@@QAEPAXI@Z 0042f180 f fotobrow.obj
 0001:0002e1c0       ??1COpenProjectDlg@@UAE@XZ 0042f1c0 f fotobrow.obj
 0001:0002e270       ?RefreshGrid@PointGridBar@@QAEXXZ 0042f270 f fotobrow.obj
 0001:0002e2a0       ?get3DPointGridBar@CMainFrame@@QAEPAVPointGridBar@@XZ 0042f2a0 f fotobrow.obj
 0001:0002e2c0       ??0CCoordXformDlg@@QAE@PAVCWnd@@@Z 0042f2c0 f coordxfo.obj
 0001:0002e415       ?DoDataExchange@CCoordXformDlg@@MAEXPAVCDataExchange@@@Z 0042f415 f coordxfo.obj
 0001:0002e52e       ?_GetBaseMessageMap@CCoordXformDlg@@KGPBUAFX_MSGMAP@@XZ 0042f52e f coordxfo.obj
 0001:0002e543       ?GetMessageMap@CCoordXformDlg@@MBEPBUAFX_MSGMAP@@XZ 0042f543 f coordxfo.obj
 0001:0002e55e       ?OnOK@CCoordXformDlg@@MAEXXZ 0042f55e f coordxfo.obj
 0001:0002eaa2       ?OnMakeIdentity@CCoordXformDlg@@IAEXXZ 0042faa2 f coordxfo.obj
 0001:0002eb7e       ?OnImportData@CCoordXformDlg@@IAEXXZ 0042fb7e f coordxfo.obj
 0001:0002eba0       ??_ECCoordXformDlg@@UAEPAXI@Z 0042fba0 f coordxfo.obj
 0001:0002eba0       ??_GCCoordXformDlg@@UAEPAXI@Z 0042fba0 f coordxfo.obj
 0001:0002ebe0       ??1CCoordXformDlg@@UAE@XZ  0042fbe0 f coordxfo.obj
 0001:0002ec40       ?GetTransform@CFotobrowApp@@QAEPANXZ 0042fc40 f coordxfo.obj
 0001:0002ec60       ?CreateObject@CFotobrowDoc@@SGPAVCObject@@XZ 0042fc60 f fotobdoc.obj
 0001:0002ece8       ?_GetBaseClass@CFotobrowDoc@@KGPAUCRuntimeClass@@XZ 0042fce8 f fotobdoc.obj
 0001:0002ecfd       ?GetRuntimeClass@CFotobrowDoc@@UBEPAUCRuntimeClass@@XZ 0042fcfd f fotobdoc.obj
 0001:0002ed18       ?_GetBaseMessageMap@CFotobrowDoc@@KGPBUAFX_MSGMAP@@XZ 0042fd18 f fotobdoc.obj
 0001:0002ed2d       ?GetMessageMap@CFotobrowDoc@@MBEPBUAFX_MSGMAP@@XZ 0042fd2d f fotobdoc.obj
 0001:0002ed48       ?_GetBaseDispatchMap@CFotobrowDoc@@KGPBUAFX_DISPMAP@@XZ 0042fd48 f fotobdoc.obj
 0001:0002ed5d       ?GetDispatchMap@CFotobrowDoc@@MBEPBUAFX_DISPMAP@@XZ 0042fd5d f fotobdoc.obj
 0001:0002ed78       ??0CFotobrowDoc@@IAE@XZ    0042fd78 f fotobdoc.obj
 0001:0002ee23       ??1CFotobrowDoc@@UAE@XZ    0042fe23 f fotobdoc.obj
 0001:0002ef2d       ?OnNewDocument@CFotobrowDoc@@UAEHXZ 0042ff2d f fotobdoc.obj
 0001:0002efe3       ?Serialize@CFotobrowDoc@@UAEXAAVCArchive@@@Z 0042ffe3 f fotobdoc.obj
 0001:0002f22a       ?AssertValid@CFotobrowDoc@@UBEXXZ 0043022a f fotobdoc.obj
 0001:0002f248       ?Dump@CFotobrowDoc@@UBEXAAVCDumpContext@@@Z 00430248 f fotobdoc.obj
 0001:0002f26c       ?GetView@CFotobrowDoc@@QAEPAVCFotobrowView@@XZ 0043026c f fotobdoc.obj
 0001:0002f29f       ?CheckSelected@CFotobrowDoc@@QAEHXZ 0043029f f fotobdoc.obj
 0001:0002f2db       ?setImageName@CFotobrowDoc@@QAEXPBD@Z 004302db f fotobdoc.obj
 0001:0002f320       ??_ECFotobrowDoc@@UAEPAXI@Z 00430320 f fotobdoc.obj
 0001:0002f320       ??_GCFotobrowDoc@@UAEPAXI@Z 00430320 f fotobdoc.obj
 0001:0002f360       ?CheckSelected@CFotobrowView@@QAEHXZ 00430360 f fotobdoc.obj
 0001:0002f380       ?ElementListRightClick@@YAHPAU_func_table@@PAU_TREEITEM@@AAVCWnd@@AAVCPoint@@H@Z 00430380 f treemenu.obj
 0001:0002f540       ?drawWireframe@Ptg3DPointObj@@MAEXXZ 00430540 f Ptg3DPointObjOGL.obj
 0001:0002f58c       ?drawSolid@Ptg3DPointObj@@MAEXXZ 0043058c f Ptg3DPointObjOGL.obj
 0001:0002f5b0       ?CreateObject@CElementListView@@SGPAVCObject@@XZ 004305b0 f ElementListView.obj
 0001:0002f5f0       ?_GetBaseClass@CElementListView@@KGPAUCRuntimeClass@@XZ 004305f0 f ElementListView.obj
 0001:0002f605       ?GetRuntimeClass@CElementListView@@UBEPAUCRuntimeClass@@XZ 00430605 f ElementListView.obj
 0001:0002f620       ??0CElementListView@@IAE@XZ 00430620 f ElementListView.obj
 0001:0002f6b5       ??1CElementListView@@MAE@XZ 004306b5 f ElementListView.obj
 0001:0002f739       ?DoDataExchange@CElementListView@@MAEXPAVCDataExchange@@@Z 00430739 f ElementListView.obj
 0001:0002f774       ?_GetBaseMessageMap@CElementListView@@KGPBUAFX_MSGMAP@@XZ 00430774 f ElementListView.obj
 0001:0002f789       ?GetMessageMap@CElementListView@@MBEPBUAFX_MSGMAP@@XZ 00430789 f ElementListView.obj
 0001:0002f7a4       ?AssertValid@CElementListView@@MBEXXZ 004307a4 f ElementListView.obj
 0001:0002f7c2       ?Dump@CElementListView@@MBEXAAVCDumpContext@@@Z 004307c2 f ElementListView.obj
 0001:0002f7e6       ?OnCreate@CElementListView@@IAEHPAUtagCREATESTRUCTA@@@Z 004307e6 f ElementListView.obj
 0001:0002f85d       ?OnSelchangedElementList@CElementListView@@IAEXPAUtagNMHDR@@PAJ@Z 0043085d f ElementListView.obj
 0001:0002f8ec       ?OnInitialUpdate@CElementListView@@UAEXXZ 004308ec f ElementListView.obj
 0001:0002fb77       ?OnSize@CElementListView@@IAEXIHH@Z 00430b77 f ElementListView.obj
 0001:0002fbf0       ?FillDrawList@CElementListView@@QAEXPAVPtg3DNode@@@Z 00430bf0 f ElementListView.obj
 0001:0002fc9a       ?AddToDrawList@CElementListView@@QAEPAU_TREEITEM@@PAVPtg3DNode@@PAU2@HHH@Z 00430c9a f ElementListView.obj
 0001:0002fec3       ?AddParent@CElementListView@@QAEPAU_TREEITEM@@PAVPtg3DNode@@@Z 00430ec3 f ElementListView.obj
 0001:0002ff20       ?FindMeInTree@CElementListView@@QAEPAU_TREEITEM@@PAU2@PAVPtg3DNode@@@Z 00430f20 f ElementListView.obj
 0001:0002ffe9       ?PruneDrawList@CElementListView@@QAEPAU_TREEITEM@@PAU2@@Z 00430fe9 f ElementListView.obj
 0001:000300c8       ?OnRclickElementList@CElementListView@@IAEXPAUtagNMHDR@@PAJ@Z 004310c8 f ElementListView.obj
 0001:000301d2       ?OnMemberlistProperties@CElementListView@@IAEXXZ 004311d2 f ElementListView.obj
 0001:000301e8       ?OnMemberlistVisible@CElementListView@@QAEXH@Z 004311e8 f ElementListView.obj
 0001:000303d1       ?OnMemberlistVisibleSolid@CElementListView@@IAEXXZ 004313d1 f ElementListView.obj
 0001:000303fe       ?OnMemberlistVisibleWireframe@CElementListView@@IAEXXZ 004313fe f ElementListView.obj
 0001:0003042b       ?OnMemberlistVisibleInvisible@CElementListView@@IAEXXZ 0043142b f ElementListView.obj
 0001:00030458       ?OnMemberlistSetAsReferenceNode@CElementListView@@IAEXXZ 00431458 f ElementListView.obj
 0001:000304d3       ?OnMemberListCalcCircBy3DPoints@CElementListView@@IAEXXZ 004314d3 f ElementListView.obj
 0001:00030549       ?recurse3DNodeTree@CElementListView@@QAEXPAVPtg3DNode@@H@Z 00431549 f ElementListView.obj
 0001:0003065d       ?recurseElementTree@CElementListView@@QAEXPAU_TREEITEM@@H@Z 0043165d f ElementListView.obj
 0001:000308c4       ?OnColorBlack@CElementListView@@QAEXXZ 004318c4 f ElementListView.obj
 0001:000308e8       ?OnColorMaroon@CElementListView@@QAEXXZ 004318e8 f ElementListView.obj
 0001:0003090c       ?OnColorOlive@CElementListView@@QAEXXZ 0043190c f ElementListView.obj
 0001:00030930       ?OnColorGreen@CElementListView@@QAEXXZ 00431930 f ElementListView.obj
 0001:00030954       ?OnColorTeal@CElementListView@@QAEXXZ 00431954 f ElementListView.obj
 0001:00030978       ?OnColorNavy@CElementListView@@QAEXXZ 00431978 f ElementListView.obj
 0001:0003099c       ?OnColorWine@CElementListView@@QAEXXZ 0043199c f ElementListView.obj
 0001:000309c0       ?OnColorGrey@CElementListView@@QAEXXZ 004319c0 f ElementListView.obj
 0001:000309e4       ?OnColorPink@CElementListView@@QAEXXZ 004319e4 f ElementListView.obj
 0001:00030a08       ?OnColorOrange@CElementListView@@QAEXXZ 00431a08 f ElementListView.obj
 0001:00030a2c       ?OnColorChartruse@CElementListView@@QAEXXZ 00431a2c f ElementListView.obj
 0001:00030a50       ?OnColorPurple@CElementListView@@QAEXXZ 00431a50 f ElementListView.obj
 0001:00030a74       ?OnColorSkyBlue@CElementListView@@QAEXXZ 00431a74 f ElementListView.obj
 0001:00030a98       ?OnColorRed@CElementListView@@QAEXXZ 00431a98 f ElementListView.obj
 0001:00030abc       ?OnColorYellow@CElementListView@@QAEXXZ 00431abc f ElementListView.obj
 0001:00030ae0       ?OnColorLime@CElementListView@@QAEXXZ 00431ae0 f ElementListView.obj
 0001:00030b04       ?OnColorAqua@CElementListView@@QAEXXZ 00431b04 f ElementListView.obj
 0001:00030b28       ?OnColorBlue@CElementListView@@QAEXXZ 00431b28 f ElementListView.obj
 0001:00030b4c       ?OnColorMagenta@CElementListView@@QAEXXZ 00431b4c f ElementListView.obj
 0001:00030b70       ?OnColorWhite@CElementListView@@QAEXXZ 00431b70 f ElementListView.obj
 0001:00030b94       ?DoColorSet@CElementListView@@QAEXK@Z 00431b94 f ElementListView.obj
 0001:00030c7b       ?RecurseColorSet@CElementListView@@QAEXPAVPtg3DNode@@K@Z 00431c7b f ElementListView.obj
 0001:00030d6c       ?OnCurrentElementChange@CElementListView@@IAEJIJ@Z 00431d6c f ElementListView.obj
 0001:00030db5       ?PurgeExtraData@CElementListView@@QAEXPAU_TREEITEM@@@Z 00431db5 f ElementListView.obj
 0001:00030e79       ?OnDestroy@CElementListView@@IAEXXZ 00431e79 f ElementListView.obj
 0001:00030f2f       ?OnMemberlistDelete@CElementListView@@IAEXXZ 00431f2f f ElementListView.obj
 0001:00030fd5       ?deleteNode@@YAXPAVPtg3DNode@@@Z 00431fd5 f ElementListView.obj
 0001:000310e6       ?OnMemberlistSavedgn@CElementListView@@IAEXXZ 004320e6 f ElementListView.obj
 0001:000312c0       ??_ECElementListView@@MAEPAXI@Z 004322c0 f ElementListView.obj
 0001:000312c0       ??_GCElementListView@@MAEPAXI@Z 004322c0 f ElementListView.obj
 0001:00031300       ??1CFormView@@UAE@XZ       00432300 f ElementListView.obj
 0001:00031360       ?getOwner@HierElem@@QAEPAV1@XZ 00432360 f ElementListView.obj
 0001:00031380       ?getName@Ptg3DNode@@QAEPBDXZ 00432380 f ElementListView.obj
 0001:000313a0       ?getMemberList@HierElem@@QAEAAV?$CList@PAVHierElem@@PAV1@@@XZ 004323a0 f ElementListView.obj
 0001:000313c0       ?setActive@Ptg3DNode@@QAEXH@Z 004323c0 f ElementListView.obj
 0001:000313f0       ?isActive@Ptg3DNode@@QAEHXZ 004323f0 f ElementListView.obj
 0001:00031410       ??1CFileDialog@@UAE@XZ     00432410 f ElementListView.obj
 0001:00031490       ??1CCommonDialog@@UAE@XZ   00432490 f ElementListView.obj
 0001:000314f0       ?IsEmpty@?$CList@PAVHierElem@@PAV1@@@QBEHXZ 004324f0 f ElementListView.obj
 0001:00031520       ?GetHeadPosition@?$CList@PAVHierElem@@PAV1@@@QBEPAU__POSITION@@XZ 00432520 f ElementListView.obj
 0001:00031540       ?GetNext@?$CList@PAVHierElem@@PAV1@@@QAEAAPAVHierElem@@AAPAU__POSITION@@@Z 00432540 f ElementListView.obj
 0001:000315a0       ?GetAt@?$CList@PAVHierElem@@PAV1@@@QAEAAPAVHierElem@@PAU__POSITION@@@Z 004325a0 f ElementListView.obj
 0001:00031600       ?RemoveAt@?$CList@PAVHierElem@@PAV1@@@QAEXPAU__POSITION@@@Z 00432600 f ElementListView.obj
 0001:00031730       ?Find@?$CList@PAVHierElem@@PAV1@@@QBEPAU__POSITION@@PAVHierElem@@PAU2@@Z 00432730 f ElementListView.obj
 0001:000317f0       ?FreeNode@?$CList@PAVHierElem@@PAV1@@@IAEXPAUCNode@1@@Z 004327f0 f ElementListView.obj
 0001:00031870       ?RemoveAll@?$CList@PAVHierElem@@PAV1@@@QAEXXZ 00432870 f ElementListView.obj
 0001:00031910       ?CompareElements@@YGHPBQAVHierElem@@0@Z 00432910 f ElementListView.obj
 0001:000319a0       ?DestructElements@@YGXPAPAVHierElem@@H@Z 004329a0 f ElementListView.obj
 0001:00031a10       ?cyliErrorCB@@YGXI@Z       00432a10 f Ptg3DCtorObjOGL.obj
 0001:00031a48       ?drawCircTorus@@YAXMMMM@Z  00432a48 f Ptg3DCtorObjOGL.obj
 0001:00031f5b       ?drawWireframe@Ptg3DCtorObj@@MAEXXZ 00432f5b f Ptg3DCtorObjOGL.obj
 0001:00031fec       ?drawSolid@Ptg3DCtorObj@@MAEXXZ 00432fec f Ptg3DCtorObjOGL.obj
 0001:00032080       ??0CTransformDlg@@QAE@PAVCWnd@@@Z 00433080 f transfor.obj
 0001:00032217       ?DoDataExchange@CTransformDlg@@MAEXPAVCDataExchange@@@Z 00433217 f transfor.obj
 0001:00032347       ?_GetBaseMessageMap@CTransformDlg@@KGPBUAFX_MSGMAP@@XZ 00433347 f transfor.obj
 0001:0003235c       ?GetMessageMap@CTransformDlg@@MBEPBUAFX_MSGMAP@@XZ 0043335c f transfor.obj
 0001:00032377       ?OnInitDialog@CTransformDlg@@MAEHXZ 00433377 f transfor.obj
 0001:000324a3       ?OnOK@CTransformDlg@@MAEXXZ 004334a3 f transfor.obj
 0001:000325ca       ?setProjectID@CTransformDlg@@QAEXPBD@Z 004335ca f transfor.obj
 0001:00032600       ??_GCTransformDlg@@UAEPAXI@Z 00433600 f transfor.obj
 0001:00032600       ??_ECTransformDlg@@UAEPAXI@Z 00433600 f transfor.obj
 0001:00032640       ??1CTransformDlg@@UAE@XZ   00433640 f transfor.obj
 0001:000326c0       ?importSurveyData@@YAHPADPAVPtg3DNode@@@Z 004336c0 f importSurveyData.obj
 0001:00032920       ??0CCircleBy3DPoint@@QAE@PAVCWnd@@@Z 00433920 f CircleBy3DPoint.obj
 0001:000329a4       ?DoDataExchange@CCircleBy3DPoint@@MAEXPAVCDataExchange@@@Z 004339a4 f CircleBy3DPoint.obj
 0001:000329dd       ?_GetBaseMessageMap@CCircleBy3DPoint@@KGPBUAFX_MSGMAP@@XZ 004339dd f CircleBy3DPoint.obj
 0001:000329f2       ?GetMessageMap@CCircleBy3DPoint@@MBEPBUAFX_MSGMAP@@XZ 004339f2 f CircleBy3DPoint.obj
 0001:00032a0d       ?OnOK@CCircleBy3DPoint@@MAEXXZ 00433a0d f CircleBy3DPoint.obj
 0001:00032b3b       ?OnCancel@CCircleBy3DPoint@@MAEXXZ 00433b3b f CircleBy3DPoint.obj
 0001:00032b59       ?OnCalculate@CCircleBy3DPoint@@IAEXXZ 00433b59 f CircleBy3DPoint.obj
 0001:00032fbc       ?OnInitDialog@CCircleBy3DPoint@@MAEHXZ 00433fbc f CircleBy3DPoint.obj
 0001:00033010       ??_ECCircleBy3DPoint@@UAEPAXI@Z 00434010 f CircleBy3DPoint.obj
 0001:00033010       ??_GCCircleBy3DPoint@@UAEPAXI@Z 00434010 f CircleBy3DPoint.obj
 0001:00033050       ??1CCircleBy3DPoint@@UAE@XZ 00434050 f CircleBy3DPoint.obj
 0001:000330b0       ?getUniqID@Ptg3DNode@@QAEHXZ 004340b0 f CircleBy3DPoint.obj
 0001:000330d0       ?setRadius@Ptg3DCylinderObj@@QAEXN@Z 004340d0 f CircleBy3DPoint.obj
 0001:00033100       ?setHeight@Ptg3DCylinderObj@@QAEXN@Z 00434100 f CircleBy3DPoint.obj
 0001:00033130       ?CreateObject@CColumnEditor@@SGPAVCObject@@XZ 00434130 f ColumnEditor.obj
 0001:00033170       ?_GetBaseClass@CColumnEditor@@KGPAUCRuntimeClass@@XZ 00434170 f ColumnEditor.obj
 0001:00033185       ?GetRuntimeClass@CColumnEditor@@UBEPAUCRuntimeClass@@XZ 00434185 f ColumnEditor.obj
 0001:000331a0       ??0CColumnEditor@@IAE@XZ   004341a0 f ColumnEditor.obj
 0001:00033277       ??1CColumnEditor@@MAE@XZ   00434277 f ColumnEditor.obj
 0001:00033333       ?DoDataExchange@CColumnEditor@@MAEXPAVCDataExchange@@@Z 00434333 f ColumnEditor.obj
 0001:00033357       ?_GetBaseMessageMap@CColumnEditor@@KGPBUAFX_MSGMAP@@XZ 00434357 f ColumnEditor.obj
 0001:0003336c       ?GetMessageMap@CColumnEditor@@MBEPBUAFX_MSGMAP@@XZ 0043436c f ColumnEditor.obj
 0001:00033387       ?AssertValid@CColumnEditor@@MBEXXZ 00434387 f ColumnEditor.obj
 0001:000333a5       ?Dump@CColumnEditor@@MBEXAAVCDumpContext@@@Z 004343a5 f ColumnEditor.obj
 0001:000333c9       ?_GetBaseEventSinkMap@CColumnEditor@@KGPBUAFX_EVENTSINKMAP@@XZ 004343c9 f ColumnEditor.obj
 0001:000333de       ?GetEventSinkMap@CColumnEditor@@MBEPBUAFX_EVENTSINKMAP@@XZ 004343de f ColumnEditor.obj
 0001:000333f9       ?OnChangeColumngrid@CColumnEditor@@IAEXJJ@Z 004343f9 f ColumnEditor.obj
 0001:00033e76       ?OnInitialUpdate@CColumnEditor@@UAEXXZ 00434e76 f ColumnEditor.obj
 0001:00033f80       ?OnSize@CColumnEditor@@IAEXIHH@Z 00434f80 f ColumnEditor.obj
 0001:00034013       ?InsertRow@CColumnEditor@@QAEXXZ 00435013 f ColumnEditor.obj
 0001:000344d2       ?DataTableToColumnData@@YAHAAVCDTData@@AAUColumnData@@@Z 004354d2 f ColumnEditor.obj
 0001:000345db       ?ColumnDataToDataTable@@YAHAAUColumnData@@AAVCDTData@@@Z 004355db f ColumnEditor.obj
 0001:000346fd       ?OnBeforeDeleteRowColumngrid@CColumnEditor@@IAEXJPAJ@Z 004356fd f ColumnEditor.obj
 0001:00034967       ?OnUnitsChange@CColumnEditor@@IAEJIJ@Z 00435967 f ColumnEditor.obj
 0001:00034ba3       ?UpdateUnits@CColumnEditor@@QAEXPAUColumnData@@@Z 00435ba3 f ColumnEditor.obj
 0001:00034d80       ??_GCColumnEditor@@MAEPAXI@Z 00435d80 f ColumnEditor.obj
 0001:00034d80       ??_ECColumnEditor@@MAEPAXI@Z 00435d80 f ColumnEditor.obj
 0001:00034dc0       ?GetElement@AllElements@@QAEPAVElementObj@@XZ 00435dc0 f ColumnEditor.obj
 0001:00034de0       ??0CDTData@@QAE@ABUtagVARIANT@@@Z 00435de0 f ColumnEditor.obj
 0001:00034e70       ??1CDTData@@QAE@XZ         00435e70 f ColumnEditor.obj
 0001:00034ef0       ??1CDTRow@@QAE@XZ          00435ef0 f ColumnEditor.obj
 0001:00034f50       ??0CDTData@@QAE@XZ         00435f50 f ColumnEditor.obj
 0001:00034fe0       ?CreateArray@CDTData@@QAEXH@Z 00435fe0 f ColumnEditor.obj
 0001:00035030       ?GetItem@CDTData@@QAEXPAJJ@Z 00436030 f ColumnEditor.obj
 0001:00035090       ?GetItem@CDTData@@QAEXPANJ@Z 00436090 f ColumnEditor.obj
 0001:000350f0       ?GetItem@CDTData@@QAEXQBDJ@Z 004360f0 f ColumnEditor.obj
 0001:000351b0       ?PutItem@CDTData@@QAEXQBDJ@Z 004361b0 f ColumnEditor.obj
 0001:00035200       ?PutItem@CDTData@@QAEXJJ@Z 00436200 f ColumnEditor.obj
 0001:00035250       ?PutItem@CDTData@@QAEXNJ@Z 00436250 f ColumnEditor.obj
 0001:000352a0       ??0Ptg3DPyramidObj@@QAE@XZ 004362a0 f Ptg3DPyramidObj.obj
 0001:00035317       ??1Ptg3DPyramidObj@@UAE@XZ 00436317 f Ptg3DPyramidObj.obj
 0001:0003537f       ?initVars@Ptg3DPyramidObj@@AAEXXZ 0043637f f Ptg3DPyramidObj.obj
 0001:0003540f       ?setHeight@Ptg3DPyramidObj@@QAEXN@Z 0043640f f Ptg3DPyramidObj.obj
 0001:00035436       ?setBaseDims@Ptg3DPyramidObj@@QAEXNN@Z 00436436 f Ptg3DPyramidObj.obj
 0001:0003546c       ?setTopDims@Ptg3DPyramidObj@@QAEXNN@Z 0043646c f Ptg3DPyramidObj.obj
 0001:000354a2       ?setOffsets@Ptg3DPyramidObj@@QAEXNN@Z 004364a2 f Ptg3DPyramidObj.obj
 0001:000354e0       ?getType@Ptg3DPyramidObj@@UAEPBDXZ 004364e0 f Ptg3DPyramidObj.obj
 0001:00035500       ??_GPtg3DPyramidObj@@UAEPAXI@Z 00436500 f Ptg3DPyramidObj.obj
 0001:00035500       ??_EPtg3DPyramidObj@@UAEPAXI@Z 00436500 f Ptg3DPyramidObj.obj
 0001:00035540       ?CreateObject@Maintenance@@SGPAVCObject@@XZ 00436540 f maintena.obj
 0001:000355cb       ?_GetBaseClass@Maintenance@@KGPAUCRuntimeClass@@XZ 004365cb f maintena.obj
 0001:000355e0       ?GetRuntimeClass@Maintenance@@UBEPAUCRuntimeClass@@XZ 004365e0 f maintena.obj
 0001:000355fb       ??0Maintenance@@QAE@XZ     004365fb f maintena.obj
 0001:00035858       ??1Maintenance@@UAE@XZ     00436858 f maintena.obj
 0001:00035929       ?DoDataExchange@Maintenance@@MAEXPAVCDataExchange@@@Z 00436929 f maintena.obj
 0001:0003597b       ?_GetBaseMessageMap@Maintenance@@KGPBUAFX_MSGMAP@@XZ 0043697b f maintena.obj
 0001:00035990       ?GetMessageMap@Maintenance@@MBEPBUAFX_MSGMAP@@XZ 00436990 f maintena.obj
 0001:000359ab       ?OnInitDialog@Maintenance@@MAEHXZ 004369ab f maintena.obj
 0001:00035b08       ?OnRadiographyData@Maintenance@@IAEXXZ 00436b08 f maintena.obj
 0001:00035b80       ??_GMaintenance@@UAEPAXI@Z 00436b80 f maintena.obj
 0001:00035b80       ??_EMaintenance@@UAEPAXI@Z 00436b80 f maintena.obj
 0001:00035bc0       ??1CRadiographyData@@UAE@XZ 00436bc0 f maintena.obj
 0001:00035c60       ??0CBundleCalcDlg@@QAE@PAVCWnd@@@Z 00436c60 f BundleCalcDlg.obj
 0001:00035cfd       ?OnFinalRelease@CBundleCalcDlg@@UAEXXZ 00436cfd f BundleCalcDlg.obj
 0001:00035d1b       ?DoDataExchange@CBundleCalcDlg@@MAEXPAVCDataExchange@@@Z 00436d1b f BundleCalcDlg.obj
 0001:00035d54       ?_GetBaseMessageMap@CBundleCalcDlg@@KGPBUAFX_MSGMAP@@XZ 00436d54 f BundleCalcDlg.obj
 0001:00035d69       ?GetMessageMap@CBundleCalcDlg@@MBEPBUAFX_MSGMAP@@XZ 00436d69 f BundleCalcDlg.obj
 0001:00035d84       ?_GetBaseDispatchMap@CBundleCalcDlg@@KGPBUAFX_DISPMAP@@XZ 00436d84 f BundleCalcDlg.obj
 0001:00035d99       ?GetDispatchMap@CBundleCalcDlg@@MBEPBUAFX_DISPMAP@@XZ 00436d99 f BundleCalcDlg.obj
 0001:00035db4       ?_GetBaseInterfaceMap@CBundleCalcDlg@@KGPBUAFX_INTERFACEMAP@@XZ 00436db4 f BundleCalcDlg.obj
 0001:00035dc9       ?GetInterfaceMap@CBundleCalcDlg@@MBEPBUAFX_INTERFACEMAP@@XZ 00436dc9 f BundleCalcDlg.obj
 0001:00035de4       ?OnCalculate@CBundleCalcDlg@@IAEXXZ 00436de4 f BundleCalcDlg.obj
 0001:00035ec2       ?OnCancel@CBundleCalcDlg@@MAEXXZ 00436ec2 f BundleCalcDlg.obj
 0001:00035ee0       ?OnInitDialog@CBundleCalcDlg@@MAEHXZ 00436ee0 f BundleCalcDlg.obj
 0001:00035fb0       ??_GCBundleCalcDlg@@UAEPAXI@Z 00436fb0 f BundleCalcDlg.obj
 0001:00035fb0       ??_ECBundleCalcDlg@@UAEPAXI@Z 00436fb0 f BundleCalcDlg.obj
 0001:00035ff0       ??1CBundleCalcDlg@@UAE@XZ  00436ff0 f BundleCalcDlg.obj
 0001:00036070       ??0CCreateQuickCylinderDlg@@QAE@PAVCWnd@@@Z 00437070 f CreateQuickCylinderDlg.obj
 0001:0003611c       ?DoDataExchange@CCreateQuickCylinderDlg@@MAEXPAVCDataExchange@@@Z 0043711c f CreateQuickCylinderDlg.obj
 0001:00036155       ?_GetBaseMessageMap@CCreateQuickCylinderDlg@@KGPBUAFX_MSGMAP@@XZ 00437155 f CreateQuickCylinderDlg.obj
 0001:0003616a       ?GetMessageMap@CCreateQuickCylinderDlg@@MBEPBUAFX_MSGMAP@@XZ 0043716a f CreateQuickCylinderDlg.obj
 0001:00036185       ?OnCancel@CCreateQuickCylinderDlg@@MAEXXZ 00437185 f CreateQuickCylinderDlg.obj
 0001:000361a3       ?OnCalculate@CCreateQuickCylinderDlg@@IAEXXZ 004371a3 f CreateQuickCylinderDlg.obj
 0001:00036901       ?OnAcceptPoint@CCreateQuickCylinderDlg@@IAEXXZ 00437901 f CreateQuickCylinderDlg.obj
 0001:00036b24       ?OnInitDialog@CCreateQuickCylinderDlg@@MAEHXZ 00437b24 f CreateQuickCylinderDlg.obj
 0001:00036b50       ??_GCCreateQuickCylinderDlg@@UAEPAXI@Z 00437b50 f CreateQuickCylinderDlg.obj
 0001:00036b50       ??_ECCreateQuickCylinderDlg@@UAEPAXI@Z 00437b50 f CreateQuickCylinderDlg.obj
 0001:00036b90       ??1CCreateQuickCylinderDlg@@UAE@XZ 00437b90 f CreateQuickCylinderDlg.obj
 0001:00036bf0       ??0Ptg3DPointObj@@QAE@XZ   00437bf0 f Ptg3DPointObj.obj
 0001:00036c67       ??1Ptg3DPointObj@@UAE@XZ   00437c67 f Ptg3DPointObj.obj
 0001:00036ccf       ?initVars@Ptg3DPointObj@@AAEXXZ 00437ccf f Ptg3DPointObj.obj
 0001:00036ce5       ?setPosition@Ptg3DPointObj@@QAEXNNNPAVPtg3DNode@@@Z 00437ce5 f Ptg3DPointObj.obj
 0001:00036df6       ?getPosition@Ptg3DPointObj@@QAEPANPAVPtg3DNode@@@Z 00437df6 f Ptg3DPointObj.obj
 0001:00036eb3       ?getPosition@Ptg3DPointObj@@QAEXPAVPtg3DNode@@AAN11@Z 00437eb3 f Ptg3DPointObj.obj
 0001:00036f20       ?getType@Ptg3DPointObj@@UAEPBDXZ 00437f20 f Ptg3DPointObj.obj
 0001:00036f40       ??_EPtg3DPointObj@@UAEPAXI@Z 00437f40 f Ptg3DPointObj.obj
 0001:00036f40       ??_GPtg3DPointObj@@UAEPAXI@Z 00437f40 f Ptg3DPointObj.obj
 0001:00036f80       ?GetOpenGLPalette@@YAPAUtagLOGPALETTE@@XZ 00437f80 f paletteOGL.obj
 0001:00036fa0       ?GetBackColor@CDTRow@@QAEKXZ 00437fa0 f dtrow.obj
 0001:00036fc9       ?SetBackColor@CDTRow@@QAEXK@Z 00437fc9 f dtrow.obj
 0001:00036ff5       ?GetSelBackColor@CDTRow@@QAEKXZ 00437ff5 f dtrow.obj
 0001:0003701e       ?SetSelBackColor@CDTRow@@QAEXK@Z 0043801e f dtrow.obj
 0001:0003704a       ?GetForeColor@CDTRow@@QAEKXZ 0043804a f dtrow.obj
 0001:00037073       ?SetForeColor@CDTRow@@QAEXK@Z 00438073 f dtrow.obj
 0001:0003709f       ?GetSelForeColor@CDTRow@@QAEKXZ 0043809f f dtrow.obj
 0001:000370c8       ?SetSelForeColor@CDTRow@@QAEXK@Z 004380c8 f dtrow.obj
 0001:000370f4       ?GetFont@CDTRow@@QAE?AVCOleFont@@XZ 004380f4 f dtrow.obj
 0001:00037172       ?SetFont@CDTRow@@QAEXPAUIDispatch@@@Z 00438172 f dtrow.obj
 0001:0003719e       ?GetLabel@CDTRow@@QAE?AVCString@@XZ 0043819e f dtrow.obj
 0001:0003723d       ?SetLabel@CDTRow@@QAEXPBD@Z 0043823d f dtrow.obj
 0001:00037269       ?GetValue@CDTRow@@QAE?AUtagVARIANT@@XZ 00438269 f dtrow.obj
 0001:000372b0       ?SetValue@CDTRow@@QAEXABUtagVARIANT@@@Z 004382b0 f dtrow.obj
 0001:000372dc       ?GetSelected@CDTRow@@QAEHXZ 004382dc f dtrow.obj
 0001:00037305       ?SetSelected@CDTRow@@QAEXH@Z 00438305 f dtrow.obj
 0001:00037331       ?GetResize@CDTRow@@QAEJXZ  00438331 f dtrow.obj
 0001:0003735a       ?SetResize@CDTRow@@QAEXJ@Z 0043835a f dtrow.obj
 0001:00037386       ?GetHeight@CDTRow@@QAEMXZ  00438386 f dtrow.obj
 0001:000373af       ?SetHeight@CDTRow@@QAEXM@Z 004383af f dtrow.obj
 0001:000373e0       ?Invalidate@CDTRow@@QAEXXZ 004383e0 f dtrow.obj
 0001:00037410       ?_GetBaseClass@CGridBar@@KGPAUCRuntimeClass@@XZ 00438410 f gridbar.obj
 0001:00037425       ?GetRuntimeClass@CGridBar@@UBEPAUCRuntimeClass@@XZ 00438425 f gridbar.obj
 0001:00037440       ?_GetBaseMessageMap@CGridBar@@KGPBUAFX_MSGMAP@@XZ 00438440 f gridbar.obj
 0001:00037455       ?GetMessageMap@CGridBar@@MBEPBUAFX_MSGMAP@@XZ 00438455 f gridbar.obj
 0001:00037470       ?AssertValid@CGridBar@@UBEXXZ 00438470 f gridbar.obj
 0001:0003748e       ?Dump@CGridBar@@UBEXAAVCDumpContext@@@Z 0043848e f gridbar.obj
 0001:000374b2       ?OnEditCopy@CGridBar@@IAEXXZ 004384b2 f gridbar.obj
 0001:000374d6       ?OnEditCut@CGridBar@@IAEXXZ 004384d6 f gridbar.obj
 0001:000374fa       ?OnEditPaste@CGridBar@@IAEXXZ 004384fa f gridbar.obj
 0001:00037520       ?draw@PtgCamera@@QAEXXZ    00438520 f PtgCameraOGL.obj
 0001:0003764e       ?drawOrtho@PtgCamera@@AAEXXZ 0043864e f PtgCameraOGL.obj
 0001:000376dd       ?drawPerspective@PtgCamera@@AAEXXZ 004386dd f PtgCameraOGL.obj
 0001:00037760       ?CreateObject@CFrameMods@@SGPAVCObject@@XZ 00438760 f mfc_frames.obj
 0001:000377eb       ?_GetBaseClass@CFrameMods@@KGPAUCRuntimeClass@@XZ 004387eb f mfc_frames.obj
 0001:00037800       ?GetRuntimeClass@CFrameMods@@UBEPAUCRuntimeClass@@XZ 00438800 f mfc_frames.obj
 0001:0003781b       ??0CFrameMods@@IAE@XZ      0043881b f mfc_frames.obj
 0001:0003788a       ?_GetBaseMessageMap@CFrameMods@@KGPBUAFX_MSGMAP@@XZ 0043888a f mfc_frames.obj
 0001:0003789f       ?GetMessageMap@CFrameMods@@MBEPBUAFX_MSGMAP@@XZ 0043889f f mfc_frames.obj
 0001:000378ba       ?LoadFrame@CFrameMods@@UAEHIKPAVCWnd@@PAUCCreateContext@@@Z 004388ba f mfc_frames.obj
 0001:00037be1       ?PreCreateWindow@CFrameMods@@MAEHAAUtagCREATESTRUCTA@@@Z 00438be1 f mfc_frames.obj
 0001:00037c30       ??_GCFrameMods@@UAEPAXI@Z  00438c30 f mfc_frames.obj
 0001:00037c30       ??_ECFrameMods@@UAEPAXI@Z  00438c30 f mfc_frames.obj
 0001:00037c70       ??1CMDIChildWnd@@UAE@XZ    00438c70 f mfc_frames.obj
 0001:00037cd0       ??1CFrameMods@@UAE@XZ      00438cd0 f mfc_frames.obj
 0001:00037d30       ?CreateObject@Construction@@SGPAVCObject@@XZ 00438d30 f construct.obj
 0001:00037dbb       ?_GetBaseClass@Construction@@KGPAUCRuntimeClass@@XZ 00438dbb f construct.obj
 0001:00037dd0       ?GetRuntimeClass@Construction@@UBEPAUCRuntimeClass@@XZ 00438dd0 f construct.obj
 0001:00037deb       ??0Construction@@QAE@XZ    00438deb f construct.obj
 0001:00037e61       ??1Construction@@UAE@XZ    00438e61 f construct.obj
 0001:00037ec9       ?DoDataExchange@Construction@@MAEXPAVCDataExchange@@@Z 00438ec9 f construct.obj
 0001:00037eed       ?_GetBaseMessageMap@Construction@@KGPBUAFX_MSGMAP@@XZ 00438eed f construct.obj
 0001:00037f02       ?GetMessageMap@Construction@@MBEPBUAFX_MSGMAP@@XZ 00438f02 f construct.obj
 0001:00037f20       ??_GConstruction@@UAEPAXI@Z 00438f20 f construct.obj
 0001:00037f20       ??_EConstruction@@UAEPAXI@Z 00438f20 f construct.obj
 0001:00037f60       ??0CZoneSelectDlg@@QAE@PAVCWnd@@@Z 00438f60 f zonesele.obj
 0001:0003806b       ?DoDataExchange@CZoneSelectDlg@@MAEXPAVCDataExchange@@@Z 0043906b f zonesele.obj
 0001:000380bb       ?_GetBaseMessageMap@CZoneSelectDlg@@KGPBUAFX_MSGMAP@@XZ 004390bb f zonesele.obj
 0001:000380d0       ?GetMessageMap@CZoneSelectDlg@@MBEPBUAFX_MSGMAP@@XZ 004390d0 f zonesele.obj
 0001:000380eb       ?OnDblclkZonelist@CZoneSelectDlg@@IAEXXZ 004390eb f zonesele.obj
 0001:00038192       ?OnInitDialog@CZoneSelectDlg@@MAEHXZ 00439192 f zonesele.obj
 0001:00038213       ?InsertRow@CZoneSelectDlg@@QAEHXZ 00439213 f zonesele.obj
 0001:000382b4       ?SendClipMessage@CZoneSelectDlg@@QAEXJ@Z 004392b4 f zonesele.obj
 0001:00038437       ?OnOK@CZoneSelectDlg@@MAEXXZ 00439437 f zonesele.obj
 0001:00038510       ??_ECZoneSelectDlg@@UAEPAXI@Z 00439510 f zonesele.obj
 0001:00038510       ??_GCZoneSelectDlg@@UAEPAXI@Z 00439510 f zonesele.obj
 0001:00038550       ??1CZoneSelectDlg@@UAE@XZ  00439550 f zonesele.obj
 0001:00038620       ??0CSplashWnd@@IAE@XZ      00439620 f Splash.obj
 0001:000386aa       ??1CSplashWnd@@UAE@XZ      004396aa f Splash.obj
 0001:00038758       ?_GetBaseMessageMap@CSplashWnd@@KGPBUAFX_MSGMAP@@XZ 00439758 f Splash.obj
 0001:0003876d       ?GetMessageMap@CSplashWnd@@MBEPBUAFX_MSGMAP@@XZ 0043976d f Splash.obj
 0001:00038788       ?EnableSplashScreen@CSplashWnd@@SAXH@Z 00439788 f Splash.obj
 0001:000387a0       ?ShowSplashScreen@CSplashWnd@@SAXPAVCWnd@@@Z 004397a0 f Splash.obj
 0001:0003885a       ?PreTranslateAppMessage@CSplashWnd@@SAXPAUtagMSG@@@Z 0043985a f Splash.obj
 0001:00038907       ?Create@CSplashWnd@@IAEHPAVCWnd@@@Z 00439907 f Splash.obj
 0001:000389a3       ?HideSplashScreen@CSplashWnd@@IAEXXZ 004399a3 f Splash.obj
 0001:000389d0       ?PostNcDestroy@CSplashWnd@@UAEXXZ 004399d0 f Splash.obj
 0001:00038a0e       ?OnCreate@CSplashWnd@@IAEHPAUtagCREATESTRUCTA@@@Z 00439a0e f Splash.obj
 0001:00038a62       ?OnPaint@CSplashWnd@@IAEXXZ 00439a62 f Splash.obj
 0001:00038b83       ?OnTimer@CSplashWnd@@IAEXI@Z 00439b83 f Splash.obj
 0001:00038bb0       ??_ECSplashWnd@@UAEPAXI@Z  00439bb0 f Splash.obj
 0001:00038bb0       ??_GCSplashWnd@@UAEPAXI@Z  00439bb0 f Splash.obj
 0001:00038bf0       ?DoubleToUnitsString@@YAXNPAD@Z 00439bf0 f PointGridBar.obj
 0001:00038c4e       ?ValueCellToMMDouble@@YANVCDTData@@H@Z 00439c4e f PointGridBar.obj
 0001:00038d23       ??0PointGridBar@@QAE@XZ    00439d23 f PointGridBar.obj
 0001:00038dac       ??1PointGridBar@@UAE@XZ    00439dac f PointGridBar.obj
 0001:00038e14       ?_GetBaseMessageMap@PointGridBar@@KGPBUAFX_MSGMAP@@XZ 00439e14 f PointGridBar.obj
 0001:00038e29       ?GetMessageMap@PointGridBar@@MBEPBUAFX_MSGMAP@@XZ 00439e29 f PointGridBar.obj
 0001:00038e44       ?_GetBaseEventSinkMap@PointGridBar@@KGPBUAFX_EVENTSINKMAP@@XZ 00439e44 f PointGridBar.obj
 0001:00038e59       ?GetEventSinkMap@PointGridBar@@MBEPBUAFX_EVENTSINKMAP@@XZ 00439e59 f PointGridBar.obj
 0001:00038e74       ?OnLfClick3dPointGrid@PointGridBar@@IAEXFJJJPAJ@Z 00439e74 f PointGridBar.obj
 0001:00038f9a       ?OnRowChangePointGrid@PointGridBar@@IAEXJ@Z 00439f9a f PointGridBar.obj
 0001:0003906b       ?UpdateUnits@PointGridBar@@QAEXPAUGridRowData@@@Z 0043a06b f PointGridBar.obj
 0001:00039145       ?OnSize@PointGridBar@@IAEXIHH@Z 0043a145 f PointGridBar.obj
 0001:000392d3       ?OnEditCopy@PointGridBar@@IAEXXZ 0043a2d3 f PointGridBar.obj
 0001:0003931e       ?OnUpdateEditCopy@PointGridBar@@IAEXPAVCCmdUI@@@Z 0043a31e f PointGridBar.obj
 0001:00039342       ?OnEditCut@PointGridBar@@IAEXXZ 0043a342 f PointGridBar.obj
 0001:0003938d       ?OnUpdateEditCut@PointGridBar@@IAEXPAVCCmdUI@@@Z 0043a38d f PointGridBar.obj
 0001:000393b1       ?OnEditPaste@PointGridBar@@IAEXXZ 0043a3b1 f PointGridBar.obj
 0001:000393fc       ?OnUpdateEditPaste@PointGridBar@@IAEXPAVCCmdUI@@@Z 0043a3fc f PointGridBar.obj
 0001:00039420       ?OnBeforeDeleteRowPointGrid@PointGridBar@@IAEXJPAJ@Z 0043a420 f PointGridBar.obj
 0001:00039438       ?OnChangeNodeGrid@PointGridBar@@IAEXJJ@Z 0043a438 f PointGridBar.obj
 0001:0003987c       ?OnChangePointGrid@PointGridBar@@IAEXJJ@Z 0043a87c f PointGridBar.obj
 0001:00039c11       ?OnChangeCylinderGrid@PointGridBar@@IAEXJJ@Z 0043ac11 f PointGridBar.obj
 0001:00039f1a       ?OnChangeBoxGrid@PointGridBar@@IAEXJJ@Z 0043af1a f PointGridBar.obj
 0001:0003a249       ?OnNotify@PointGridBar@@UAEHIJPAJ@Z 0043b249 f PointGridBar.obj
 0001:0003a30d       ?Create@PointGridBar@@QAEHPAVCWnd@@I@Z 0043b30d f PointGridBar.obj
 0001:0003a430       ?OnCurrentElementChange@PointGridBar@@IAEJIJ@Z 0043b430 f PointGridBar.obj
 0001:0003a7d0       ?OnUnitsChange@PointGridBar@@IAEJIJ@Z 0043b7d0 f PointGridBar.obj
 0001:0003a843       ?OnNew3DElement@PointGridBar@@IAEJIJ@Z 0043b843 f PointGridBar.obj
 0001:0003a9d0       ?add3DObjToGrid@@YAHPAVCDatatbl@@PAVPtg3DNode@@@Z 0043b9d0 f PointGridBar.obj
 0001:0003ab78       ?add3DObjToGrid@@YAHPAVCDatatbl@@PAVPtg3DPointObj@@@Z 0043bb78 f PointGridBar.obj
 0001:0003ad68       ?add3DObjToGrid@@YAHPAVCDatatbl@@PAVPtg3DCalcPointObj@@@Z 0043bd68 f PointGridBar.obj
 0001:0003affb       ?add3DObjToGrid@@YAHPAVCDatatbl@@PAVPtg3DCylinderObj@@@Z 0043bffb f PointGridBar.obj
 0001:0003b504       ?add3DObjToGrid@@YAHPAVCDatatbl@@PAVPtg3DBoxObj@@@Z 0043c504 f PointGridBar.obj
 0001:0003b72e       ?update3DObjInGrid@@YAHPAVCDatatbl@@PAVPtg3DPointObj@@J@Z 0043c72e f PointGridBar.obj
 0001:0003bed2       ?OnLfClickNodeGrid@PointGridBar@@IAEXFJJJPAJ@Z 0043ced2 f PointGridBar.obj
 0001:0003bff8       ?OnLfClickBoxGrid@PointGridBar@@IAEXFJJJPAJ@Z 0043cff8 f PointGridBar.obj
 0001:0003c11e       ?OnLfClickCylinderGrid@PointGridBar@@IAEXFJJJPAJ@Z 0043d11e f PointGridBar.obj
 0001:0003c250       ??_GPointGridBar@@UAEPAXI@Z 0043d250 f PointGridBar.obj
 0001:0003c250       ??_EPointGridBar@@UAEPAXI@Z 0043d250 f PointGridBar.obj
 0001:0003c290       ??0CDTData@@QAE@ABV0@@Z    0043d290 f PointGridBar.obj
 0001:0003c320       ?setXLen@Ptg3DBoxObj@@QAEXN@Z 0043d320 f PointGridBar.obj
 0001:0003c350       ?setYLen@Ptg3DBoxObj@@QAEXN@Z 0043d350 f PointGridBar.obj
 0001:0003c380       ?setZLen@Ptg3DBoxObj@@QAEXN@Z 0043d380 f PointGridBar.obj
 0001:0003c3b0       ?getStdDev@Ptg3DCalcPointObj@@QAEPANXZ 0043d3b0 f PointGridBar.obj
 0001:0003c3e0       ?getRayMiss@Ptg3DCalcPointObj@@QAENXZ 0043d3e0 f PointGridBar.obj
 0001:0003c400       ?getRadius@Ptg3DCylinderObj@@QAENXZ 0043d400 f PointGridBar.obj
 0001:0003c420       ?getHeight@Ptg3DCylinderObj@@QAENXZ 0043d420 f PointGridBar.obj
 0001:0003c440       ?getXLen@Ptg3DBoxObj@@QAENXZ 0043d440 f PointGridBar.obj
 0001:0003c460       ?getYLen@Ptg3DBoxObj@@QAENXZ 0043d460 f PointGridBar.obj
 0001:0003c480       ?getZLen@Ptg3DBoxObj@@QAENXZ 0043d480 f PointGridBar.obj
 0001:0003c4a0       ??0CColorMenu@@QAE@XZ      0043d4a0 f colormenu.obj
 0001:0003c53f       ??1CColorMenu@@UAE@XZ      0043d53f f colormenu.obj
 0001:0003c5af       ?MeasureItem@CColorMenu@@UAEXPAUtagMEASUREITEMSTRUCT@@@Z 0043d5af f colormenu.obj
 0001:0003c5eb       ?DrawItem@CColorMenu@@UAEXPAUtagDRAWITEMSTRUCT@@@Z 0043d5eb f colormenu.obj
 0001:0003c777       ?AppendColorMenuItem@CColorMenu@@QAEXIK@Z 0043d777 f colormenu.obj
 0001:0003c7d0       ??_ECColorMenu@@UAEPAXI@Z  0043d7d0 f colormenu.obj
 0001:0003c7d0       ??_GCColorMenu@@UAEPAXI@Z  0043d7d0 f colormenu.obj
 0001:0003c810       ??0CCylinderData@@QAE@PAVCWnd@@@Z 0043d810 f CylinderData.obj
 0001:0003c92a       ?DoDataExchange@CCylinderData@@MAEXPAVCDataExchange@@@Z 0043d92a f CylinderData.obj
 0001:0003ca2e       ?_GetBaseMessageMap@CCylinderData@@KGPBUAFX_MSGMAP@@XZ 0043da2e f CylinderData.obj
 0001:0003ca43       ?GetMessageMap@CCylinderData@@MBEPBUAFX_MSGMAP@@XZ 0043da43 f CylinderData.obj
 0001:0003ca5e       ?OnInitDialog@CCylinderData@@MAEHXZ 0043da5e f CylinderData.obj
 0001:0003ca8b       ?OnCancel@CCylinderData@@MAEXXZ 0043da8b f CylinderData.obj
 0001:0003caa9       ?OnOK@CCylinderData@@MAEXXZ 0043daa9 f CylinderData.obj
 0001:0003cad1       ?setValues@CCylinderData@@QAEXNNPAN@Z 0043dad1 f CylinderData.obj
 0001:0003cb8a       ?getValues@CCylinderData@@QAEXPAN00@Z 0043db8a f CylinderData.obj
 0001:0003cc50       ??_GCCylinderData@@UAEPAXI@Z 0043dc50 f CylinderData.obj
 0001:0003cc50       ??_ECCylinderData@@UAEPAXI@Z 0043dc50 f CylinderData.obj
 0001:0003cc90       ??1CCylinderData@@UAE@XZ   0043dc90 f CylinderData.obj
 0001:0003ccf0       ?CreateObject@CFotogDoc@@SGPAVCObject@@XZ 0043dcf0 f fotogdoc.obj
 0001:0003cd78       ?_GetBaseClass@CFotogDoc@@KGPAUCRuntimeClass@@XZ 0043dd78 f fotogdoc.obj
 0001:0003cd8d       ?GetRuntimeClass@CFotogDoc@@UBEPAUCRuntimeClass@@XZ 0043dd8d f fotogdoc.obj
 0001:0003cda8       ??0CFotogDoc@@IAE@XZ       0043dda8 f fotogdoc.obj
 0001:0003ce29       ?OnNewDocument@CFotogDoc@@MAEHXZ 0043de29 f fotogdoc.obj
 0001:0003ce5b       ??1CFotogDoc@@UAE@XZ       0043de5b f fotogdoc.obj
 0001:0003ceee       ?OnFinalRelease@CFotogDoc@@UAEXXZ 0043deee f fotogdoc.obj
 0001:0003cf2c       ?_GetBaseMessageMap@CFotogDoc@@KGPBUAFX_MSGMAP@@XZ 0043df2c f fotogdoc.obj
 0001:0003cf41       ?GetMessageMap@CFotogDoc@@MBEPBUAFX_MSGMAP@@XZ 0043df41 f fotogdoc.obj
 0001:0003cf5c       ?_GetBaseDispatchMap@CFotogDoc@@KGPBUAFX_DISPMAP@@XZ 0043df5c f fotogdoc.obj
 0001:0003cf71       ?GetDispatchMap@CFotogDoc@@MBEPBUAFX_DISPMAP@@XZ 0043df71 f fotogdoc.obj
 0001:0003cf8c       ?AssertValid@CFotogDoc@@UBEXXZ 0043df8c f fotogdoc.obj
 0001:0003cfaa       ?Dump@CFotogDoc@@UBEXAAVCDumpContext@@@Z 0043dfaa f fotogdoc.obj
 0001:0003cfce       ?Serialize@CFotogDoc@@UAEXAAVCArchive@@@Z 0043dfce f fotogdoc.obj
 0001:0003d0c2       ?OnCloseDocument@CFotogDoc@@UAEXXZ 0043e0c2 f fotogdoc.obj
 0001:0003d0e0       ?OnOpenDocument@CFotogDoc@@UAEHPBD@Z 0043e0e0 f fotogdoc.obj
 0001:0003d120       ??_GCFotogDoc@@UAEPAXI@Z   0043e120 f fotogdoc.obj
 0001:0003d120       ??_ECFotogDoc@@UAEPAXI@Z   0043e120 f fotogdoc.obj
 0001:0003d160       ??0PtgCamera@@QAE@XZ       0043e160 f PtgCamera.obj
 0001:0003d181       ??1PtgCamera@@QAE@XZ       0043e181 f PtgCamera.obj
 0001:0003d1aa       ?initVars@PtgCamera@@AAEXXZ 0043e1aa f PtgCamera.obj
 0001:0003d29d       ?setPosition@PtgCamera@@QAEXNNN@Z 0043e29d f PtgCamera.obj
 0001:0003d2eb       ?setLookAt@PtgCamera@@QAEXNNN@Z 0043e2eb f PtgCamera.obj
 0001:0003d330       ?setAspectRatio@PtgCamera@@QAEXN@Z 0043e330 f PtgCamera.obj
 0001:0003d357       ?setFieldOfViewY@PtgCamera@@QAEXN@Z 0043e357 f PtgCamera.obj
 0001:0003d37e       ?movePosBy@PtgCamera@@QAEXNNN@Z 0043e37e f PtgCamera.obj
 0001:0003d3d5       ?setClipping@PtgCamera@@QAEXNN@Z 0043e3d5 f PtgCamera.obj
 0001:0003d40b       ?setOrthoClip@PtgCamera@@QAEXNNNN@Z 0043e40b f PtgCamera.obj
 0001:0003d462       ?setDirection@PtgCamera@@QAEXNNN@Z 0043e462 f PtgCamera.obj
 0001:0003d4b0       ?setUpDirection@PtgCamera@@QAEXNNN@Z 0043e4b0 f PtgCamera.obj
 0001:0003d4fe       ?setRotation@PtgCamera@@QAEXNNN@Z 0043e4fe f PtgCamera.obj
 0001:0003d550       ?charcat@@YAPADPADD@Z      0043e550 f feetstat.obj
 0001:0003d5a3       ?appendField@@YAXPAD@Z     0043e5a3 f feetstat.obj
 0001:0003d5e6       ?anyHStoIS@@YAXD@Z         0043e5e6 f feetstat.obj
 0001:0003d650       ?char_temp@@YAXD@Z         0043e650 f feetstat.obj
 0001:0003d671       ?temp_feet@@YAXD@Z         0043e671 f feetstat.obj
 0001:0003d6a9       ?temp_win@@YAXD@Z          0043e6a9 f feetstat.obj
 0001:0003d6e1       ?temp_num@@YAXD@Z          0043e6e1 f feetstat.obj
 0001:0003d719       ?temp_denom@@YAXD@Z        0043e719 f feetstat.obj
 0001:0003d751       ?save_sign@@YAXD@Z         0043e751 f feetstat.obj
 0001:0003d787       ?no_temp@@YAXD@Z           0043e787 f feetstat.obj
 0001:0003d797       ?getInches@@YANPAD@Z       0043e797 f feetstat.obj
 0001:0003d94b       ?createExpandedTable@@YAPAPAW4State@@HH@Z 0043e94b f feetstat.obj
 0001:0003d9ad       ?destroyExpandedTable@@YAXPAPAW4State@@H@Z 0043e9ad f feetstat.obj
 0001:0003da00       ?StateMachineInit@@YAHQAUStateTransTable@@HPAPAW4State@@HH@Z 0043ea00 f feetstat.obj
 0001:0003dca7       ?getNextState@@YA?AW4State@@QAUStateTransTable@@PAPAW41@W41@H@Z 0043eca7 f feetstat.obj
 0001:0003dd00       ?draw@PtgTransMatrix@@QAEXXZ 0043ed00 f PtgTransMatrixOGL.obj
 0001:0003de70       ??0COpenGLSettings@@QAE@PAVCWnd@@@Z 0043ee70 f OpenGLSettings.obj
 0001:0003dfd6       ?DoDataExchange@COpenGLSettings@@MAEXPAVCDataExchange@@@Z 0043efd6 f OpenGLSettings.obj
 0001:0003e1b6       ?_GetBaseMessageMap@COpenGLSettings@@KGPBUAFX_MSGMAP@@XZ 0043f1b6 f OpenGLSettings.obj
 0001:0003e1cb       ?GetMessageMap@COpenGLSettings@@MBEPBUAFX_MSGMAP@@XZ 0043f1cb f OpenGLSettings.obj
 0001:0003e1e6       ?OnCancel@COpenGLSettings@@MAEXXZ 0043f1e6 f OpenGLSettings.obj
 0001:0003e204       ?OnOK@COpenGLSettings@@MAEXXZ 0043f204 f OpenGLSettings.obj
 0001:0003e3e0       ??_GCOpenGLSettings@@UAEPAXI@Z 0043f3e0 f OpenGLSettings.obj
 0001:0003e3e0       ??_ECOpenGLSettings@@UAEPAXI@Z 0043f3e0 f OpenGLSettings.obj
 0001:0003e420       ??1COpenGLSettings@@UAE@XZ 0043f420 f OpenGLSettings.obj
 0001:0003e480       ?vOutput@@YAHHPBDPAD@Z     0043f480 f output.obj
 0001:0003e524       ?Output@@YAHHPBDZZ         0043f524 f output.obj
 0001:0003e55e       ?vDebugOutput@@YAHHPBDPAD@Z 0043f55e f output.obj
 0001:0003e59d       ?DebugOutput@@YAHHPBDZZ    0043f59d f output.obj
 0001:0003e5d7       ?vErrorOutput@@YAHPBDPAD@Z 0043f5d7 f output.obj
 0001:0003e602       ?ErrorOutput@@YAHPBDZZ     0043f602 f output.obj
 0001:0003e640       ??0rvqLiteTask@@QAE@XZ     0043f640 f rvqLite.obj
 0001:0003e782       ??0rvqLiteTask@@QAE@PAD@Z  0043f782 f rvqLite.obj
 0001:0003e866       ??1rvqLiteTask@@QAE@XZ     0043f866 f rvqLite.obj
 0001:0003e903       ?openDatabase@rvqLiteTask@@QAE?AW4T_F@@PAD@Z 0043f903 f rvqLite.obj
 0001:0003e998       ?closeDatabase@rvqLiteTask@@QAE?AW4T_F@@XZ 0043f998 f rvqLite.obj
 0001:0003e9dd       ?initializeDatabase@rvqLiteTask@@QAE?AW4T_F@@PAD@Z 0043f9dd f rvqLite.obj
 0001:0003ea50       ?display_tm@@YAXPAN@Z      0043fa50 f photog_math.obj
 0001:0003ecdf       ?matpnt@@YAPANPAN0@Z       0043fcdf f photog_math.obj
 0001:0003eda0       ?crosspnt@@YAPANPAN0@Z     0043fda0 f photog_math.obj
 0001:0003ee25       ?get3dpnt_e@@YAPANHPAPAPANPAPAN0@Z 0043fe25 f photog_math.obj
 0001:0003f921       ?get3dpnt_e_pld@@YAPANHPAPAPANPAPAN0@Z 00440921 f photog_math.obj
 0001:00040a26       ?get3dpnt_np@@YAPANHPAPAPANPAPAN@Z 00441a26 f photog_math.obj
 0001:00040a82       ?get3dpnt@@YAPANHPAPAPANPAPAN@Z 00441a82 f photog_math.obj
 0001:00040b49       ?idmatrix@@YAPANXZ         00441b49 f photog_math.obj
 0001:00040b5f       ?forcesquare@@YAXPAN0PAPAN@Z 00441b5f f photog_math.obj
 0001:00040b8a       ?forcesquare@@YAXPAN0PAPANN@Z 00441b8a f photog_math.obj
 0001:00041020       ?forceortho@@YAXPAN0PAPAPAN@Z 00442020 f photog_math.obj
 0001:000416ab       ?findscale@@YAPANPAN@Z     004426ab f photog_math.obj
 0001:0004197d       ?srot@@YANHPAPAPAN0@Z      0044297d f photog_math.obj
 0001:00042140       ?getfilmcorr@@YAPANHNPAPAPAN0@Z 00443140 f photog_math.obj
 0001:0004287b       ?radial_corr@@YAXHPAPAPANPAN@Z 0044387b f photog_math.obj
 0001:00042a92       ?corrfilmpnt@@YAPAPAPANHNPANPAPAPAN0@Z 00443a92 f photog_math.obj
 0001:00042c03       ?LUK@@YAPAPAPANHHHPAPAPAN0@Z 00443c03 f photog_math.obj
 0001:00042eea       ?getcamera@@YANHPAPAPAN0PAN@Z 00443eea f photog_math.obj
 0001:0004374c       ?getcamera_2@@YANHPAPAPAN0PAN@Z 0044474c f photog_math.obj
 0001:00043f30       ?square_matrix@@YAXPAN@Z   00444f30 f photog_math.obj
 0001:00044343       ?getcamera3@@YANHPAPAPAN0PANH@Z 00445343 f photog_math.obj
 0001:00045ce9       ?ffor@@YAXN@Z              00446ce9 f photog_math.obj
 0001:00045d3d       ?bundlecheck@@YAHAAUBUNDLEDATA@@@Z 00446d3d f photog_math.obj
 0001:00046c43       ?newerBB@@YAXAAUBUNDLEDATA@@@Z 00447c43 f photog_math.obj
 0001:0004c035       ?newBB@@YAXAAUBUNDLEDATA@@@Z 0044d035 f photog_math.obj
 0001:0004d7f2       ?bndlxx@@YAXAAUBUNDLEDATA@@PAPAPAN@Z 0044e7f2 f photog_math.obj
 0001:0004f68b       ?subbndl@@YANHPAPAPAN00PANH@Z 0045068b f photog_math.obj
 0001:00051275       ?bndl@@YAXHPAPAPAN00PANH@Z 00452275 f photog_math.obj
 0001:00051a9e       ?loopbundle@@YAXPAUBUNDLEDATA@@H@Z 00452a9e f photog_math.obj
 0001:00051e87       ?bundle_with_one@@YAHAAUBUNDLEDATA@@@Z 00452e87 f photog_math.obj
 0001:0005231a       ?bundle@@YAHAAUBUNDLEDATA@@@Z 0045331a f photog_math.obj
 0001:000533d3       ?rotx@@YAPANHPAPAPAN0@Z    004543d3 f photog_math.obj
 0001:00054165       ?subsrotx@@YAPANHPAPAPAN0PAN11@Z 00455165 f photog_math.obj
 0001:0005489a       ?srotx@@YAPANHPAPAPAN0PAN@Z 0045589a f photog_math.obj
 0001:000548fa       ?torealsys@@YAPANHPAPAPAN0H0PAN1@Z 004558fa f photog_math.obj
 0001:00054d02       ?MergeBundles@@YAPANPAN0HPAPAPAN1@Z 00455d02 f photog_math.obj
 0001:00054dc0       ?GetFont@CDTCell@@QAE?AVCOleFont@@XZ 00455dc0 f dtcell.obj
 0001:00054e3e       ?SetFont@CDTCell@@QAEXPAUIDispatch@@@Z 00455e3e f dtcell.obj
 0001:00054e6a       ?GetBackColor@CDTCell@@QAEKXZ 00455e6a f dtcell.obj
 0001:00054e93       ?SetBackColor@CDTCell@@QAEXK@Z 00455e93 f dtcell.obj
 0001:00054ebf       ?GetForeColor@CDTCell@@QAEKXZ 00455ebf f dtcell.obj
 0001:00054ee8       ?SetForeColor@CDTCell@@QAEXK@Z 00455ee8 f dtcell.obj
 0001:00054f14       ?GetSelBackColor@CDTCell@@QAEKXZ 00455f14 f dtcell.obj
 0001:00054f3d       ?SetSelBackColor@CDTCell@@QAEXK@Z 00455f3d f dtcell.obj
 0001:00054f69       ?GetSelForeColor@CDTCell@@QAEKXZ 00455f69 f dtcell.obj
 0001:00054f92       ?SetSelForeColor@CDTCell@@QAEXK@Z 00455f92 f dtcell.obj
 0001:00054fbe       ?GetNullFlag@CDTCell@@QAEHXZ 00455fbe f dtcell.obj
 0001:00054fe7       ?SetNullFlag@CDTCell@@QAEXH@Z 00455fe7 f dtcell.obj
 0001:00055013       ?GetValue@CDTCell@@QAE?AUtagVARIANT@@XZ 00456013 f dtcell.obj
 0001:0005505a       ?SetValue@CDTCell@@QAEXABUtagVARIANT@@@Z 0045605a f dtcell.obj
 0001:00055086       ?GetSelected@CDTCell@@QAEHXZ 00456086 f dtcell.obj
 0001:000550af       ?SetSelected@CDTCell@@QAEXH@Z 004560af f dtcell.obj
 0001:000550db       ?Invalidate@CDTCell@@QAEXXZ 004560db f dtcell.obj
 0001:00055107       ?MakeVisible@CDTCell@@QAEXXZ 00456107 f dtcell.obj
 0001:00055133       ?GetRect@CDTCell@@QAEHJPAM000@Z 00456133 f dtcell.obj
 0001:00055180       ?nurbsDrawCone@@YAXMMMMMM@Z 00456180 f Ptg3DConeObjOGL.obj
 0001:0005558c       ?drawCone@@YAXMMMMMM@Z     0045658c f Ptg3DConeObjOGL.obj
 0001:000557a5       ?drawWireframe@Ptg3DConeObj@@MAEXXZ 004567a5 f Ptg3DConeObjOGL.obj
 0001:0005587c       ?drawSolid@Ptg3DConeObj@@MAEXXZ 0045687c f Ptg3DConeObjOGL.obj
 0001:00055960       ?GetBackColor@CDTColumn@@QAEKXZ 00456960 f dtcolumn.obj
 0001:00055989       ?SetBackColor@CDTColumn@@QAEXK@Z 00456989 f dtcolumn.obj
 0001:000559b5       ?GetForeColor@CDTColumn@@QAEKXZ 004569b5 f dtcolumn.obj
 0001:000559de       ?SetForeColor@CDTColumn@@QAEXK@Z 004569de f dtcolumn.obj
 0001:00055a0a       ?GetSelBackColor@CDTColumn@@QAEKXZ 00456a0a f dtcolumn.obj
 0001:00055a33       ?SetSelBackColor@CDTColumn@@QAEXK@Z 00456a33 f dtcolumn.obj
 0001:00055a5f       ?GetSelForeColor@CDTColumn@@QAEKXZ 00456a5f f dtcolumn.obj
 0001:00055a88       ?SetSelForeColor@CDTColumn@@QAEXK@Z 00456a88 f dtcolumn.obj
 0001:00055ab4       ?GetFont@CDTColumn@@QAE?AVCOleFont@@XZ 00456ab4 f dtcolumn.obj
 0001:00055b32       ?SetFont@CDTColumn@@QAEXPAUIDispatch@@@Z 00456b32 f dtcolumn.obj
 0001:00055b5e       ?GetDataType@CDTColumn@@QAEJXZ 00456b5e f dtcolumn.obj
 0001:00055b87       ?SetDataType@CDTColumn@@QAEXJ@Z 00456b87 f dtcolumn.obj
 0001:00055bb3       ?GetDataLen@CDTColumn@@QAEFXZ 00456bb3 f dtcolumn.obj
 0001:00055bdd       ?SetDataLen@CDTColumn@@QAEXF@Z 00456bdd f dtcolumn.obj
 0001:00055c0a       ?GetExtra1@CDTColumn@@QAEJXZ 00456c0a f dtcolumn.obj
 0001:00055c33       ?SetExtra1@CDTColumn@@QAEXJ@Z 00456c33 f dtcolumn.obj
 0001:00055c5f       ?GetExtra2@CDTColumn@@QAEJXZ 00456c5f f dtcolumn.obj
 0001:00055c88       ?SetExtra2@CDTColumn@@QAEXJ@Z 00456c88 f dtcolumn.obj
 0001:00055cb4       ?GetFormat@CDTColumn@@QAE?AVCString@@XZ 00456cb4 f dtcolumn.obj
 0001:00055d53       ?SetFormat@CDTColumn@@QAEXPBD@Z 00456d53 f dtcolumn.obj
 0001:00055d7f       ?GetHeading@CDTColumn@@QAE?AVCString@@XZ 00456d7f f dtcolumn.obj
 0001:00055e1e       ?SetHeading@CDTColumn@@QAEXPBD@Z 00456e1e f dtcolumn.obj
 0001:00055e4a       ?GetList@CDTColumn@@QAE?AVCString@@XZ 00456e4a f dtcolumn.obj
 0001:00055ee9       ?SetList@CDTColumn@@QAEXPBD@Z 00456ee9 f dtcolumn.obj
 0001:00055f15       ?GetDataEdit@CDTColumn@@QAEJXZ 00456f15 f dtcolumn.obj
 0001:00055f3e       ?SetDataEdit@CDTColumn@@QAEXJ@Z 00456f3e f dtcolumn.obj
 0001:00055f6a       ?GetDefVal@CDTColumn@@QAE?AVCString@@XZ 00456f6a f dtcolumn.obj
 0001:00056009       ?SetDefVal@CDTColumn@@QAEXPBD@Z 00457009 f dtcolumn.obj
 0001:00056035       ?GetHidden@CDTColumn@@QAEHXZ 00457035 f dtcolumn.obj
 0001:0005605e       ?SetHidden@CDTColumn@@QAEXH@Z 0045705e f dtcolumn.obj
 0001:0005608a       ?GetLocked@CDTColumn@@QAEHXZ 0045708a f dtcolumn.obj
 0001:000560b3       ?SetLocked@CDTColumn@@QAEXH@Z 004570b3 f dtcolumn.obj
 0001:000560df       ?GetName@CDTColumn@@QAE?AVCString@@XZ 004570df f dtcolumn.obj
 0001:0005617e       ?SetName@CDTColumn@@QAEXPBD@Z 0045717e f dtcolumn.obj
 0001:000561aa       ?GetOverwrite@CDTColumn@@QAEHXZ 004571aa f dtcolumn.obj
 0001:000561d3       ?SetOverwrite@CDTColumn@@QAEXH@Z 004571d3 f dtcolumn.obj
 0001:000561ff       ?GetValue@CDTColumn@@QAE?AUtagVARIANT@@XZ 004571ff f dtcolumn.obj
 0001:00056246       ?SetValue@CDTColumn@@QAEXABUtagVARIANT@@@Z 00457246 f dtcolumn.obj
 0001:00056272       ?GetHeadAlign@CDTColumn@@QAEJXZ 00457272 f dtcolumn.obj
 0001:0005629b       ?SetHeadAlign@CDTColumn@@QAEXJ@Z 0045729b f dtcolumn.obj
 0001:000562c7       ?GetDataAlign@CDTColumn@@QAEJXZ 004572c7 f dtcolumn.obj
 0001:000562f0       ?SetDataAlign@CDTColumn@@QAEXJ@Z 004572f0 f dtcolumn.obj
 0001:0005631c       ?GetResize@CDTColumn@@QAEJXZ 0045731c f dtcolumn.obj
 0001:00056345       ?SetResize@CDTColumn@@QAEXJ@Z 00457345 f dtcolumn.obj
 0001:00056371       ?GetWidth@CDTColumn@@QAEMXZ 00457371 f dtcolumn.obj
 0001:0005639a       ?SetWidth@CDTColumn@@QAEXM@Z 0045739a f dtcolumn.obj
 0001:000563cb       ?GetEditAutoHScroll@CDTColumn@@QAEHXZ 004573cb f dtcolumn.obj
 0001:000563f4       ?SetEditAutoHScroll@CDTColumn@@QAEXH@Z 004573f4 f dtcolumn.obj
 0001:00056420       ?GetEditAutoVScroll@CDTColumn@@QAEHXZ 00457420 f dtcolumn.obj
 0001:00056449       ?SetEditAutoVScroll@CDTColumn@@QAEXH@Z 00457449 f dtcolumn.obj
 0001:00056475       ?GetEditLowercase@CDTColumn@@QAEHXZ 00457475 f dtcolumn.obj
 0001:0005649e       ?SetEditLowercase@CDTColumn@@QAEXH@Z 0045749e f dtcolumn.obj
 0001:000564ca       ?GetEditUppercase@CDTColumn@@QAEHXZ 004574ca f dtcolumn.obj
 0001:000564f3       ?SetEditUppercase@CDTColumn@@QAEXH@Z 004574f3 f dtcolumn.obj
 0001:0005651f       ?GetEditMultiLine@CDTColumn@@QAEHXZ 0045751f f dtcolumn.obj
 0001:00056548       ?SetEditMultiLine@CDTColumn@@QAEXH@Z 00457548 f dtcolumn.obj
 0001:00056574       ?GetEditWantReturn@CDTColumn@@QAEHXZ 00457574 f dtcolumn.obj
 0001:0005659d       ?SetEditWantReturn@CDTColumn@@QAEXH@Z 0045759d f dtcolumn.obj
 0001:000565c9       ?GetSelected@CDTColumn@@QAEHXZ 004575c9 f dtcolumn.obj
 0001:000565f2       ?SetSelected@CDTColumn@@QAEXH@Z 004575f2 f dtcolumn.obj
 0001:0005661e       ?GetBound@CDTColumn@@QAEHXZ 0045761e f dtcolumn.obj
 0001:00056647       ?SetBound@CDTColumn@@QAEXH@Z 00457647 f dtcolumn.obj
 0001:00056673       ?Invalidate@CDTColumn@@QAEXXZ 00457673 f dtcolumn.obj
 0001:0005669f       ?Total@CDTColumn@@QAE?AUtagVARIANT@@XZ 0045769f f dtcolumn.obj
 0001:000566ee       ?Search@CDTColumn@@QAEJABUtagVARIANT@@J@Z 004576ee f dtcolumn.obj
 0001:00056730       ?drawRectTorus@@YAXMMMMM@Z 00457730 f Ptg3DRtorObjOGL.obj
 0001:00056c17       ?drawWireframe@Ptg3DRtorObj@@MAEXXZ 00457c17 f Ptg3DRtorObjOGL.obj
 0001:00056ccb       ?drawSolid@Ptg3DRtorObj@@MAEXXZ 00457ccb f Ptg3DRtorObjOGL.obj
 0001:00056d80       ?saveNodeToDGN@@YAHPAXPAVPtg3DNode@@@Z 00457d80 f exportToDGN.obj
 0001:000572c0       ?getOuterRadius@Ptg3DRtorObj@@QAENXZ 004582c0 f exportToDGN.obj
 0001:000572e0       ?getInnerRadius@Ptg3DRtorObj@@QAENXZ 004582e0 f exportToDGN.obj
 0001:00057300       ?getHeight@Ptg3DRtorObj@@QAENXZ 00458300 f exportToDGN.obj
 0001:00057320       ?getAngle@Ptg3DRtorObj@@QAENXZ 00458320 f exportToDGN.obj
 0001:00057340       ?getOuterRadius@Ptg3DCtorObj@@QAENXZ 00458340 f exportToDGN.obj
 0001:00057360       ?getInnerRadius@Ptg3DCtorObj@@QAENXZ 00458360 f exportToDGN.obj
 0001:00057380       ?getAngle@Ptg3DCtorObj@@QAENXZ 00458380 f exportToDGN.obj
 0001:000573a0       ?getHeight@Ptg3DPyramidObj@@QAENXZ 004583a0 f exportToDGN.obj
 0001:000573c0       ?getBaseWidth@Ptg3DPyramidObj@@QAENXZ 004583c0 f exportToDGN.obj
 0001:000573e0       ?getBaseDepth@Ptg3DPyramidObj@@QAENXZ 004583e0 f exportToDGN.obj
 0001:00057400       ?getTopWidth@Ptg3DPyramidObj@@QAENXZ 00458400 f exportToDGN.obj
 0001:00057420       ?getTopDepth@Ptg3DPyramidObj@@QAENXZ 00458420 f exportToDGN.obj
 0001:00057440       ?getWidthOffset@Ptg3DPyramidObj@@QAENXZ 00458440 f exportToDGN.obj
 0001:00057460       ?getDepthOffset@Ptg3DPyramidObj@@QAENXZ 00458460 f exportToDGN.obj
 0001:00057480       ?getTopRadius@Ptg3DConeObj@@QAENXZ 00458480 f exportToDGN.obj
 0001:000574a0       ?getBottomRadius@Ptg3DConeObj@@QAENXZ 004584a0 f exportToDGN.obj
 0001:000574c0       ?getHeight@Ptg3DConeObj@@QAENXZ 004584c0 f exportToDGN.obj
 0001:000574e0       ?getXOffset@Ptg3DConeObj@@QAENXZ 004584e0 f exportToDGN.obj
 0001:00057500       ?getYOffset@Ptg3DConeObj@@QAENXZ 00458500 f exportToDGN.obj
 0001:00057520       ??0Ptg3DConeObj@@QAE@XZ    00458520 f Ptg3DConeObj.obj
 0001:00057597       ??1Ptg3DConeObj@@UAE@XZ    00458597 f Ptg3DConeObj.obj
 0001:000575ff       ?initVars@Ptg3DConeObj@@AAEXXZ 004585ff f Ptg3DConeObj.obj
 0001:00057670       ?getType@Ptg3DConeObj@@UAEPBDXZ 00458670 f Ptg3DConeObj.obj
 0001:00057690       ??_GPtg3DConeObj@@UAEPAXI@Z 00458690 f Ptg3DConeObj.obj
 0001:00057690       ??_EPtg3DConeObj@@UAEPAXI@Z 00458690 f Ptg3DConeObj.obj
 0001:000576d0       ?GetColumn@CDTCurCell@@QAEJXZ 004586d0 f dtcurcell.obj
 0001:000576f9       ?SetColumn@CDTCurCell@@QAEXJ@Z 004586f9 f dtcurcell.obj
 0001:00057725       ?GetRow@CDTCurCell@@QAEJXZ 00458725 f dtcurcell.obj
 0001:0005774e       ?SetRow@CDTCurCell@@QAEXJ@Z 0045874e f dtcurcell.obj
 0001:0005777a       ?GetPane@CDTCurCell@@QAEJXZ 0045877a f dtcurcell.obj
 0001:000577a3       ?SetPane@CDTCurCell@@QAEXJ@Z 004587a3 f dtcurcell.obj
 0001:000577cf       ?GetFont@CDTCurCell@@QAE?AVCOleFont@@XZ 004587cf f dtcurcell.obj
 0001:0005784d       ?SetFont@CDTCurCell@@QAEXPAUIDispatch@@@Z 0045884d f dtcurcell.obj
 0001:00057879       ?GetEditValue@CDTCurCell@@QAE?AUtagVARIANT@@XZ 00458879 f dtcurcell.obj
 0001:000578c0       ?SetEditValue@CDTCurCell@@QAEXABUtagVARIANT@@@Z 004588c0 f dtcurcell.obj
 0001:000578ec       ?GetBackColor@CDTCurCell@@QAEKXZ 004588ec f dtcurcell.obj
 0001:00057915       ?SetBackColor@CDTCurCell@@QAEXK@Z 00458915 f dtcurcell.obj
 0001:00057941       ?GetForeColor@CDTCurCell@@QAEKXZ 00458941 f dtcurcell.obj
 0001:0005796a       ?SetForeColor@CDTCurCell@@QAEXK@Z 0045896a f dtcurcell.obj
 0001:00057996       ?GetSelBackColor@CDTCurCell@@QAEKXZ 00458996 f dtcurcell.obj
 0001:000579bf       ?SetSelBackColor@CDTCurCell@@QAEXK@Z 004589bf f dtcurcell.obj
 0001:000579eb       ?GetSelForeColor@CDTCurCell@@QAEKXZ 004589eb f dtcurcell.obj
 0001:00057a14       ?SetSelForeColor@CDTCurCell@@QAEXK@Z 00458a14 f dtcurcell.obj
 0001:00057a40       ?GetFocusPenColor@CDTCurCell@@QAEKXZ 00458a40 f dtcurcell.obj
 0001:00057a69       ?SetFocusPenColor@CDTCurCell@@QAEXK@Z 00458a69 f dtcurcell.obj
 0001:00057a95       ?GetFocusPenWidth@CDTCurCell@@QAEFXZ 00458a95 f dtcurcell.obj
 0001:00057abf       ?SetFocusPenWidth@CDTCurCell@@QAEXF@Z 00458abf f dtcurcell.obj
 0001:00057aec       ?GetFocusPenStyle@CDTCurCell@@QAEFXZ 00458aec f dtcurcell.obj
 0001:00057b16       ?SetFocusPenStyle@CDTCurCell@@QAEXF@Z 00458b16 f dtcurcell.obj
 0001:00057b43       ?GetKeyForAbortEdit@CDTCurCell@@QAEFXZ 00458b43 f dtcurcell.obj
 0001:00057b6d       ?SetKeyForAbortEdit@CDTCurCell@@QAEXF@Z 00458b6d f dtcurcell.obj
 0001:00057b9a       ?GetKeyForBeginEdit@CDTCurCell@@QAEFXZ 00458b9a f dtcurcell.obj
 0001:00057bc4       ?SetKeyForBeginEdit@CDTCurCell@@QAEXF@Z 00458bc4 f dtcurcell.obj
 0001:00057bf1       ?GetKeyForEndEdit@CDTCurCell@@QAEFXZ 00458bf1 f dtcurcell.obj
 0001:00057c1b       ?SetKeyForEndEdit@CDTCurCell@@QAEXF@Z 00458c1b f dtcurcell.obj
 0001:00057c48       ?GetEndEditTab@CDTCurCell@@QAEHXZ 00458c48 f dtcurcell.obj
 0001:00057c71       ?SetEndEditTab@CDTCurCell@@QAEXH@Z 00458c71 f dtcurcell.obj
 0001:00057c9d       ?GetEndEditCtrlTab@CDTCurCell@@QAEHXZ 00458c9d f dtcurcell.obj
 0001:00057cc6       ?SetEndEditCtrlTab@CDTCurCell@@QAEXH@Z 00458cc6 f dtcurcell.obj
 0001:00057cf2       ?GetEndEditLfRtArrows@CDTCurCell@@QAEHXZ 00458cf2 f dtcurcell.obj
 0001:00057d1b       ?SetEndEditLfRtArrows@CDTCurCell@@QAEXH@Z 00458d1b f dtcurcell.obj
 0001:00057d47       ?GetEndEditUpDnArrows@CDTCurCell@@QAEHXZ 00458d47 f dtcurcell.obj
 0001:00057d70       ?SetEndEditUpDnArrows@CDTCurCell@@QAEXH@Z 00458d70 f dtcurcell.obj
 0001:00057d9c       ?GetEndEditClick@CDTCurCell@@QAEHXZ 00458d9c f dtcurcell.obj
 0001:00057dc5       ?SetEndEditClick@CDTCurCell@@QAEXH@Z 00458dc5 f dtcurcell.obj
 0001:00057df1       ?GetValue@CDTCurCell@@QAE?AUtagVARIANT@@XZ 00458df1 f dtcurcell.obj
 0001:00057e38       ?SetValue@CDTCurCell@@QAEXABUtagVARIANT@@@Z 00458e38 f dtcurcell.obj
 0001:00057e64       ?GetAllowCellEdit@CDTCurCell@@QAEHXZ 00458e64 f dtcurcell.obj
 0001:00057e8d       ?SetAllowCellEdit@CDTCurCell@@QAEXH@Z 00458e8d f dtcurcell.obj
 0001:00057eb9       ?GetTabToNextCell@CDTCurCell@@QAEHXZ 00458eb9 f dtcurcell.obj
 0001:00057ee2       ?SetTabToNextCell@CDTCurCell@@QAEXH@Z 00458ee2 f dtcurcell.obj
 0001:00057f0e       ?GetMoveColMajor@CDTCurCell@@QAEHXZ 00458f0e f dtcurcell.obj
 0001:00057f37       ?SetMoveColMajor@CDTCurCell@@QAEXH@Z 00458f37 f dtcurcell.obj
 0001:00057f63       ?GetHWndListBox@CDTCurCell@@QAEJXZ 00458f63 f dtcurcell.obj
 0001:00057f8c       ?SetHWndListBox@CDTCurCell@@QAEXJ@Z 00458f8c f dtcurcell.obj
 0001:00057fb8       ?GetHWndEditBox@CDTCurCell@@QAEJXZ 00458fb8 f dtcurcell.obj
 0001:00057fe1       ?SetHWndEditBox@CDTCurCell@@QAEXJ@Z 00458fe1 f dtcurcell.obj
 0001:0005800d       ?GetSelStart@CDTCurCell@@QAEJXZ 0045900d f dtcurcell.obj
 0001:00058036       ?SetSelStart@CDTCurCell@@QAEXJ@Z 00459036 f dtcurcell.obj
 0001:00058062       ?GetSelLength@CDTCurCell@@QAEJXZ 00459062 f dtcurcell.obj
 0001:0005808b       ?SetSelLength@CDTCurCell@@QAEXJ@Z 0045908b f dtcurcell.obj
 0001:000580b7       ?MoveToNext@CDTCurCell@@QAEXXZ 004590b7 f dtcurcell.obj
 0001:000580e3       ?MoveToPrev@CDTCurCell@@QAEXXZ 004590e3 f dtcurcell.obj
 0001:0005810f       ?BeginEdit@CDTCurCell@@QAEXXZ 0045910f f dtcurcell.obj
 0001:0005813b       ?EndEdit@CDTCurCell@@QAEXXZ 0045913b f dtcurcell.obj
 0001:00058167       ?AbortEdit@CDTCurCell@@QAEXXZ 00459167 f dtcurcell.obj
 0001:000581a0       ??0Ptg3DFacetVertexObj@@QAE@XZ 004591a0 f Ptg3DFacetObj.obj
 0001:000581ca       ??0Ptg3DFacetVertexObj@@QAE@AAV0@@Z 004591ca f Ptg3DFacetObj.obj
 0001:0005825a       ??1Ptg3DFacetVertexObj@@UAE@XZ 0045925a f Ptg3DFacetObj.obj
 0001:000582cd       ?setVertex@Ptg3DFacetVertexObj@@QAEXNNN@Z 004592cd f Ptg3DFacetObj.obj
 0001:0005831b       ?setNormal@Ptg3DFacetVertexObj@@QAEXNNN@Z 0045931b f Ptg3DFacetObj.obj
 0001:00058369       ?initVars@Ptg3DFacetVertexObj@@AAEXXZ 00459369 f Ptg3DFacetObj.obj
 0001:000583ce       ?getVertex@Ptg3DFacetVertexObj@@QAEPANXZ 004593ce f Ptg3DFacetObj.obj
 0001:00058414       ?getNormal@Ptg3DFacetVertexObj@@QAEPANXZ 00459414 f Ptg3DFacetObj.obj
 0001:0005845a       ??0Ptg3DFacetObj@@QAE@XZ   0045945a f Ptg3DFacetObj.obj
 0001:000584ee       ??1Ptg3DFacetObj@@UAE@XZ   004594ee f Ptg3DFacetObj.obj
 0001:000585b6       ?initVars@Ptg3DFacetObj@@AAEXXZ 004595b6 f Ptg3DFacetObj.obj
 0001:000585cc       ?addVertex@Ptg3DFacetObj@@QAEXAAVPtg3DFacetVertexObj@@@Z 004595cc f Ptg3DFacetObj.obj
 0001:00058670       ??_EPtg3DFacetVertexObj@@UAEPAXI@Z 00459670 f Ptg3DFacetObj.obj
 0001:00058670       ??_GPtg3DFacetVertexObj@@UAEPAXI@Z 00459670 f Ptg3DFacetObj.obj
 0001:000586b0       ?getType@Ptg3DFacetObj@@UAEPBDXZ 004596b0 f Ptg3DFacetObj.obj
 0001:000586d0       ??_EPtg3DFacetObj@@UAEPAXI@Z 004596d0 f Ptg3DFacetObj.obj
 0001:000586d0       ??_GPtg3DFacetObj@@UAEPAXI@Z 004596d0 f Ptg3DFacetObj.obj
 0001:00058710       ??0?$CList@PAVPtg3DFacetVertexObj@@PAV1@@@QAE@H@Z 00459710 f Ptg3DFacetObj.obj
 0001:000587f0       ?GetCount@?$CList@PAVPtg3DFacetVertexObj@@PAV1@@@QBEHXZ 004597f0 f Ptg3DFacetObj.obj
 0001:00058810       ?RemoveTail@?$CList@PAVPtg3DFacetVertexObj@@PAV1@@@QAEPAVPtg3DFacetVertexObj@@XZ 00459810 f Ptg3DFacetObj.obj
 0001:000588f0       ?AddTail@?$CList@PAVPtg3DFacetVertexObj@@PAV1@@@QAEPAU__POSITION@@PAVPtg3DFacetVertexObj@@@Z 004598f0 f Ptg3DFacetObj.obj
 0001:00058970       ??1?$CList@PAVPtg3DFacetVertexObj@@PAV1@@@UAE@XZ 00459970 f Ptg3DFacetObj.obj
 0001:00058a10       ?Serialize@?$CList@PAVPtg3DFacetVertexObj@@PAV1@@@UAEXAAVCArchive@@@Z 00459a10 f Ptg3DFacetObj.obj
 0001:00058b10       ?Dump@?$CList@PAVPtg3DFacetVertexObj@@PAV1@@@UBEXAAVCDumpContext@@@Z 00459b10 f Ptg3DFacetObj.obj
 0001:00058bc0       ?AssertValid@?$CList@PAVPtg3DFacetVertexObj@@PAV1@@@UBEXXZ 00459bc0 f Ptg3DFacetObj.obj
 0001:00058ca0       ??_G?$CList@PAVPtg3DFacetVertexObj@@PAV1@@@UAEPAXI@Z 00459ca0 f Ptg3DFacetObj.obj
 0001:00058ca0       ??_E?$CList@PAVPtg3DFacetVertexObj@@PAV1@@@UAEPAXI@Z 00459ca0 f Ptg3DFacetObj.obj
 0001:00058ce0       ?SerializeElements@@YGXAAVCArchive@@PAPAVPtg3DFacetVertexObj@@H@Z 00459ce0 f Ptg3DFacetObj.obj
 0001:00058d70       ?DumpElements@@YGXAAVCDumpContext@@PBQAVPtg3DFacetVertexObj@@H@Z 00459d70 f Ptg3DFacetObj.obj
 0001:00058dc0       ?RemoveAll@?$CList@PAVPtg3DFacetVertexObj@@PAV1@@@QAEXXZ 00459dc0 f Ptg3DFacetObj.obj
 0001:00058e60       ?GetHeadPosition@?$CList@PAVPtg3DFacetVertexObj@@PAV1@@@QBEPAU__POSITION@@XZ 00459e60 f Ptg3DFacetObj.obj
 0001:00058e80       ?GetNext@?$CList@PAVPtg3DFacetVertexObj@@PAV1@@@QAEAAPAVPtg3DFacetVertexObj@@AAPAU__POSITION@@@Z 00459e80 f Ptg3DFacetObj.obj
 0001:00058ee0       ?NewNode@?$CList@PAVPtg3DFacetVertexObj@@PAV1@@@IAEPAUCNode@1@PAU21@0@Z 00459ee0 f Ptg3DFacetObj.obj
 0001:00059000       ?data@CPlex@@QAEPAXXZ      0045a000 f Ptg3DFacetObj.obj
 0001:00059020       ?FreeNode@?$CList@PAVPtg3DFacetVertexObj@@PAV1@@@IAEXPAUCNode@1@@Z 0045a020 f Ptg3DFacetObj.obj
 0001:000590a0       ?DestructElements@@YGXPAPAVPtg3DFacetVertexObj@@H@Z 0045a0a0 f Ptg3DFacetObj.obj
 0001:00059110       ?ConstructElements@@YGXPAPAVPtg3DFacetVertexObj@@H@Z 0045a110 f Ptg3DFacetObj.obj
 0001:000591b0       ??2@YAPAXIPAX@Z            0045a1b0 f Ptg3DFacetObj.obj
 0001:000591d0       ??0Ptg3DCalcPointObj@@QAE@XZ 0045a1d0 f Ptg3DCalcPointObj.obj
 0001:00059247       ??1Ptg3DCalcPointObj@@UAE@XZ 0045a247 f Ptg3DCalcPointObj.obj
 0001:000592c2       ?initVars@Ptg3DCalcPointObj@@QAEXXZ 0045a2c2 f Ptg3DCalcPointObj.obj
 0001:000592fb       ?setStdDev@Ptg3DCalcPointObj@@QAEXNNN@Z 0045a2fb f Ptg3DCalcPointObj.obj
 0001:00059349       ?setRayMiss@Ptg3DCalcPointObj@@QAEXN@Z 0045a349 f Ptg3DCalcPointObj.obj
 0001:00059370       ?getType@Ptg3DCalcPointObj@@UAEPBDXZ 0045a370 f Ptg3DCalcPointObj.obj
 0001:00059390       ??_GPtg3DCalcPointObj@@UAEPAXI@Z 0045a390 f Ptg3DCalcPointObj.obj
 0001:00059390       ??_EPtg3DCalcPointObj@@UAEPAXI@Z 0045a390 f Ptg3DCalcPointObj.obj
 0001:000593d0       ??0COptionsDlg@@QAE@PAVCWnd@@@Z 0045a3d0 f optionsd.obj
 0001:00059454       ?DoDataExchange@COptionsDlg@@MAEXPAVCDataExchange@@@Z 0045a454 f optionsd.obj
 0001:0005948d       ?_GetBaseMessageMap@COptionsDlg@@KGPBUAFX_MSGMAP@@XZ 0045a48d f optionsd.obj
 0001:000594a2       ?GetMessageMap@COptionsDlg@@MBEPBUAFX_MSGMAP@@XZ 0045a4a2 f optionsd.obj
 0001:000594bd       ?OnOK@COptionsDlg@@MAEXXZ  0045a4bd f optionsd.obj
 0001:00059521       ?OnInitDialog@COptionsDlg@@MAEHXZ 0045a521 f optionsd.obj
 0001:00059560       ??_GCOptionsDlg@@UAEPAXI@Z 0045a560 f optionsd.obj
 0001:00059560       ??_ECOptionsDlg@@UAEPAXI@Z 0045a560 f optionsd.obj
 0001:000595a0       ??1COptionsDlg@@UAE@XZ     0045a5a0 f optionsd.obj
 0001:00059600       ?SetUnits@CFotobrowApp@@QAEXH@Z 0045a600 f optionsd.obj
 0001:00059630       ??0Ptg3DCtorObj@@QAE@XZ    0045a630 f Ptg3DCtorObj.obj
 0001:000596a7       ??1Ptg3DCtorObj@@UAE@XZ    0045a6a7 f Ptg3DCtorObj.obj
 0001:0005970f       ?initVars@Ptg3DCtorObj@@AAEXXZ 0045a70f f Ptg3DCtorObj.obj
 0001:00059760       ?getType@Ptg3DCtorObj@@UAEPBDXZ 0045a760 f Ptg3DCtorObj.obj
 0001:00059780       ??_GPtg3DCtorObj@@UAEPAXI@Z 0045a780 f Ptg3DCtorObj.obj
 0001:00059780       ??_EPtg3DCtorObj@@UAEPAXI@Z 0045a780 f Ptg3DCtorObj.obj
 0001:000597c0       ?getSurveyModelTransform@@YAHPANPBD@Z 0045a7c0 f regfuncs.obj
 0001:000597e5       ?saveSurveyModelTransform@@YAHPANPBD@Z 0045a7e5 f regfuncs.obj
 0001:0005980a       ?getMeasurementTransform@@YAHPANPBD@Z 0045a80a f regfuncs.obj
 0001:0005982f       ?saveMeasurementTransform@@YAHPANPBD@Z 0045a82f f regfuncs.obj
 0001:00059854       ?getTransform@@YAHPBDPAN0@Z 0045a854 f regfuncs.obj
 0001:00059c95       ?saveTransform@@YAHPBDPAN0@Z 0045ac95 f regfuncs.obj
 0001:0005a004       ?getUnits@@YAHXZ           0045b004 f regfuncs.obj
 0001:0005a0d1       ?saveUnits@@YAHH@Z         0045b0d1 f regfuncs.obj
 0001:0005a180       ?drawCircle@@YAXMM@Z       0045b180 f Ptg3DCylinderObjOGL.obj
 0001:0005a1d0       ?drawcylinder@@YAXMNN@Z    0045b1d0 f Ptg3DCylinderObjOGL.obj
 0001:0005a2b7       ?drawWireframe@Ptg3DCylinderObj@@MAEXXZ 0045b2b7 f Ptg3DCylinderObjOGL.obj
 0001:0005a345       ?drawSolid@Ptg3DCylinderObj@@MAEXXZ 0045b345 f Ptg3DCylinderObjOGL.obj
 0001:0005a3e0       ??0CSelectImages@@QAE@PAVCWnd@@@Z 0045b3e0 f selectim.obj
 0001:0005a4a9       ?DoDataExchange@CSelectImages@@MAEXPAVCDataExchange@@@Z 0045b4a9 f selectim.obj
 0001:0005a4f9       ?_GetBaseMessageMap@CSelectImages@@KGPBUAFX_MSGMAP@@XZ 0045b4f9 f selectim.obj
 0001:0005a50e       ?GetMessageMap@CSelectImages@@MBEPBUAFX_MSGMAP@@XZ 0045b50e f selectim.obj
 0001:0005a529       ?OnDblclkImagelist@CSelectImages@@IAEXXZ 0045b529 f selectim.obj
 0001:0005a56c       ?OnInitDialog@CSelectImages@@MAEHXZ 0045b56c f selectim.obj
 0001:0005a5fe       ?OnOK@CSelectImages@@MAEXXZ 0045b5fe f selectim.obj
 0001:0005a6c0       ??_GCSelectImages@@UAEPAXI@Z 0045b6c0 f selectim.obj
 0001:0005a6c0       ??_ECSelectImages@@UAEPAXI@Z 0045b6c0 f selectim.obj
 0001:0005a700       ??1CSelectImages@@UAE@XZ   0045b700 f selectim.obj
 0001:0005a7a0       ?GetCalcPnt@@YAXKKAAPANAAK@Z 0045b7a0 f bundleutils.obj
 0001:0005a901       ?GetSurvPnt@@YAXKAAPAN@Z   0045b901 f bundleutils.obj
 0001:0005a9c6       ?IsValidTMatrix@@YAHUtmatrix@@@Z 0045b9c6 f bundleutils.obj
 0001:0005aa40       ?FindTMatrix@@YAHPAUtmatrix@@PBD@Z 0045ba40 f imgoverlay.obj
 0001:0005ab63       ?redrawZoomViewOverlay@@YAXPAVCFotobrowView@@PAVPtg3DNode@@@Z 0045bb63 f imgoverlay.obj
 0001:0005ba39       ?updateRay@@YAXPAVPtg3DNode@@PADHJJN@Z 0045ca39 f imgoverlay.obj
 0001:0005bc08       ?createRayElement@@YAPAVPtg3DLineObj@@PADJJNPAV1@@Z 0045cc08 f imgoverlay.obj
 0001:0005bfe8       ?CorrectPnts@@YAHPADHPAPAPANAAPAPAPANN@Z 0045cfe8 f imgoverlay.obj
 0001:0005c237       ?CheckLocks@@YAHPAUDB_TASK_S@@H@Z 0045d237 f imgoverlay.obj
 0001:0005c310       ?GetDIB@CFotobrowDoc@@QAEPAVCDIB@@XZ 0045d310 f imgoverlay.obj
 0001:0005c330       ??0CAssignEquipDlg@@QAE@PAVCWnd@@@Z 0045d330 f assigneq.obj
 0001:0005c404       ?DoDataExchange@CAssignEquipDlg@@MAEXPAVCDataExchange@@@Z 0045d404 f assigneq.obj
 0001:0005c454       ?_GetBaseMessageMap@CAssignEquipDlg@@KGPBUAFX_MSGMAP@@XZ 0045d454 f assigneq.obj
 0001:0005c469       ?GetMessageMap@CAssignEquipDlg@@MBEPBUAFX_MSGMAP@@XZ 0045d469 f assigneq.obj
 0001:0005c484       ?OnInitDialog@CAssignEquipDlg@@MAEHXZ 0045d484 f assigneq.obj
 0001:0005c57b       ?SetImageData@CAssignEquipDlg@@QAEXAAVCRect@@J@Z 0045d57b f assigneq.obj
 0001:0005c5bb       ?OnOK@CAssignEquipDlg@@MAEXXZ 0045d5bb f assigneq.obj
 0001:0005c8e0       ??_ECAssignEquipDlg@@UAEPAXI@Z 0045d8e0 f assigneq.obj
 0001:0005c8e0       ??_GCAssignEquipDlg@@UAEPAXI@Z 0045d8e0 f assigneq.obj
 0001:0005c920       ??1CAssignEquipDlg@@UAE@XZ 0045d920 f assigneq.obj
 0001:0005c9c0       ?readLine@@YAPADPADHPAU_iobuf@@@Z 0045d9c0 f importreview.obj
 0001:0005ca35       ?importReviewModel@@YAHPADPAVPtg3DNode@@@Z 0045da35 f importreview.obj
 0001:0005cb44       ?createHierLevel@@YAHPAU_iobuf@@PAVPtg3DNode@@@Z 0045db44 f importreview.obj
 0001:0005cf9e       ?setTransform@@YAHPAU_iobuf@@PAVPtg3DNode@@H@Z 0045df9e f importreview.obj
 0001:0005d539       ?createBox@@YAHPAU_iobuf@@PAVPtg3DNode@@@Z 0045e539 f importreview.obj
 0001:0005d701       ?createCylinder@@YAHPAU_iobuf@@PAVPtg3DNode@@@Z 0045e701 f importreview.obj
 0001:0005d8a2       ?createPyramid@@YAHPAU_iobuf@@PAVPtg3DNode@@@Z 0045e8a2 f importreview.obj
 0001:0005db51       ?createRectTorus@@YAHPAU_iobuf@@PAVPtg3DNode@@@Z 0045eb51 f importreview.obj
 0001:0005dd80       ?createCircTorus@@YAHPAU_iobuf@@PAVPtg3DNode@@@Z 0045ed80 f importreview.obj
 0001:0005df72       ?createSnout@@YAHPAU_iobuf@@PAVPtg3DNode@@@Z 0045ef72 f importreview.obj
 0001:0005e1e8       ?createSRect@@YAHPAU_iobuf@@PAVPtg3DNode@@@Z 0045f1e8 f importreview.obj
 0001:0005e534       ?createFacet@@YAHPAU_iobuf@@PAVPtg3DNode@@@Z 0045f534 f importreview.obj
 0001:0005e938       ?getFixedField@@YAPADPADHH@Z 0045f938 f importreview.obj
 0001:0005e9f0       ?setOuterRadius@Ptg3DRtorObj@@QAEXN@Z 0045f9f0 f importreview.obj
 0001:0005ea20       ?setInnerRadius@Ptg3DRtorObj@@QAEXN@Z 0045fa20 f importreview.obj
 0001:0005ea50       ?setHeight@Ptg3DRtorObj@@QAEXN@Z 0045fa50 f importreview.obj
 0001:0005ea80       ?setAngle@Ptg3DRtorObj@@QAEXN@Z 0045fa80 f importreview.obj
 0001:0005eab0       ?setOuterRadius@Ptg3DCtorObj@@QAEXN@Z 0045fab0 f importreview.obj
 0001:0005eae0       ?setInnerRadius@Ptg3DCtorObj@@QAEXN@Z 0045fae0 f importreview.obj
 0001:0005eb10       ?setAngle@Ptg3DCtorObj@@QAEXN@Z 0045fb10 f importreview.obj
 0001:0005eb40       ?setTopRadius@Ptg3DConeObj@@QAEXN@Z 0045fb40 f importreview.obj
 0001:0005eb70       ?setBottomRadius@Ptg3DConeObj@@QAEXN@Z 0045fb70 f importreview.obj
 0001:0005eba0       ?setHeight@Ptg3DConeObj@@QAEXN@Z 0045fba0 f importreview.obj
 0001:0005ebd0       ?setXOffset@Ptg3DConeObj@@QAEXN@Z 0045fbd0 f importreview.obj
 0001:0005ec00       ?setYOffset@Ptg3DConeObj@@QAEXN@Z 0045fc00 f importreview.obj
 0001:0005ec30       ?GetCount@?$CList@PAVHierElem@@PAV1@@@QBEHXZ 0045fc30 f importreview.obj
 0001:0005ec50       ?GetHead@?$CList@PAVHierElem@@PAV1@@@QAEAAPAVHierElem@@XZ 0045fc50 f importreview.obj
 0001:0005eca0       ?RemoveHead@?$CList@PAVHierElem@@PAV1@@@QAEPAVHierElem@@XZ 0045fca0 f importreview.obj
 0001:0005ed80       ?bundlemain@@YAHPADH@Z     0045fd80 f bundle.obj
 0001:0005f027       ?PrintUsage@@YAXXZ         00460027 f bundle.obj
 0001:0005f08a       ?ReadBundleData@@YAHPBDAAUBUNDLEDATA@@@Z 0046008a f bundle.obj
 0001:0005f18a       ?ReadBundleTMatrices@@YAHAAUBUNDLEDATA@@@Z 0046018a f bundle.obj
 0001:0005f496       ?ReadBundlePhotos@@YAHAAUBUNDLEDATA@@@Z 00460496 f bundle.obj
 0001:0005f8cd       ?GetPointIndex@@YAHAAUBUNDLEDATA@@K@Z 004608cd f bundle.obj
 0001:0005f925       ?AddPointRow@@YAHAAUBUNDLEDATA@@@Z 00460925 f bundle.obj
 0001:0005fb27       ?WriteBundleData@@YAHAAUBUNDLEDATA@@@Z 00460b27 f bundle.obj
 0001:0005fc45       ?WriteBundleTMatrices@@YAHABUBUNDLEDATA@@@Z 00460c45 f bundle.obj
 0001:0005fe6b       ?WriteBundleCalcPoints@@YAHABUBUNDLEDATA@@@Z 00460e6b f bundle.obj
 0001:00060372       ?FreeBundleData@@YAXAAUBUNDLEDATA@@@Z 00461372 f bundle.obj
 0001:000606c1       ?PrintBundleData@@YAXABUBUNDLEDATA@@@Z 004616c1 f bundle.obj
 0001:00060b05       ?print_rotation@@YAXPAN@Z  00461b05 f bundle.obj
 0001:00060b70       ??0COpenProjectDlg@@QAE@PAVCWnd@@@Z 00461b70 f OPENPROJ.OBJ
 0001:00060c5c       ?DoDataExchange@COpenProjectDlg@@MAEXPAVCDataExchange@@@Z 00461c5c f OPENPROJ.OBJ
 0001:00060cac       ?_GetBaseMessageMap@COpenProjectDlg@@KGPBUAFX_MSGMAP@@XZ 00461cac f OPENPROJ.OBJ
 0001:00060cc1       ?GetMessageMap@COpenProjectDlg@@MBEPBUAFX_MSGMAP@@XZ 00461cc1 f OPENPROJ.OBJ
 0001:00060cdc       ?OnOK@COpenProjectDlg@@MAEXXZ 00461cdc f OPENPROJ.OBJ
 0001:00060dc4       ?OnCancel@COpenProjectDlg@@MAEXXZ 00461dc4 f OPENPROJ.OBJ
 0001:00060de2       ?OnInitDialog@COpenProjectDlg@@MAEHXZ 00461de2 f OPENPROJ.OBJ
 0001:0006127b       ?setProjectsList@COpenProjectDlg@@QAEHPAUHKEY__@@@Z 0046227b f OPENPROJ.OBJ
 0001:000612a1       ?OnDblclkProjectList@COpenProjectDlg@@IAEXXZ 004622a1 f OPENPROJ.OBJ
 0001:000612d0       ??_ECOpenProjectDlg@@UAEPAXI@Z 004622d0 f OPENPROJ.OBJ
 0001:000612d0       ??_GCOpenProjectDlg@@UAEPAXI@Z 004622d0 f OPENPROJ.OBJ
 0001:00061310       ?tm_to_long@@YAJPAUtm@@@Z  00462310 f strutils.obj
 0001:00061350       ?eaDateStrToLong@@YAJPBD@Z 00462350 f strutils.obj
 0001:000613e4       ?long_to_tm@@YAXJPAUtm@@@Z 004623e4 f strutils.obj
 0001:0006145b       ?eaDateLongToStr@@YAPADJPAD@Z 0046245b f strutils.obj
 0001:000614d3       ?isStrInt@@YAHPAD@Z        004624d3 f strutils.obj
 0001:00061541       ?isStrFloat@@YAHPAD@Z      00462541 f strutils.obj
 0001:000615c7       ?strltrim@@YAXPAD@Z        004625c7 f strutils.obj
 0001:00061633       ?strrtrim@@YAXPAD@Z        00462633 f strutils.obj
 0001:00061695       ?strpack@@YAXPAD@Z         00462695 f strutils.obj
 0001:00061701       ?stripchar@@YAXPADD@Z      00462701 f strutils.obj
 0001:00061767       ?getTokens@@YAXPBDPAPAPADPAHD@Z 00462767 f strutils.obj
 0001:0006189e       ?freeTokens@@YAXPAPADH@Z   0046289e f strutils.obj
 0001:00061900       ??0CDrawList@@QAE@PAVCWnd@@PAVPtg3DNode@@@Z 00462900 f drawlist.obj
 0001:00061a3a       ?DoDataExchange@CDrawList@@MAEXPAVCDataExchange@@@Z 00462a3a f drawlist.obj
 0001:00061ae6       ?_GetBaseMessageMap@CDrawList@@KGPBUAFX_MSGMAP@@XZ 00462ae6 f drawlist.obj
 0001:00061afb       ?GetMessageMap@CDrawList@@MBEPBUAFX_MSGMAP@@XZ 00462afb f drawlist.obj
 0001:00061b16       ?OnInitDialog@CDrawList@@MAEHXZ 00462b16 f drawlist.obj
 0001:00061e83       ?AddElementToTree@CDrawList@@QAEHPAVPtg3DNode@@PAU_TREEITEM@@@Z 00462e83 f drawlist.obj
 0001:00061fb0       ?OnAdd@CDrawList@@IAEXXZ   00462fb0 f drawlist.obj
 0001:00062203       ?OnRemove@CDrawList@@IAEXXZ 00463203 f drawlist.obj
 0001:00062292       ?OnOK@CDrawList@@MAEXXZ    00463292 f drawlist.obj
 0001:000622d0       ?setColor@CDrawList@@QAEXPAVPtg3DNode@@MMM@Z 004632d0 f drawlist.obj
 0001:00062381       ?FillDrawList@CDrawList@@QAEXPAVPtg3DNode@@@Z 00463381 f drawlist.obj
 0001:0006243b       ?AddToDrawList@CDrawList@@QAEPAU_TREEITEM@@PAVPtg3DNode@@PAU2@HHH@Z 0046343b f drawlist.obj
 0001:000625e6       ?AddParent@CDrawList@@QAEPAU_TREEITEM@@PAVPtg3DNode@@@Z 004635e6 f drawlist.obj
 0001:00062643       ?FindMeInTree@CDrawList@@QAEPAU_TREEITEM@@PAU2@PAVPtg3DNode@@@Z 00463643 f drawlist.obj
 0001:00062709       ?PruneDrawList@CDrawList@@QAEPAU_TREEITEM@@PAU2@@Z 00463709 f drawlist.obj
 0001:000627f0       ??_GCDrawList@@UAEPAXI@Z   004637f0 f drawlist.obj
 0001:000627f0       ??_ECDrawList@@UAEPAXI@Z   004637f0 f drawlist.obj
 0001:00062830       ??1CDrawList@@UAE@XZ       00463830 f drawlist.obj
 0001:00062900       ??0AllElements@@QAE@XZ     00463900 f tritondraw.obj
 0001:00062c17       ??1AllElements@@UAE@XZ     00463c17 f tritondraw.obj
 0001:00062dd0       ?RecData@AllElements@@UAEPAXXZ 00463dd0 f tritondraw.obj
 0001:00062e10       ?_GetDb@AllElements@@UAEPAVVistaDb@@XZ 00463e10 f tritondraw.obj
 0001:00062e30       ??_EAllElements@@UAEPAXI@Z 00463e30 f tritondraw.obj
 0001:00062e30       ??_GAllElements@@UAEPAXI@Z 00463e30 f tritondraw.obj
 0001:00062e70       ?CreateObject@CZoneEditor@@SGPAVCObject@@XZ 00463e70 f ZoneEditor.obj
 0001:00062eb0       ?_GetBaseClass@CZoneEditor@@KGPAUCRuntimeClass@@XZ 00463eb0 f ZoneEditor.obj
 0001:00062ec5       ?GetRuntimeClass@CZoneEditor@@UBEPAUCRuntimeClass@@XZ 00463ec5 f ZoneEditor.obj
 0001:00062ee0       ??0CZoneEditor@@IAE@XZ     00463ee0 f ZoneEditor.obj
 0001:00062f75       ??1CZoneEditor@@MAE@XZ     00463f75 f ZoneEditor.obj
 0001:00062ff9       ?DoDataExchange@CZoneEditor@@MAEXPAVCDataExchange@@@Z 00463ff9 f ZoneEditor.obj
 0001:0006301d       ?_GetBaseMessageMap@CZoneEditor@@KGPBUAFX_MSGMAP@@XZ 0046401d f ZoneEditor.obj
 0001:00063032       ?GetMessageMap@CZoneEditor@@MBEPBUAFX_MSGMAP@@XZ 00464032 f ZoneEditor.obj
 0001:0006304d       ?AssertValid@CZoneEditor@@MBEXXZ 0046404d f ZoneEditor.obj
 0001:0006306b       ?Dump@CZoneEditor@@MBEXAAVCDumpContext@@@Z 0046406b f ZoneEditor.obj
 0001:0006308f       ?_GetBaseEventSinkMap@CZoneEditor@@KGPBUAFX_EVENTSINKMAP@@XZ 0046408f f ZoneEditor.obj
 0001:000630a4       ?GetEventSinkMap@CZoneEditor@@MBEPBUAFX_EVENTSINKMAP@@XZ 004640a4 f ZoneEditor.obj
 0001:000630bf       ?OnBeforeDeleteRowZonegrid@CZoneEditor@@IAEXJPAJ@Z 004640bf f ZoneEditor.obj
 0001:0006330d       ?OnChangeZonegrid@CZoneEditor@@IAEXJJ@Z 0046430d f ZoneEditor.obj
 0001:00063be5       ?OnInitialUpdate@CZoneEditor@@UAEXXZ 00464be5 f ZoneEditor.obj
 0001:00063d7a       ?OnSize@CZoneEditor@@IAEXIHH@Z 00464d7a f ZoneEditor.obj
 0001:00063e0d       ?InsertRow@CZoneEditor@@QAEXXZ 00464e0d f ZoneEditor.obj
 0001:00064365       ?DataTableToZoneData@@YAHAAVCDTData@@AAUZoneData@@@Z 00465365 f ZoneEditor.obj
 0001:0006446e       ?ZoneDataToDataTable@@YAHAAUZoneData@@AAVCDTData@@@Z 0046546e f ZoneEditor.obj
 0001:00064590       ?OnUnitsChange@CZoneEditor@@IAEJIJ@Z 00465590 f ZoneEditor.obj
 0001:000647cc       ?UpdateUnits@CZoneEditor@@QAEXPAUZoneData@@@Z 004657cc f ZoneEditor.obj
 0001:000649b0       ??_ECZoneEditor@@MAEPAXI@Z 004659b0 f ZoneEditor.obj
 0001:000649b0       ??_GCZoneEditor@@MAEPAXI@Z 004659b0 f ZoneEditor.obj
 0001:000649f0       ?GetCount@CDTColumnSet@@QAEJXZ 004659f0 f dtcolumnset.obj
 0001:00064a19       ?SetCount@CDTColumnSet@@QAEXJ@Z 00465a19 f dtcolumnset.obj
 0001:00064a45       ?GetAllowResize@CDTColumnSet@@QAEHXZ 00465a45 f dtcolumnset.obj
 0001:00064a6e       ?SetAllowResize@CDTColumnSet@@QAEXH@Z 00465a6e f dtcolumnset.obj
 0001:00064a9a       ?GetSelectType@CDTColumnSet@@QAEJXZ 00465a9a f dtcolumnset.obj
 0001:00064ac3       ?SetSelectType@CDTColumnSet@@QAEXJ@Z 00465ac3 f dtcolumnset.obj
 0001:00064aef       ?GetNumListItems@CDTColumnSet@@QAEFXZ 00465aef f dtcolumnset.obj
 0001:00064b19       ?SetNumListItems@CDTColumnSet@@QAEXF@Z 00465b19 f dtcolumnset.obj
 0001:00064b46       ?GetHideListArrow@CDTColumnSet@@QAEHXZ 00465b46 f dtcolumnset.obj
 0001:00064b6f       ?SetHideListArrow@CDTColumnSet@@QAEXH@Z 00465b6f f dtcolumnset.obj
 0001:00064b9b       ?GetLabelType@CDTColumnSet@@QAEFXZ 00465b9b f dtcolumnset.obj
 0001:00064bc5       ?SetLabelType@CDTColumnSet@@QAEXF@Z 00465bc5 f dtcolumnset.obj
 0001:00064bf2       ?GetSortEnabled@CDTColumnSet@@QAEHXZ 00465bf2 f dtcolumnset.obj
 0001:00064c1b       ?SetSortEnabled@CDTColumnSet@@QAEXH@Z 00465c1b f dtcolumnset.obj
 0001:00064c47       ?Remove@CDTColumnSet@@QAEXJ@Z 00465c47 f dtcolumnset.obj
 0001:00064c7c       ?Move@CDTColumnSet@@QAEXJJ@Z 00465c7c f dtcolumnset.obj
 0001:00064cb5       ?Copy@CDTColumnSet@@QAEXJJ@Z 00465cb5 f dtcolumnset.obj
 0001:00064cee       ?GetSelectCount@CDTColumnSet@@QAEJXZ 00465cee f dtcolumnset.obj
 0001:00064d1f       ?SelectRange@CDTColumnSet@@QAEXJJH@Z 00465d1f f dtcolumnset.obj
 0001:00064d5c       ?GetVisCount@CDTColumnSet@@QAEJJ@Z 00465d5c f dtcolumnset.obj
 0001:00064d96       ?GetSortKey@CDTColumnSet@@QAEJJ@Z 00465d96 f dtcolumnset.obj
 0001:00064dd0       ?SetSortKey@CDTColumnSet@@QAEXJJ@Z 00465dd0 f dtcolumnset.obj
 0001:00064e09       ?GetSortAsc@CDTColumnSet@@QAEHJ@Z 00465e09 f dtcolumnset.obj
 0001:00064e43       ?SetSortAsc@CDTColumnSet@@QAEXJH@Z 00465e43 f dtcolumnset.obj
 0001:00064e7c       ?GetSortCaseI@CDTColumnSet@@QAEHJ@Z 00465e7c f dtcolumnset.obj
 0001:00064eb6       ?SetSortCaseI@CDTColumnSet@@QAEXJH@Z 00465eb6 f dtcolumnset.obj
 0001:00064eef       ?GetFirstVisible@CDTColumnSet@@QAEJJ@Z 00465eef f dtcolumnset.obj
 0001:00064f29       ?SetFirstVisible@CDTColumnSet@@QAEXJJ@Z 00465f29 f dtcolumnset.obj
 0001:00064f62       ?Add@CDTColumnSet@@QAEXJ@Z 00465f62 f dtcolumnset.obj
 0001:00064f97       ?GetColWithName@CDTColumnSet@@QAEJPBD@Z 00465f97 f dtcolumnset.obj
 0001:00064fd1       ?GetItem@CDTColumnSet@@QAE?AVCDTColumn@@J@Z 00465fd1 f dtcolumnset.obj
 0001:0006505e       ?SetItem@CDTColumnSet@@QAEXJPAUIDispatch@@@Z 0046605e f dtcolumnset.obj
 0001:00065097       ?Get_Item@CDTColumnSet@@QAE?AVCDTColumn@@J@Z 00466097 f dtcolumnset.obj
 0001:00065124       ?Set_Item@CDTColumnSet@@QAEXJPAUIDispatch@@@Z 00466124 f dtcolumnset.obj
 0001:0006515d       ?GetSelect@CDTColumnSet@@QAEJJ@Z 0046615d f dtcolumnset.obj
 0001:000651a0       ??0CDTColumn@@QAE@PAUIDispatch@@@Z 004661a0 f dtcolumnset.obj
 0001:00065210       ??1CDTColumn@@QAE@XZ       00466210 f dtcolumnset.obj
 0001:00065270       ?CreateObject@CGeneralPageDlg@@SGPAVCObject@@XZ 00466270 f generalp.obj
 0001:000652fb       ?_GetBaseClass@CGeneralPageDlg@@KGPAUCRuntimeClass@@XZ 004662fb f generalp.obj
 0001:00065310       ?GetRuntimeClass@CGeneralPageDlg@@UBEPAUCRuntimeClass@@XZ 00466310 f generalp.obj
 0001:0006532b       ??0CGeneralPageDlg@@QAE@XZ 0046632b f generalp.obj
 0001:000653a1       ??1CGeneralPageDlg@@UAE@XZ 004663a1 f generalp.obj
 0001:00065409       ?DoDataExchange@CGeneralPageDlg@@MAEXPAVCDataExchange@@@Z 00466409 f generalp.obj
 0001:0006542d       ?_GetBaseMessageMap@CGeneralPageDlg@@KGPBUAFX_MSGMAP@@XZ 0046642d f generalp.obj
 0001:00065442       ?GetMessageMap@CGeneralPageDlg@@MBEPBUAFX_MSGMAP@@XZ 00466442 f generalp.obj
 0001:00065460       ??_ECGeneralPageDlg@@UAEPAXI@Z 00466460 f generalp.obj
 0001:00065460       ??_GCGeneralPageDlg@@UAEPAXI@Z 00466460 f generalp.obj
 0001:000654a0       ?CreateObject@CRaimaDatabaseDoc@@SGPAVCObject@@XZ 004664a0 f tritondb.obj
 0001:00065528       ?_GetBaseClass@CRaimaDatabaseDoc@@KGPAUCRuntimeClass@@XZ 00466528 f tritondb.obj
 0001:0006553d       ?GetRuntimeClass@CRaimaDatabaseDoc@@UBEPAUCRuntimeClass@@XZ 0046653d f tritondb.obj
 0001:00065558       ??0CRaimaDatabaseDoc@@IAE@XZ 00466558 f tritondb.obj
 0001:000655c7       ?OnNewDocument@CRaimaDatabaseDoc@@MAEHXZ 004665c7 f tritondb.obj
 0001:000655f9       ??1CRaimaDatabaseDoc@@UAE@XZ 004665f9 f tritondb.obj
 0001:00065661       ?_GetBaseMessageMap@CRaimaDatabaseDoc@@KGPBUAFX_MSGMAP@@XZ 00466661 f tritondb.obj
 0001:00065676       ?GetMessageMap@CRaimaDatabaseDoc@@MBEPBUAFX_MSGMAP@@XZ 00466676 f tritondb.obj
 0001:00065691       ?AssertValid@CRaimaDatabaseDoc@@UBEXXZ 00466691 f tritondb.obj
 0001:000656af       ?Dump@CRaimaDatabaseDoc@@UBEXAAVCDumpContext@@@Z 004666af f tritondb.obj
 0001:000656d3       ?Serialize@CRaimaDatabaseDoc@@UAEXAAVCArchive@@@Z 004666d3 f tritondb.obj
 0001:00065700       ??_ECRaimaDatabaseDoc@@UAEPAXI@Z 00466700 f tritondb.obj
 0001:00065700       ??_GCRaimaDatabaseDoc@@UAEPAXI@Z 00466700 f tritondb.obj
 0001:00065740       ?getSelectedEdge@@YAHPAVEdge_2D@@H@Z 00466740 f elem_help.obj
 0001:00065a07       ?getSelectedPoint@@YAHAAVPoint_2D@@PAD@Z 00466a07 f elem_help.obj
 0001:00065c80       ?setImageName@Point_2D@@QAEXPAD@Z 00466c80 f elem_help.obj
 0001:00065ce0       ?setPoint@Point_2D@@QAEXPAN@Z 00466ce0 f elem_help.obj
 0001:00065d60       ?GetCount@?$CList@PAVCPoint@@PAV1@@@QBEHXZ 00466d60 f elem_help.obj
 0001:00065d80       ?GetHeadPosition@?$CList@PAVCPoint@@PAV1@@@QBEPAU__POSITION@@XZ 00466d80 f elem_help.obj
 0001:00065da0       ?GetNext@?$CList@PAVCPoint@@PAV1@@@QAEAAPAVCPoint@@AAPAU__POSITION@@@Z 00466da0 f elem_help.obj
 0001:00065e00       ?qinitElemList@@YAXXZ      00466e00 f fotobvw.obj
 0001:0006635b       ?CreateObject@CFotobrowView@@SGPAVCObject@@XZ 0046735b f fotobvw.obj
 0001:000663e6       ?_GetBaseClass@CFotobrowView@@KGPAUCRuntimeClass@@XZ 004673e6 f fotobvw.obj
 0001:000663fb       ?GetRuntimeClass@CFotobrowView@@UBEPAUCRuntimeClass@@XZ 004673fb f fotobvw.obj
 0001:00066416       ??0CFotobrowView@@IAE@XZ   00467416 f fotobvw.obj
 0001:00066624       ??1CFotobrowView@@MAE@XZ   00467624 f fotobvw.obj
 0001:00066800       ?OnFinalRelease@CFotobrowView@@UAEXXZ 00467800 f fotobvw.obj
 0001:0006683e       ?_GetBaseMessageMap@CFotobrowView@@KGPBUAFX_MSGMAP@@XZ 0046783e f fotobvw.obj
 0001:00066853       ?GetMessageMap@CFotobrowView@@MBEPBUAFX_MSGMAP@@XZ 00467853 f fotobvw.obj
 0001:0006686e       ?_GetBaseDispatchMap@CFotobrowView@@KGPBUAFX_DISPMAP@@XZ 0046786e f fotobvw.obj
 0001:00066883       ?GetDispatchMap@CFotobrowView@@MBEPBUAFX_DISPMAP@@XZ 00467883 f fotobvw.obj
 0001:0006689e       ?OnDraw@CFotobrowView@@MAEXPAVCDC@@@Z 0046789e f fotobvw.obj
 0001:00066e68       ?AssertValid@CFotobrowView@@MBEXXZ 00467e68 f fotobvw.obj
 0001:00066e86       ?Dump@CFotobrowView@@MBEXAAVCDumpContext@@@Z 00467e86 f fotobvw.obj
 0001:00066eaa       ?OnLButtonUp@CFotobrowView@@IAEXIVCPoint@@@Z 00467eaa f fotobvw.obj
 0001:00066f3f       ?OnVScroll@CFotobrowView@@IAEXIIPAVCScrollBar@@@Z 00467f3f f fotobvw.obj
 0001:0006705f       ?OnHScroll@CFotobrowView@@IAEXIIPAVCScrollBar@@@Z 0046805f f fotobvw.obj
 0001:0006717f       ?OnScroll@CFotobrowView@@UAEHIIH@Z 0046817f f fotobvw.obj
 0001:000671ab       ?OnScrollBy@CFotobrowView@@MAEHVCSize@@H@Z 004681ab f fotobvw.obj
 0001:000671d7       ?OnSize@CFotobrowView@@IAEXIHH@Z 004681d7 f fotobvw.obj
 0001:000672c9       ?OnInitialUpdate@CFotobrowView@@UAEXXZ 004682c9 f fotobvw.obj
 0001:00067551       ?setImageName@CFotobrowView@@QAEXXZ 00468551 f fotobvw.obj
 0001:0006774e       ?SetStatusString@CFotobrowView@@QAEXAAVCPoint@@@Z 0046874e f fotobvw.obj
 0001:0006787d       ?OnCreate@CFotobrowView@@IAEHPAUtagCREATESTRUCTA@@@Z 0046887d f fotobvw.obj
 0001:00067a5f       ?DrawCross@CFotobrowView@@QAEXXZ 00468a5f f fotobvw.obj
 0001:00067c0e       ?CenterOnPixel@CFotobrowView@@QAEXAAVCPoint@@@Z 00468c0e f fotobvw.obj
 0001:00067da2       ?DeviceToImage@CFotobrowView@@QAE?AVCPoint@@AAV2@@Z 00468da2 f fotobvw.obj
 0001:00067e3a       ?OnZoomin@CFotobrowView@@IAEXXZ 00468e3a f fotobvw.obj
 0001:00067e5a       ?OnZoomout@CFotobrowView@@IAEXXZ 00468e5a f fotobvw.obj
 0001:00067e7a       ?ZoomMe@CFotobrowView@@QAEXH@Z 00468e7a f fotobvw.obj
 0001:00067eb6       ?OnRButtonUp@CFotobrowView@@IAEXIVCPoint@@@Z 00468eb6 f fotobvw.obj
 0001:0006803b       ?OnAccelScrolldown@CFotobrowView@@IAEXXZ 0046903b f fotobvw.obj
 0001:00068062       ?OnAccelScrollleft@CFotobrowView@@IAEXXZ 00469062 f fotobvw.obj
 0001:00068089       ?OnAccelScrollright@CFotobrowView@@IAEXXZ 00469089 f fotobvw.obj
 0001:000680b0       ?OnAccelScrollup@CFotobrowView@@IAEXXZ 004690b0 f fotobvw.obj
 0001:000680d7       ?OnAccelScrollpagedown@CFotobrowView@@IAEXXZ 004690d7 f fotobvw.obj
 0001:000680fe       ?OnAccelScrollpageleft@CFotobrowView@@IAEXXZ 004690fe f fotobvw.obj
 0001:00068125       ?OnAccelScrollpageright@CFotobrowView@@IAEXXZ 00469125 f fotobvw.obj
 0001:0006814c       ?OnAccelScrollpageup@CFotobrowView@@IAEXXZ 0046914c f fotobvw.obj
 0001:00068173       ?OnAccelFittoview@CFotobrowView@@IAEXXZ 00469173 f fotobvw.obj
 0001:00068261       ?OnQueryNewPalette@CFotobrowView@@IAEHXZ 00469261 f fotobvw.obj
 0001:0006828b       ?OnPaletteChanged@CFotobrowView@@IAEXPAVCWnd@@@Z 0046928b f fotobvw.obj
 0001:000682b9       ?SelRelPal@CFotobrowView@@QAEHH@Z 004692b9 f fotobvw.obj
 0001:0006836c       ?OnActivateView@CFotobrowView@@MAEXHPAVCView@@0@Z 0046936c f fotobvw.obj
 0001:000683bb       ?OnMouseMove@CFotobrowView@@IAEXIVCPoint@@@Z 004693bb f fotobvw.obj
 0001:000683f3       ?OnSelect@CFotobrowView@@IAEXXZ 004693f3 f fotobvw.obj
 0001:00068413       ?TrackMouse@CFotobrowView@@QAEXPAUHWND__@@PAUtagRECT@@HH@Z 00469413 f fotobvw.obj
 0001:00068a0e       ?NormalizeRect@CFotobrowView@@QAEXPAUtagRECT@@@Z 00469a0e f fotobvw.obj
 0001:00068a8e       ?DrawSelect@CFotobrowView@@QAEXPAUHDC__@@UtagRECT@@KPBD@Z 00469a8e f fotobvw.obj
 0001:00068caa       ?OnLButtonDown@CFotobrowView@@IAEXIVCPoint@@@Z 00469caa f fotobvw.obj
 0001:00068d31       ?OnViewDefineregion@CFotobrowView@@IAEXXZ 00469d31 f fotobvw.obj
 0001:00068d5b       ?OnViewDeleteregion@CFotobrowView@@IAEXXZ 00469d5b f fotobvw.obj
 0001:00068d71       ?OnViewLabelregion@CFotobrowView@@IAEXXZ 00469d71 f fotobvw.obj
 0001:00068d87       ?DrawBoxes@CFotobrowView@@QAEXXZ 00469d87 f fotobvw.obj
 0001:000690ee       ?OnFilePrintSetup@CFotobrowView@@IAEXXZ 0046a0ee f fotobvw.obj
 0001:00069104       ?SetDCPixelFormat@CFotobrowView@@QAEXPAUHDC__@@@Z 0046a104 f fotobvw.obj
 0001:000692d9       ?OnTimer@CFotobrowView@@IAEXI@Z 0046a2d9 f fotobvw.obj
 0001:00069333       ?PreCreateWindow@CFotobrowView@@MAEHAAUtagCREATESTRUCTA@@@Z 0046a333 f fotobvw.obj
 0001:00069361       ?UpdateAllViews@CFotobrowView@@QAEXXZ 0046a361 f fotobvw.obj
 0001:000694fb       ?SetSelected@CFotobrowView@@QAEXH@Z 0046a4fb f fotobvw.obj
 0001:0006958e       ?updateMyRay@CFotobrowView@@QAEXH@Z 0046a58e f fotobvw.obj
 0001:00069605       ?DrawPoints@CFotobrowView@@QAEXXZ 0046a605 f fotobvw.obj
 0001:000697d7       ?cleanMultiSelect@CFotobrowView@@QAEXXZ 0046a7d7 f fotobvw.obj
 0001:00069841       ?OnGraphicsDrawlist@CFotobrowView@@IAEXXZ 0046a841 f fotobvw.obj
 0001:000698d9       ?OnPrint@CFotobrowView@@MAEXPAVCDC@@PAUCPrintInfo@@@Z 0046a8d9 f fotobvw.obj
 0001:00069901       ?OnUpdateFilePrint@CFotobrowView@@IAEXPAVCCmdUI@@@Z 0046a901 f fotobvw.obj
 0001:00069930       ?getTargets@PtgWorld@@QAEPAVPtg3DNode@@XZ 0046a930 f fotobvw.obj
 0001:00069950       ??_ECFotobrowView@@MAEPAXI@Z 0046a950 f fotobvw.obj
 0001:00069950       ??_GCFotobrowView@@MAEPAXI@Z 0046a950 f fotobvw.obj
 0001:00069990       ?GetBitmapInfoAddress@CDIB@@QAEPAUtagBITMAPINFO@@XZ 0046a990 f fotobvw.obj
 0001:000699b0       ?GetBitsAddress@CDIB@@QAEPAXXZ 0046a9b0 f fotobvw.obj
 0001:000699d0       ?getRays@PtgWorld@@QAEPAVPtg3DNode@@XZ 0046a9d0 f fotobvw.obj
 0001:000699f0       ?GetPalette@CFotobrowDoc@@QAEPAVCDIBPal@@XZ 0046a9f0 f fotobvw.obj
 0001:00069a10       ?GetMode@CFotobrowView@@SAHXZ 0046aa10 f fotobvw.obj
 0001:00069a30       ?SetMode@CFotobrowView@@SAXH@Z 0046aa30 f fotobvw.obj
 0001:00069a50       ??0?$CList@PAVCPoint@@PAV1@@@QAE@H@Z 0046aa50 f fotobvw.obj
 0001:00069b30       ?RemoveTail@?$CList@PAVCPoint@@PAV1@@@QAEPAVCPoint@@XZ 0046ab30 f fotobvw.obj
 0001:00069c10       ?AddTail@?$CList@PAVCPoint@@PAV1@@@QAEPAU__POSITION@@PAVCPoint@@@Z 0046ac10 f fotobvw.obj
 0001:00069c90       ?GetAt@?$CList@PAVCPoint@@PAV1@@@QAEAAPAVCPoint@@PAU__POSITION@@@Z 0046ac90 f fotobvw.obj
 0001:00069cf0       ??1?$CList@PAVCPoint@@PAV1@@@UAE@XZ 0046acf0 f fotobvw.obj
 0001:00069d90       ?Serialize@?$CList@PAVCPoint@@PAV1@@@UAEXAAVCArchive@@@Z 0046ad90 f fotobvw.obj
 0001:00069e90       ?Dump@?$CList@PAVCPoint@@PAV1@@@UBEXAAVCDumpContext@@@Z 0046ae90 f fotobvw.obj
 0001:00069f40       ?AssertValid@?$CList@PAVCPoint@@PAV1@@@UBEXXZ 0046af40 f fotobvw.obj
 0001:0006a020       ??_G?$CList@PAVCPoint@@PAV1@@@UAEPAXI@Z 0046b020 f fotobvw.obj
 0001:0006a020       ??_E?$CList@PAVCPoint@@PAV1@@@UAEPAXI@Z 0046b020 f fotobvw.obj
 0001:0006a060       ?SerializeElements@@YGXAAVCArchive@@PAPAVCPoint@@H@Z 0046b060 f fotobvw.obj
 0001:0006a0f0       ?DumpElements@@YGXAAVCDumpContext@@PBQAVCPoint@@H@Z 0046b0f0 f fotobvw.obj
 0001:0006a140       ?RemoveAll@?$CList@PAVCPoint@@PAV1@@@QAEXXZ 0046b140 f fotobvw.obj
 0001:0006a1e0       ?NewNode@?$CList@PAVCPoint@@PAV1@@@IAEPAUCNode@1@PAU21@0@Z 0046b1e0 f fotobvw.obj
 0001:0006a300       ?FreeNode@?$CList@PAVCPoint@@PAV1@@@IAEXPAUCNode@1@@Z 0046b300 f fotobvw.obj
 0001:0006a380       ?DestructElements@@YGXPAPAVCPoint@@H@Z 0046b380 f fotobvw.obj
 0001:0006a3f0       ?ConstructElements@@YGXPAPAVCPoint@@H@Z 0046b3f0 f fotobvw.obj
 0001:0006a490       ?Delete@equipObj@@UAEXXZ   0046b490 f rvqDelete.obj
 0001:0006a4ae       ?Delete@image_equip_boxObj@@UAEXXZ 0046b4ae f rvqDelete.obj
 0001:0006a5d7       ?Delete@image_ptrObj@@UAEXXZ 0046b5d7 f rvqDelete.obj
 0001:0006a5f5       ?Delete@eq_docs_intObj@@UAEXXZ 0046b5f5 f rvqDelete.obj
 0001:0006a71e       ?Delete@eq_mproc_intObj@@UAEXXZ 0046b71e f rvqDelete.obj
 0001:0006a847       ?Delete@commsysObj@@UAEXXZ 0046b847 f rvqDelete.obj
 0001:0006a94b       ?Delete@vendorObj@@UAEXXZ  0046b94b f rvqDelete.obj
 0001:0006aa16       ?Delete@engdocObj@@UAEXXZ  0046ba16 f rvqDelete.obj
 0001:0006ab94       ?Delete@progressObj@@UAEXXZ 0046bb94 f rvqDelete.obj
 0001:0006ac53       ?Delete@mprocObj@@UAEXXZ   0046bc53 f rvqDelete.obj
 0001:0006add1       ?Delete@mhistObj@@UAEXXZ   0046bdd1 f rvqDelete.obj
 0001:0006af4a       ?Delete@mhist_mproc_intObj@@UAEXXZ 0046bf4a f rvqDelete.obj
 0001:0006b073       ?Delete@partsObj@@UAEXXZ   0046c073 f rvqDelete.obj
 0001:0006b2a6       ?Delete@eq_parts_intObj@@UAEXXZ 0046c2a6 f rvqDelete.obj
 0001:0006b3cf       ?Delete@parts_docs_intObj@@UAEXXZ 0046c3cf f rvqDelete.obj
 0001:0006b56b       ?KillMeHard@@YAXXZ         0046c56b f fotoview.obj
 0001:0006b57b       ?bSetupPixelFormat@@YAHPAUHDC__@@@Z 0046c57b f fotoview.obj
 0001:0006b67e       ?SetDCPixelFormat@CFotoView@@QAEXPAUHDC__@@@Z 0046c67e f fotoview.obj
 0001:0006b84a       ?CreateObject@CFotoView@@SGPAVCObject@@XZ 0046c84a f fotoview.obj
 0001:0006b8d5       ?_GetBaseClass@CFotoView@@KGPAUCRuntimeClass@@XZ 0046c8d5 f fotoview.obj
 0001:0006b8ea       ?GetRuntimeClass@CFotoView@@UBEPAUCRuntimeClass@@XZ 0046c8ea f fotoview.obj
 0001:0006b905       ??0CFotoView@@IAE@XZ       0046c905 f fotoview.obj
 0001:0006ba22       ??1CFotoView@@MAE@XZ       0046ca22 f fotoview.obj
 0001:0006bb3e       ?_GetBaseMessageMap@CFotoView@@KGPBUAFX_MSGMAP@@XZ 0046cb3e f fotoview.obj
 0001:0006bb53       ?GetMessageMap@CFotoView@@MBEPBUAFX_MSGMAP@@XZ 0046cb53 f fotoview.obj
 0001:0006bb6e       ?OnDraw@CFotoView@@MAEXPAVCDC@@@Z 0046cb6e f fotoview.obj
 0001:0006c3fc       ?AssertValid@CFotoView@@MBEXXZ 0046d3fc f fotoview.obj
 0001:0006c41a       ?Dump@CFotoView@@MBEXAAVCDumpContext@@@Z 0046d41a f fotoview.obj
 0001:0006c43e       ?OnCamera@CFotoView@@IAEXXZ 0046d43e f fotoview.obj
 0001:0006c454       ?OnImage@CFotoView@@IAEXXZ 0046d454 f fotoview.obj
 0001:0006c46a       ?OnTarget@CFotoView@@IAEXXZ 0046d46a f fotoview.obj
 0001:0006c480       ?OnCreate@CFotoView@@IAEHPAUtagCREATESTRUCTA@@@Z 0046d480 f fotoview.obj
 0001:0006c7f7       ?PreCreateWindow@CFotoView@@MAEHAAUtagCREATESTRUCTA@@@Z 0046d7f7 f fotoview.obj
 0001:0006c825       ?OnSize@CFotoView@@IAEXIHH@Z 0046d825 f fotoview.obj
 0001:0006c95c       ?OnTimer@CFotoView@@IAEXI@Z 0046d95c f fotoview.obj
 0001:0006c9fd       ?OnInitialUpdate@CFotoView@@UAEXXZ 0046d9fd f fotoview.obj
 0001:0006ca94       ?DrawColumns@CFotoView@@QAEXXZ 0046da94 f fotoview.obj
 0001:0006cd29       ?OnPaletteChanged@CFotoView@@IAEXPAVCWnd@@@Z 0046dd29 f fotoview.obj
 0001:0006cdae       ?OnQueryNewPalette@CFotoView@@IAEHXZ 0046ddae f fotoview.obj
 0001:0006ce4a       ?SelRelPal@CFotoView@@QAEHH@Z 0046de4a f fotoview.obj
 0001:0006cf10       ?OnActivateView@CFotoView@@MAEXHPAVCView@@0@Z 0046df10 f fotoview.obj
 0001:0006cf5f       ?OnLButtonUp@CFotoView@@IAEXIVCPoint@@@Z 0046df5f f fotoview.obj
 0001:0006d0b4       ?getPickedElement@CFotoView@@QAEPAVPtg3DNode@@PAVPtgCamera@@PAV2@HH@Z 0046e0b4 f fotoview.obj
 0001:0006d4e1       ?OnRButtonUp@CFotoView@@IAEXIVCPoint@@@Z 0046e4e1 f fotoview.obj
 0001:0006d662       ?OnZoomin@CFotoView@@IAEXXZ 0046e662 f fotoview.obj
 0001:0006d682       ?OnZoomout@CFotoView@@IAEXXZ 0046e682 f fotoview.obj
 0001:0006d6a2       ?OnSelect@CFotoView@@IAEXXZ 0046e6a2 f fotoview.obj
 0001:0006d6c2       ?OnSetOrtho@CFotoView@@IAEXXZ 0046e6c2 f fotoview.obj
 0001:0006d6fd       ?OnSetPerspective@CFotoView@@IAEXXZ 0046e6fd f fotoview.obj
 0001:0006d738       ?OnLButtonDblClk@CFotoView@@IAEXIVCPoint@@@Z 0046e738 f fotoview.obj
 0001:0006d764       ?OnSetCenter@CFotoView@@IAEXXZ 0046e764 f fotoview.obj
 0001:0006d77a       ?OnClipvolume@CFotoView@@IAEXXZ 0046e77a f fotoview.obj
 0001:0006d8ba       ?OnUpdateZoomin@CFotoView@@IAEXPAVCCmdUI@@@Z 0046e8ba f fotoview.obj
 0001:0006d8fd       ?OnUpdateZoomout@CFotoView@@IAEXPAVCCmdUI@@@Z 0046e8fd f fotoview.obj
 0001:0006d940       ?NewClipvolume@CFotoView@@IAEJIJ@Z 0046e940 f fotoview.obj
 0001:0006da51       ?DoOrthoClip@CFotoView@@QAEXAAVCRect@@@Z 0046ea51 f fotoview.obj
 0001:0006dbe3       ?SetStatusString@CFotoView@@QAEXPAD@Z 0046ebe3 f fotoview.obj
 0001:0006dc77       ?OnHScroll@CFotoView@@IAEXIIPAVCScrollBar@@@Z 0046ec77 f fotoview.obj
 0001:0006de01       ?OnVScroll@CFotoView@@IAEXIIPAVCScrollBar@@@Z 0046ee01 f fotoview.obj
 0001:0006df8b       ?OnScroll@CFotoView@@UAEHIIH@Z 0046ef8b f fotoview.obj
 0001:0006dfb7       ?OnGraphicsDrawlist@CFotoView@@IAEXXZ 0046efb7 f fotoview.obj
 0001:0006e0f9       ?OnViewFillmode@CFotoView@@IAEXXZ 0046f0f9 f fotoview.obj
 0001:0006e157       ?OnGraphicsClipzones@CFotoView@@IAEXXZ 0046f157 f fotoview.obj
 0001:0006e297       ?getMinMaxCamera@CFotoView@@QAEXPAVPtg3DNode@@@Z 0046f297 f fotoview.obj
 0001:0006e477       ?OnGraphicsFitview@CFotoView@@IAEXXZ 0046f477 f fotoview.obj
 0001:0006e635       ?OnGraphicsLight@CFotoView@@IAEXXZ 0046f635 f fotoview.obj
 0001:0006e77a       ?OnGraphicsOpenglsettings@CFotoView@@IAEXXZ 0046f77a f fotoview.obj
 0001:0006ebb0       ?regenView@CFotoView@@QAEXXZ 0046fbb0 f fotoview.obj
 0001:0006ec67       ?OnEraseBkgnd@CFotoView@@IAEHPAVCDC@@@Z 0046fc67 f fotoview.obj
 0001:0006ec90       ?SetMode@CFotoView@@SAXH@Z 0046fc90 f fotoview.obj
 0001:0006ecb0       ??_GCFotoView@@MAEPAXI@Z   0046fcb0 f fotoview.obj
 0001:0006ecb0       ??_ECFotoView@@MAEPAXI@Z   0046fcb0 f fotoview.obj
 0001:0006ecf0       ?GetPalette@CFotogDoc@@QAEPAVCPalette@@XZ 0046fcf0 f fotoview.obj
 0001:0006ed10       ?getCameras@PtgWorld@@QAEPAVPtg3DNode@@XZ 0046fd10 f fotoview.obj
 0001:0006ed30       ?getPosition@PtgCamera@@QBEPBNXZ 0046fd30 f fotoview.obj
 0001:0006ed50       ?setLookDist@PtgCamera@@QAEXN@Z 0046fd50 f fotoview.obj
 0001:0006ed80       ?getLookDist@PtgCamera@@QAENXZ 0046fd80 f fotoview.obj
 0001:0006eda0       ?GetMode@CFotoView@@SAHXZ  0046fda0 f fotoview.obj
 0001:0006edc0       ?setViewType@PtgCamera@@QAEXW4ViewType@1@@Z 0046fdc0 f fotoview.obj
 0001:0006edf0       ?setLightValues@CLightAdjust@@QAEXMMMM@Z 0046fdf0 f fotoview.obj
 0001:0006ee40       ?getLightValues@CLightAdjust@@QAEXPAM000@Z 0046fe40 f fotoview.obj
 0001:0006ee90       ??1CLightAdjust@@UAE@XZ    0046fe90 f fotoview.obj
 0001:0006ef60       ?getOpenGLBits@COpenGLSettings@@QAEJXZ 0046ff60 f fotoview.obj
 0001:0006ef80       ?GetSelectType@CDTCellSet@@QAEJXZ 0046ff80 f dtcellset.obj
 0001:0006efa9       ?SetSelectType@CDTCellSet@@QAEXJ@Z 0046ffa9 f dtcellset.obj
 0001:0006efd5       ?GetNullString@CDTCellSet@@QAE?AVCString@@XZ 0046ffd5 f dtcellset.obj
 0001:0006f074       ?SetNullString@CDTCellSet@@QAEXPBD@Z 00470074 f dtcellset.obj
 0001:0006f0a0       ?GetItem@CDTCellSet@@QAE?AVCDTCell@@JJ@Z 004700a0 f dtcellset.obj
 0001:0006f131       ?SetItem@CDTCellSet@@QAEXJJPAUIDispatch@@@Z 00470131 f dtcellset.obj
 0001:0006f16e       ?SelectBlock@CDTCellSet@@QAEXJJJJH@Z 0047016e f dtcellset.obj
 0001:0006f1b3       ?GetSelect@CDTCellSet@@QAEHPAJ000@Z 004701b3 f dtcellset.obj
 0001:0006f1f9       ?GetCellAtPoint@CDTCellSet@@QAEJMMPAFPAJ1@Z 004701f9 f dtcellset.obj
 0001:0006f24d       ?Get_Item@CDTCellSet@@QAE?AVCDTCell@@JJ@Z 0047024d f dtcellset.obj
 0001:0006f2de       ?Set_Item@CDTCellSet@@QAEXJJPAUIDispatch@@@Z 004702de f dtcellset.obj
 0001:0006f320       ??0CDTCell@@QAE@PAUIDispatch@@@Z 00470320 f dtcellset.obj
 0001:0006f390       ??1CDTCell@@QAE@XZ         00470390 f dtcellset.obj
 0001:0006f3f0       ??0Ptg3DRtorObj@@QAE@XZ    004703f0 f Ptg3DRtorObj.obj
 0001:0006f467       ??1Ptg3DRtorObj@@UAE@XZ    00470467 f Ptg3DRtorObj.obj
 0001:0006f4cf       ?initVars@Ptg3DRtorObj@@AAEXXZ 004704cf f Ptg3DRtorObj.obj
 0001:0006f530       ?getType@Ptg3DRtorObj@@UAEPBDXZ 00470530 f Ptg3DRtorObj.obj
 0001:0006f550       ??_GPtg3DRtorObj@@UAEPAXI@Z 00470550 f Ptg3DRtorObj.obj
 0001:0006f550       ??_EPtg3DRtorObj@@UAEPAXI@Z 00470550 f Ptg3DRtorObj.obj
 0001:0006f590       ?Prune@TransformObj@@QAEXW4T_F@@0@Z 00470590 f triton.obj
 0001:0006f6a0       ?Prune@ClassesObj@@QAEXW4T_F@@0@Z 004706a0 f triton.obj
 0001:0006faf2       ?Prune@GroupsObj@@QAEXW4T_F@@0@Z 00470af2 f triton.obj
 0001:0006fc02       ?Prune@PropertiesObj@@QAEXW4T_F@@0@Z 00470c02 f triton.obj
 0001:0006fd12       ?Prune@AllElements@@QAEXW4T_F@@0@Z 00470d12 f triton.obj
 0001:0006fe30       ?DisConnect@AllElements@@QAE?AW4T_F@@AAVClassesObj@@H@Z 00470e30 f triton.obj
 0001:0006fe60       ??0CDIBPal@@QAE@XZ         00470e60 f DIBPAL.OBJ
 0001:0006fecf       ??1CDIBPal@@UAE@XZ         00470ecf f DIBPAL.OBJ
 0001:0006ff37       ?Create@CDIBPal@@QAEHPAVCDIB@@@Z 00470f37 f DIBPAL.OBJ
 0001:0007004e       ?GetNumColors@CDIBPal@@QAEHXZ 0047104e f DIBPAL.OBJ
 0001:00070098       ?Draw@CDIBPal@@QAEXPAVCDC@@PAVCRect@@H@Z 00471098 f DIBPAL.OBJ
 0001:00070218       ?SetSysPalColors@CDIBPal@@QAEHXZ 00471218 f DIBPAL.OBJ
 0001:00070430       ??_GCDIBPal@@UAEPAXI@Z     00471430 f DIBPAL.OBJ
 0001:00070430       ??_ECDIBPal@@UAEPAXI@Z     00471430 f DIBPAL.OBJ
 0001:00070470       ?GetClrTabAddress@CDIB@@QAEPAUtagRGBQUAD@@XZ 00471470 f DIBPAL.OBJ
 0001:00070490       ?strsub@@YAPADPADHH@Z      00471490 f numcnvt.obj
 0001:000704d9       ?strstrip@@YAPADPADH@Z     004714d9 f numcnvt.obj
 0001:00070565       ?ConvertUnits@@YAPADPADHN@Z 00471565 f numcnvt.obj
 0001:00070aba       ?EnglishToMetric@@YAHPADPAN@Z 00471aba f numcnvt.obj
 0001:00070cf0       ?drawbox@@YAXMNNN@Z        00471cf0 f Ptg3DBoxObjOGL.obj
 0001:000710fd       ?drawWireframe@Ptg3DBoxObj@@MAEXXZ 004720fd f Ptg3DBoxObjOGL.obj
 0001:0007118b       ?drawSolid@Ptg3DBoxObj@@MAEXXZ 0047218b f Ptg3DBoxObjOGL.obj
 0001:00071220       ?draw@Ptg3DNode@@QAEXXZ    00472220 f Ptg3DNodeOGL.obj
 0001:000713c5       ?drawWireframe@Ptg3DNode@@MAEXXZ 004723c5 f Ptg3DNodeOGL.obj
 0001:000713db       ?drawSolid@Ptg3DNode@@MAEXXZ 004723db f Ptg3DNodeOGL.obj
 0001:00071400       ?drawWireframe@Ptg3DLineObj@@MAEXXZ 00472400 f Ptg3DLineObjOGL.obj
 0001:000714b4       ?drawSolid@Ptg3DLineObj@@MAEXXZ 004724b4 f Ptg3DLineObjOGL.obj
 0001:000714e0       ??0CCircleDataDlg@@QAE@PAVCWnd@@@Z 004724e0 f CircleDataDlg.obj
 0001:0007159e       ?DoDataExchange@CCircleDataDlg@@MAEXPAVCDataExchange@@@Z 0047259e f CircleDataDlg.obj
 0001:00071626       ?_GetBaseMessageMap@CCircleDataDlg@@KGPBUAFX_MSGMAP@@XZ 00472626 f CircleDataDlg.obj
 0001:0007163b       ?GetMessageMap@CCircleDataDlg@@MBEPBUAFX_MSGMAP@@XZ 0047263b f CircleDataDlg.obj
 0001:00071656       ?setValues@CCircleDataDlg@@QAEXNNPAN@Z 00472656 f CircleDataDlg.obj
 0001:000716c2       ?getValues@CCircleDataDlg@@QAEXPAN00@Z 004726c2 f CircleDataDlg.obj
 0001:00071740       ??_ECCircleDataDlg@@UAEPAXI@Z 00472740 f CircleDataDlg.obj
 0001:00071740       ??_GCCircleDataDlg@@UAEPAXI@Z 00472740 f CircleDataDlg.obj
 0001:00071780       ??1CCircleDataDlg@@UAE@XZ  00472780 f CircleDataDlg.obj
 0001:000717e0       ??0PtgTransMatrix@@QAE@XZ  004727e0 f PtgTransMatrix.obj
 0001:00071801       ??0PtgTransMatrix@@QAE@PAN@Z 00472801 f PtgTransMatrix.obj
 0001:00071830       ?initVars@PtgTransMatrix@@AAEXXZ 00472830 f PtgTransMatrix.obj
 0001:0007185f       ??1PtgTransMatrix@@QAE@XZ  0047285f f PtgTransMatrix.obj
 0001:0007189a       ?setMatrix@PtgTransMatrix@@QAEXPAN@Z 0047289a f PtgTransMatrix.obj
 0001:000718e9       ?setMatrix@PtgTransMatrix@@QAEXAAV1@@Z 004728e9 f PtgTransMatrix.obj
 0001:0007195a       ?getMatrix@PtgTransMatrix@@QAEPANXZ 0047295a f PtgTransMatrix.obj
 0001:0007199e       ??APtgTransMatrix@@QAENH@Z 0047299e f PtgTransMatrix.obj
 0001:00071a2f       ?setIdentity@PtgTransMatrix@@QAEXXZ 00472a2f f PtgTransMatrix.obj
 0001:00071ad0       ??0CCircleByEdge@@QAE@PAVCWnd@@@Z 00472ad0 f CircleByEdge.obj
 0001:00071b4a       ?DoDataExchange@CCircleByEdge@@MAEXPAVCDataExchange@@@Z 00472b4a f CircleByEdge.obj
 0001:00071b6e       ?_GetBaseMessageMap@CCircleByEdge@@KGPBUAFX_MSGMAP@@XZ 00472b6e f CircleByEdge.obj
 0001:00071b83       ?GetMessageMap@CCircleByEdge@@MBEPBUAFX_MSGMAP@@XZ 00472b83 f CircleByEdge.obj
 0001:00071b9e       ?OnOK@CCircleByEdge@@MAEXXZ 00472b9e f CircleByEdge.obj
 0001:000724fb       ?OnCancel@CCircleByEdge@@MAEXXZ 004734fb f CircleByEdge.obj
 0001:00072519       ?OnInitDialog@CCircleByEdge@@MAEHXZ 00473519 f CircleByEdge.obj
 0001:0007254b       ?PrintMakeCircData@@YAXHPAHPAPAPAPANPAPAPAN@Z 0047354b f CircleByEdge.obj
 0001:000727a0       ??_ECCircleByEdge@@UAEPAXI@Z 004737a0 f CircleByEdge.obj
 0001:000727a0       ??_GCCircleByEdge@@UAEPAXI@Z 004737a0 f CircleByEdge.obj
 0001:000727e0       ??1CCircleByEdge@@UAE@XZ   004737e0 f CircleByEdge.obj
 0001:00072840       ??0Edge_2D@@QAE@XZ         00473840 f CircleByEdge.obj
 0001:000728d0       ??0Point_2D@@QAE@XZ        004738d0 f CircleByEdge.obj
 0001:00072900       ??1Point_2D@@QAE@XZ        00473900 f CircleByEdge.obj
 0001:00072960       ??_GEdge_2D@@QAEPAXI@Z     00473960 f CircleByEdge.obj
 0001:000729a0       ??1Edge_2D@@QAE@XZ         004739a0 f CircleByEdge.obj
 0001:00072a50       ??0?$CList@PAVEdge_2D@@PAV1@@@QAE@H@Z 00473a50 f CircleByEdge.obj
 0001:00072b30       ?GetCount@?$CList@PAVEdge_2D@@PAV1@@@QBEHXZ 00473b30 f CircleByEdge.obj
 0001:00072b50       ?RemoveTail@?$CList@PAVEdge_2D@@PAV1@@@QAEPAVEdge_2D@@XZ 00473b50 f CircleByEdge.obj
 0001:00072c30       ?AddTail@?$CList@PAVEdge_2D@@PAV1@@@QAEPAU__POSITION@@PAVEdge_2D@@@Z 00473c30 f CircleByEdge.obj
 0001:00072cb0       ?GetHeadPosition@?$CList@PAVEdge_2D@@PAV1@@@QBEPAU__POSITION@@XZ 00473cb0 f CircleByEdge.obj
 0001:00072cd0       ?GetNext@?$CList@PAVEdge_2D@@PAV1@@@QAEAAPAVEdge_2D@@AAPAU__POSITION@@@Z 00473cd0 f CircleByEdge.obj
 0001:00072d30       ??1?$CList@PAVEdge_2D@@PAV1@@@UAE@XZ 00473d30 f CircleByEdge.obj
 0001:00072dd0       ?Serialize@?$CList@PAVEdge_2D@@PAV1@@@UAEXAAVCArchive@@@Z 00473dd0 f CircleByEdge.obj
 0001:00072ed0       ?Dump@?$CList@PAVEdge_2D@@PAV1@@@UBEXAAVCDumpContext@@@Z 00473ed0 f CircleByEdge.obj
 0001:00072f80       ?AssertValid@?$CList@PAVEdge_2D@@PAV1@@@UBEXXZ 00473f80 f CircleByEdge.obj
 0001:00073060       ??_G?$CList@PAVEdge_2D@@PAV1@@@UAEPAXI@Z 00474060 f CircleByEdge.obj
 0001:00073060       ??_E?$CList@PAVEdge_2D@@PAV1@@@UAEPAXI@Z 00474060 f CircleByEdge.obj
 0001:000730a0       ?SerializeElements@@YGXAAVCArchive@@PAPAVEdge_2D@@H@Z 004740a0 f CircleByEdge.obj
 0001:00073130       ?DumpElements@@YGXAAVCDumpContext@@PBQAVEdge_2D@@H@Z 00474130 f CircleByEdge.obj
 0001:00073180       ?RemoveAll@?$CList@PAVEdge_2D@@PAV1@@@QAEXXZ 00474180 f CircleByEdge.obj
 0001:00073220       ?NewNode@?$CList@PAVEdge_2D@@PAV1@@@IAEPAUCNode@1@PAU21@0@Z 00474220 f CircleByEdge.obj
 0001:00073340       ?FreeNode@?$CList@PAVEdge_2D@@PAV1@@@IAEXPAUCNode@1@@Z 00474340 f CircleByEdge.obj
 0001:000733c0       ?DestructElements@@YGXPAPAVEdge_2D@@H@Z 004743c0 f CircleByEdge.obj
 0001:00073430       ?ConstructElements@@YGXPAPAVEdge_2D@@H@Z 00474430 f CircleByEdge.obj
 0001:000734d0       ?GetCount@CDTRowSet@@QAEJXZ 004744d0 f dtrowset.obj
 0001:000734f9       ?SetCount@CDTRowSet@@QAEXJ@Z 004744f9 f dtrowset.obj
 0001:00073525       ?GetAllowResize@CDTRowSet@@QAEHXZ 00474525 f dtrowset.obj
 0001:0007354e       ?SetAllowResize@CDTRowSet@@QAEXH@Z 0047454e f dtrowset.obj
 0001:0007357a       ?GetSelectType@CDTRowSet@@QAEJXZ 0047457a f dtrowset.obj
 0001:000735a3       ?SetSelectType@CDTRowSet@@QAEXJ@Z 004745a3 f dtrowset.obj
 0001:000735cf       ?GetVertAlign@CDTRowSet@@QAEJXZ 004745cf f dtrowset.obj
 0001:000735f8       ?SetVertAlign@CDTRowSet@@QAEXJ@Z 004745f8 f dtrowset.obj
 0001:00073624       ?GetHeadingType@CDTRowSet@@QAEFXZ 00474624 f dtrowset.obj
 0001:0007364e       ?SetHeadingType@CDTRowSet@@QAEXF@Z 0047464e f dtrowset.obj
 0001:0007367b       ?GetHeight@CDTRowSet@@QAEMXZ 0047467b f dtrowset.obj
 0001:000736a4       ?SetHeight@CDTRowSet@@QAEXM@Z 004746a4 f dtrowset.obj
 0001:000736d5       ?GetTrapDeleteKey@CDTRowSet@@QAEHXZ 004746d5 f dtrowset.obj
 0001:000736fe       ?SetTrapDeleteKey@CDTRowSet@@QAEXH@Z 004746fe f dtrowset.obj
 0001:0007372a       ?GetTrapInsertKey@CDTRowSet@@QAEHXZ 0047472a f dtrowset.obj
 0001:00073753       ?SetTrapInsertKey@CDTRowSet@@QAEXH@Z 00474753 f dtrowset.obj
 0001:0007377f       ?GetAllowAutoRowInsert@CDTRowSet@@QAEHXZ 0047477f f dtrowset.obj
 0001:000737a8       ?SetAllowAutoRowInsert@CDTRowSet@@QAEXH@Z 004747a8 f dtrowset.obj
 0001:000737d4       ?Copy@CDTRowSet@@QAEXJJ@Z  004747d4 f dtrowset.obj
 0001:0007380d       ?Move@CDTRowSet@@QAEXJJ@Z  0047480d f dtrowset.obj
 0001:00073846       ?Remove@CDTRowSet@@QAEXJ@Z 00474846 f dtrowset.obj
 0001:0007387b       ?GetSelectCount@CDTRowSet@@QAEJXZ 0047487b f dtrowset.obj
 0001:000738ac       ?SelectRange@CDTRowSet@@QAEXJJH@Z 004748ac f dtrowset.obj
 0001:000738e9       ?GetVisCount@CDTRowSet@@QAEJJ@Z 004748e9 f dtrowset.obj
 0001:00073923       ?GetFirstVisible@CDTRowSet@@QAEJJ@Z 00474923 f dtrowset.obj
 0001:0007395d       ?SetFirstVisible@CDTRowSet@@QAEXJJ@Z 0047495d f dtrowset.obj
 0001:00073996       ?Reset@CDTRowSet@@QAEXXZ   00474996 f dtrowset.obj
 0001:000739c2       ?Add@CDTRowSet@@QAEJJABUtagVARIANT@@@Z 004749c2 f dtrowset.obj
 0001:00073a00       ?GetItem@CDTRowSet@@QAE?AVCDTRow@@J@Z 00474a00 f dtrowset.obj
 0001:00073a8d       ?SetItem@CDTRowSet@@QAEXJPAUIDispatch@@@Z 00474a8d f dtrowset.obj
 0001:00073ac6       ?Get_Item@CDTRowSet@@QAE?AVCDTRow@@J@Z 00474ac6 f dtrowset.obj
 0001:00073b53       ?Set_Item@CDTRowSet@@QAEXJPAUIDispatch@@@Z 00474b53 f dtrowset.obj
 0001:00073b8c       ?GetSelect@CDTRowSet@@QAEJJ@Z 00474b8c f dtrowset.obj
 0001:00073bd0       ??0CDTRow@@QAE@PAUIDispatch@@@Z 00474bd0 f dtrowset.obj
 0001:00073c40       ??0CRadiographyData@@QAE@PAVCWnd@@@Z 00474c40 f RadiographyData.obj
 0001:00073d10       ?DoDataExchange@CRadiographyData@@MAEXPAVCDataExchange@@@Z 00474d10 f RadiographyData.obj
 0001:00073d5e       ?_GetBaseMessageMap@CRadiographyData@@KGPBUAFX_MSGMAP@@XZ 00474d5e f RadiographyData.obj
 0001:00073d73       ?GetMessageMap@CRadiographyData@@MBEPBUAFX_MSGMAP@@XZ 00474d73 f RadiographyData.obj
 0001:00073d8e       ?OnBrowseApp@CRadiographyData@@IAEXXZ 00474d8e f RadiographyData.obj
 0001:00073e69       ?OnBrowseDatafile@CRadiographyData@@IAEXXZ 00474e69 f RadiographyData.obj
 0001:00073f44       ?OnOK@CRadiographyData@@MAEXXZ 00474f44 f RadiographyData.obj
 0001:00073f62       ?OnCancel@CRadiographyData@@MAEXXZ 00474f62 f RadiographyData.obj
 0001:00073f80       ?OnViewfile@CRadiographyData@@IAEXXZ 00474f80 f RadiographyData.obj
 0001:00074060       ??_ECRadiographyData@@UAEPAXI@Z 00475060 f RadiographyData.obj
 0001:00074060       ??_GCRadiographyData@@UAEPAXI@Z 00475060 f RadiographyData.obj
 0001:000740a0       ??0CBrowserDlg@@QAE@HPBD0K0PAVCWnd@@@Z 004750a0 f RadiographyData.obj
 0001:00074130       ?OnInitDialog@CBrowserDlg@@UAEHXZ 00475130 f RadiographyData.obj
 0001:00074160       ??_GCBrowserDlg@@UAEPAXI@Z 00475160 f RadiographyData.obj
 0001:00074160       ??_ECBrowserDlg@@UAEPAXI@Z 00475160 f RadiographyData.obj
 0001:000741a0       ??1CBrowserDlg@@UAE@XZ     004751a0 f RadiographyData.obj
 0001:00074200       ??0CSelectEqImageDlg@@QAE@PAVCWnd@@@Z 00475200 f selecteq.obj
 0001:000743f8       ?DoDataExchange@CSelectEqImageDlg@@MAEXPAVCDataExchange@@@Z 004753f8 f selecteq.obj
 0001:00074445       ?_GetBaseMessageMap@CSelectEqImageDlg@@KGPBUAFX_MSGMAP@@XZ 00475445 f selecteq.obj
 0001:0007445a       ?GetMessageMap@CSelectEqImageDlg@@MBEPBUAFX_MSGMAP@@XZ 0047545a f selecteq.obj
 0001:00074475       ?OnInitDialog@CSelectEqImageDlg@@MAEHXZ 00475475 f selecteq.obj
 0001:0007487d       ?OnDblclkEqList@CSelectEqImageDlg@@IAEXPAUtagNMHDR@@PAJ@Z 0047587d f selecteq.obj
 0001:000749c2       ?OnRdblclkEqList@CSelectEqImageDlg@@IAEXPAUtagNMHDR@@PAJ@Z 004759c2 f selecteq.obj
 0001:000749da       ?OnSelchangedEqList@CSelectEqImageDlg@@IAEXPAUtagNMHDR@@PAJ@Z 004759da f selecteq.obj
 0001:00074a01       ?DestroyWindow@CSelectEqImageDlg@@UAEHXZ 00475a01 f selecteq.obj
 0001:00074b14       ?OnUnlink@CSelectEqImageDlg@@IAEXXZ 00475b14 f selecteq.obj
 0001:00074eb4       ?OnOK@CSelectEqImageDlg@@MAEXXZ 00475eb4 f selecteq.obj
 0001:00074ed2       ?OnOpenImage@CSelectEqImageDlg@@IAEXXZ 00475ed2 f selecteq.obj
 0001:0007502e       ?OnEndlabeleditEqList@CSelectEqImageDlg@@IAEXPAUtagNMHDR@@PAJ@Z 0047602e f selecteq.obj
 0001:0007518e       ?OpenImageByDba@CSelectEqImageDlg@@QAEXK@Z 0047618e f selecteq.obj
 0001:0007521b       ?OnEquipTagData@CSelectEqImageDlg@@IAEXXZ 0047621b f selecteq.obj
 0001:000755d6       ?OnBeginlabeleditEqList@CSelectEqImageDlg@@IAEXPAUtagNMHDR@@PAJ@Z 004765d6 f selecteq.obj
 0001:00075620       ??_ECSelectEqImageDlg@@UAEPAXI@Z 00476620 f selecteq.obj
 0001:00075620       ??_GCSelectEqImageDlg@@UAEPAXI@Z 00476620 f selecteq.obj
 0001:00075660       ??1CSelectEqImageDlg@@UAE@XZ 00476660 f selecteq.obj
 0001:00075700       ??0Ptg3DLineObj@@QAE@XZ    00476700 f Ptg3DLineObj.obj
 0001:00075777       ??1Ptg3DLineObj@@UAE@XZ    00476777 f Ptg3DLineObj.obj
 0001:00075805       ?initVars@Ptg3DLineObj@@AAEXXZ 00476805 f Ptg3DLineObj.obj
 0001:00075850       ?setLength@Ptg3DLineObj@@QAEXN@Z 00476850 f Ptg3DLineObj.obj
 0001:00075877       ?setOrigin@Ptg3DLineObj@@QAEXNNN@Z 00476877 f Ptg3DLineObj.obj
 0001:000758c5       ?setDirection@Ptg3DLineObj@@QAEXNNN@Z 004768c5 f Ptg3DLineObj.obj
 0001:0007592e       ?setEndPoint@Ptg3DLineObj@@QAEXNNN@Z 0047692e f Ptg3DLineObj.obj
 0001:000759d0       ?getType@Ptg3DLineObj@@UAEPBDXZ 004769d0 f Ptg3DLineObj.obj
 0001:000759f0       ??_GPtg3DLineObj@@UAEPAXI@Z 004769f0 f Ptg3DLineObj.obj
 0001:000759f0       ??_EPtg3DLineObj@@UAEPAXI@Z 004769f0 f Ptg3DLineObj.obj
 0001:00075a30       ??0CCreateCylinderByEndpointsDlg@@QAE@PAVCWnd@@@Z 00476a30 f CreateCylinderByEndpointsDlg.obj
 0001:00075aaa       ?DoDataExchange@CCreateCylinderByEndpointsDlg@@MAEXPAVCDataExchange@@@Z 00476aaa f CreateCylinderByEndpointsDlg.obj
 0001:00075ace       ?_GetBaseMessageMap@CCreateCylinderByEndpointsDlg@@KGPBUAFX_MSGMAP@@XZ 00476ace f CreateCylinderByEndpointsDlg.obj
 0001:00075ae3       ?GetMessageMap@CCreateCylinderByEndpointsDlg@@MBEPBUAFX_MSGMAP@@XZ 00476ae3 f CreateCylinderByEndpointsDlg.obj
 0001:00075b00       ??_GCCreateCylinderByEndpointsDlg@@UAEPAXI@Z 00476b00 f CreateCylinderByEndpointsDlg.obj
 0001:00075b00       ??_ECCreateCylinderByEndpointsDlg@@UAEPAXI@Z 00476b00 f CreateCylinderByEndpointsDlg.obj
 0001:00075b40       ??1CCreateCylinderByEndpointsDlg@@UAE@XZ 00476b40 f CreateCylinderByEndpointsDlg.obj
 0001:00075ba0       ?GetName@COleFont@@QAE?AVCString@@XZ 00476ba0 f font.obj
 0001:00075c3f       ?SetName@COleFont@@QAEXPBD@Z 00476c3f f font.obj
 0001:00075c6b       ?GetSize@COleFont@@QAE?ATtagCY@@XZ 00476c6b f font.obj
 0001:00075ca4       ?SetSize@COleFont@@QAEXABTtagCY@@@Z 00476ca4 f font.obj
 0001:00075cd0       ?GetBold@COleFont@@QAEHXZ  00476cd0 f font.obj
 0001:00075cf9       ?SetBold@COleFont@@QAEXH@Z 00476cf9 f font.obj
 0001:00075d25       ?GetItalic@COleFont@@QAEHXZ 00476d25 f font.obj
 0001:00075d4e       ?SetItalic@COleFont@@QAEXH@Z 00476d4e f font.obj
 0001:00075d7a       ?GetUnderline@COleFont@@QAEHXZ 00476d7a f font.obj
 0001:00075da3       ?SetUnderline@COleFont@@QAEXH@Z 00476da3 f font.obj
 0001:00075dcf       ?GetStrikethrough@COleFont@@QAEHXZ 00476dcf f font.obj
 0001:00075df8       ?SetStrikethrough@COleFont@@QAEXH@Z 00476df8 f font.obj
 0001:00075e24       ?GetWeight@COleFont@@QAEFXZ 00476e24 f font.obj
 0001:00075e4e       ?SetWeight@COleFont@@QAEXF@Z 00476e4e f font.obj
 0001:00075e7b       ?GetCharset@COleFont@@QAEFXZ 00476e7b f font.obj
 0001:00075ea5       ?SetCharset@COleFont@@QAEXF@Z 00476ea5 f font.obj
 0001:00075ee0       ??0CCreateCylinderByEdgeDlg@@QAE@PAVCWnd@@@Z 00476ee0 f CreateCylinderByEdgeDlg.obj
 0001:00076067       ??1CCreateCylinderByEdgeDlg@@UAE@XZ 00477067 f CreateCylinderByEdgeDlg.obj
 0001:000761e4       ?DoDataExchange@CCreateCylinderByEdgeDlg@@MAEXPAVCDataExchange@@@Z 004771e4 f CreateCylinderByEdgeDlg.obj
 0001:00076273       ?_GetBaseMessageMap@CCreateCylinderByEdgeDlg@@KGPBUAFX_MSGMAP@@XZ 00477273 f CreateCylinderByEdgeDlg.obj
 0001:00076288       ?GetMessageMap@CCreateCylinderByEdgeDlg@@MBEPBUAFX_MSGMAP@@XZ 00477288 f CreateCylinderByEdgeDlg.obj
 0001:000762a3       ?OnBack@CCreateCylinderByEdgeDlg@@IAEXXZ 004772a3 f CreateCylinderByEdgeDlg.obj
 0001:000762b9       ?OnNext@CCreateCylinderByEdgeDlg@@IAEXXZ 004772b9 f CreateCylinderByEdgeDlg.obj
 0001:0007630c       ?OnOK@CCreateCylinderByEdgeDlg@@MAEXXZ 0047730c f CreateCylinderByEdgeDlg.obj
 0001:0007709b       ?OnCancel@CCreateCylinderByEdgeDlg@@MAEXXZ 0047809b f CreateCylinderByEdgeDlg.obj
 0001:000770cb       ?OnInitDialog@CCreateCylinderByEdgeDlg@@MAEHXZ 004780cb f CreateCylinderByEdgeDlg.obj
 0001:0007717a       ?UpdateLabel@CCreateCylinderByEdgeDlg@@QAEXPAD@Z 0047817a f CreateCylinderByEdgeDlg.obj
 0001:000771fe       ?processEdge@CCreateCylinderByEdgeDlg@@QAEXXZ 004781fe f CreateCylinderByEdgeDlg.obj
 0001:00077280       ?processDirPoint@CCreateCylinderByEdgeDlg@@QAEXXZ 00478280 f CreateCylinderByEdgeDlg.obj
 0001:00077383       ?processEndPoint@CCreateCylinderByEdgeDlg@@QAEHXZ 00478383 f CreateCylinderByEdgeDlg.obj
 0001:00077461       ?PrintMakeCylData@@YAXHPAHPAPAPAPANPAPAPAN222@Z 00478461 f CreateCylinderByEdgeDlg.obj
 0001:000776d1       ?OnClose@CCreateCylinderByEdgeDlg@@IAEXXZ 004786d1 f CreateCylinderByEdgeDlg.obj
 0001:0007773a       ?OnDestroy@CCreateCylinderByEdgeDlg@@IAEXXZ 0047873a f CreateCylinderByEdgeDlg.obj
 0001:000777a3       ?UpdateButtons@CCreateCylinderByEdgeDlg@@QAEXXZ 004787a3 f CreateCylinderByEdgeDlg.obj
 0001:00077920       ??_ECCreateCylinderByEdgeDlg@@UAEPAXI@Z 00478920 f CreateCylinderByEdgeDlg.obj
 0001:00077920       ??_GCCreateCylinderByEdgeDlg@@UAEPAXI@Z 00478920 f CreateCylinderByEdgeDlg.obj
 0001:00077960       ?getImageName@Point_2D@@QAEPBDXZ 00478960 f CreateCylinderByEdgeDlg.obj
 0001:00077980       ?getPoint@Point_2D@@QAEPANXZ 00478980 f CreateCylinderByEdgeDlg.obj
 0001:000779a0       ?IsInUse@equipObj@@QAEHXZ  004789a0 f rvqConnect.obj
 0001:00077a80       ?_GetBaseClass@CMainFrame@@KGPAUCRuntimeClass@@XZ 00478a80 f mainfrm.obj
 0001:00077a95       ?GetRuntimeClass@CMainFrame@@UBEPAUCRuntimeClass@@XZ 00478a95 f mainfrm.obj
 0001:00077ab0       ?_GetBaseMessageMap@CMainFrame@@KGPBUAFX_MSGMAP@@XZ 00478ab0 f mainfrm.obj
 0001:00077ac5       ?GetMessageMap@CMainFrame@@MBEPBUAFX_MSGMAP@@XZ 00478ac5 f mainfrm.obj
 0001:00077ae0       ?InitWorld@@YAXPAX@Z       00478ae0 f mainfrm.obj
 0001:00077afa       ?checkModelLocation@@YAHPAVPtg3DNode@@@Z 00478afa f mainfrm.obj
 0001:00077b85       ?DataTableToGridRowData@@YAHAAVCDTData@@AAUGridRowData@@@Z 00478b85 f mainfrm.obj
 0001:00077ceb       ?GridRowDataToDataTable@@YAHAAUGridRowData@@AAVCDTData@@@Z 00478ceb f mainfrm.obj
 0001:00077e8d       ??0CMainFrame@@QAE@XZ      00478e8d f mainfrm.obj
 0001:000780bf       ??1CMainFrame@@UAE@XZ      004790bf f mainfrm.obj
 0001:0007824b       ?OnCreate@CMainFrame@@IAEHPAUtagCREATESTRUCTA@@@Z 0047924b f mainfrm.obj
 0001:000787d7       ?DockControlBarLeftOf@CMainFrame@@QAEXPAVCToolBar@@0@Z 004797d7 f mainfrm.obj
 0001:000788bb       ?CreateOrActivateFrame@CMainFrame@@QAEXPAVCDocTemplate@@PAUCRuntimeClass@@@Z 004798bb f mainfrm.obj
 0001:00078bab       ?AssertValid@CMainFrame@@UBEXXZ 00479bab f mainfrm.obj
 0001:00078bc1       ?Dump@CMainFrame@@UBEXAAVCDumpContext@@@Z 00479bc1 f mainfrm.obj
 0001:00078be5       ?OnPaletteChanged@CMainFrame@@IAEXPAVCWnd@@@Z 00479be5 f mainfrm.obj
 0001:00078c25       ?OnQueryNewPalette@CMainFrame@@IAEHXZ 00479c25 f mainfrm.obj
 0001:00078c94       ?OnViewToolbar@CMainFrame@@IAEXXZ 00479c94 f mainfrm.obj
 0001:00078caa       ?OnViewGraphic@CMainFrame@@IAEXXZ 00479caa f mainfrm.obj
 0001:00078e35       ?OnSetCursor@CMainFrame@@IAEHPAVCWnd@@II@Z 00479e35 f mainfrm.obj
 0001:00078e89       ?OnMeasure@CMainFrame@@IAEXXZ 00479e89 f mainfrm.obj
 0001:0007934d       ?OnUpdateViews@CMainFrame@@IAEXPAVCCmdUI@@@Z 0047a34d f mainfrm.obj
 0001:0007945a       ?OnGridMouseMove@CMainFrame@@IAEXIVCPoint@@@Z 0047a45a f mainfrm.obj
 0001:00079472       ?OnSize@CMainFrame@@IAEXIHH@Z 0047a472 f mainfrm.obj
 0001:0007949e       ?OnSettingsOptions@CMainFrame@@IAEXXZ 0047a49e f mainfrm.obj
 0001:0007950a       ?UpdateUnits@CMainFrame@@QAEXPAUGridRowData@@@Z 0047a50a f mainfrm.obj
 0001:00079726       ?OnEditZones@CMainFrame@@IAEXXZ 0047a726 f mainfrm.obj
 0001:00079755       ?OnEditColumns@CMainFrame@@IAEXXZ 0047a755 f mainfrm.obj
 0001:00079784       ?OnEditImages@CMainFrame@@IAEXXZ 0047a784 f mainfrm.obj
 0001:000797ff       ?OnEditTransformations@CMainFrame@@IAEXXZ 0047a7ff f mainfrm.obj
 0001:0007987a       ?OnLButtonUp@CMainFrame@@IAEXIVCPoint@@@Z 0047a87a f mainfrm.obj
 0001:000798b0       ?OnTimer@CMainFrame@@IAEXI@Z 0047a8b0 f mainfrm.obj
 0001:000798eb       ?OnAccelCopygrid@CMainFrame@@IAEXXZ 0047a8eb f mainfrm.obj
 0001:00079901       ?OnEditEquipdata@CMainFrame@@IAEXXZ 0047a901 f mainfrm.obj
 0001:000799a3       ?OnEditEquipimages@CMainFrame@@IAEXXZ 0047a9a3 f mainfrm.obj
 0001:00079a1e       ?RepaintMeasurements@CMainFrame@@QAEXXZ 0047aa1e f mainfrm.obj
 0001:00079bdf       ?OnFileProjects@CMainFrame@@IAEXXZ 0047abdf f mainfrm.obj
 0001:00079c5a       ?OnPaint@CMainFrame@@IAEXXZ 0047ac5a f mainfrm.obj
 0001:00079ce2       ?OnUpdateEditEquipdata@CMainFrame@@IAEXPAVCCmdUI@@@Z 0047ace2 f mainfrm.obj
 0001:00079d06       ?MyHandler@@YAHI@Z         0047ad06 f mainfrm.obj
 0001:00079d26       ?OnEraseBkgnd@CMainFrame@@IAEHPAVCDC@@@Z 0047ad26 f mainfrm.obj
 0001:00079d4f       ?OnRays@CMainFrame@@IAEXXZ 0047ad4f f mainfrm.obj
 0001:00079e11       ?OnOverlay@CMainFrame@@IAEXXZ 0047ae11 f mainfrm.obj
 0001:00079ed3       ?UpdateAllViews@CMainFrame@@QAEXXZ 0047aed3 f mainfrm.obj
 0001:0007a0a9       ?OnMeasureCylinderbyedge@CMainFrame@@IAEXXZ 0047b0a9 f mainfrm.obj
 0001:0007a17a       ?setSelectMode@CMainFrame@@QAEXH@Z 0047b17a f mainfrm.obj
 0001:0007a2ff       ?OnUpdateRays@CMainFrame@@IAEXPAVCCmdUI@@@Z 0047b2ff f mainfrm.obj
 0001:0007a346       ?OnUpdateOverlay@CMainFrame@@IAEXPAVCCmdUI@@@Z 0047b346 f mainfrm.obj
 0001:0007a38d       ?OnMouseMove@CMainFrame@@IAEXIVCPoint@@@Z 0047b38d f mainfrm.obj
 0001:0007a3b9       ?CreateClient@CMainFrame@@UAEHPAUtagCREATESTRUCTA@@PAVCMenu@@@Z 0047b3b9 f mainfrm.obj
 0001:0007a412       ?OnClose@CMainFrame@@IAEXXZ 0047b412 f mainfrm.obj
 0001:0007a430       ?OnKillCreateCylinder@CMainFrame@@IAEXXZ 0047b430 f mainfrm.obj
 0001:0007a491       ?OnMeasureCirclebyedge@CMainFrame@@IAEXXZ 0047b491 f mainfrm.obj
 0001:0007a55f       ?OnKillCreateCircle@CMainFrame@@IAEXXZ 0047b55f f mainfrm.obj
 0001:0007a5c0       ?OnMeasureCircleby3dpoint@CMainFrame@@IAEXXZ 0047b5c0 f mainfrm.obj
 0001:0007a68e       ?sizeTheSheets@CMainFrame@@QAEXXZ 0047b68e f mainfrm.obj
 0001:0007a771       ?createTheSheets@CMainFrame@@QAEXXZ 0047b771 f mainfrm.obj
 0001:0007a787       ?OnSheetTab@CMainFrame@@IAEXXZ 0047b787 f mainfrm.obj
 0001:0007a7ae       ?OnChildNotify@CMainFrame@@UAEHIIJPAJ@Z 0047b7ae f mainfrm.obj
 0001:0007a832       ?OnViewElementlist@CMainFrame@@IAEXXZ 0047b832 f mainfrm.obj
 0001:0007a9bd       ?OnCurrentElementChange@CMainFrame@@IAEJIJ@Z 0047b9bd f mainfrm.obj
 0001:0007ab8f       ?OnUnitsChange@CMainFrame@@IAEJIJ@Z 0047bb8f f mainfrm.obj
 0001:0007ad21       ?OnNew3DElement@CMainFrame@@IAEJIJ@Z 0047bd21 f mainfrm.obj
 0001:0007afd7       ?OnNewTreeNode@CMainFrame@@IAEJIJ@Z 0047bfd7 f mainfrm.obj
 0001:0007b00a       ?OnEditBundlecalculations@CMainFrame@@IAEXXZ 0047c00a f mainfrm.obj
 0001:0007b085       ?_GetBaseEventSinkMap@CMainFrame@@KGPBUAFX_EVENTSINKMAP@@XZ 0047c085 f mainfrm.obj
 0001:0007b09a       ?GetEventSinkMap@CMainFrame@@MBEPBUAFX_EVENTSINKMAP@@XZ 0047c09a f mainfrm.obj
 0001:0007b0b5       ?OnLfClick3dpointgrid@CMainFrame@@IAEXFJJJPAJ@Z 0047c0b5 f mainfrm.obj
 0001:0007b3d3       ?OnEditCopy@CMainFrame@@IAEXXZ 0047c3d3 f mainfrm.obj
 0001:0007b402       ?OnEditPaste@CMainFrame@@IAEXXZ 0047c402 f mainfrm.obj
 0001:0007b431       ?OnEditCut@CMainFrame@@IAEXXZ 0047c431 f mainfrm.obj
 0001:0007b460       ?OnFileImportSurveyData@CMainFrame@@IAEXXZ 0047c460 f mainfrm.obj
 0001:0007b573       ?OnFileImportReviewModel@CMainFrame@@IAEXXZ 0047c573 f mainfrm.obj
 0001:0007b99b       ?OnMeasureQuickCylinder@CMainFrame@@IAEXXZ 0047c99b f mainfrm.obj
 0001:0007ba69       ?OnMeasureCylinderbyEndpoints@CMainFrame@@IAEXXZ 0047ca69 f mainfrm.obj
 0001:0007bb37       ?OnFileSaveWork@CMainFrame@@IAEXXZ 0047cb37 f mainfrm.obj
 0001:0007bdc7       ?OnFileGetWork@CMainFrame@@IAEXXZ 0047cdc7 f mainfrm.obj
 0001:0007bf9b       ?saveDBToNode@@YAHPAVClassesObj@@PAVPtg3DNode@@@Z 0047cf9b f mainfrm.obj
 0001:0007cafe       ?saveNodeToDB@@YAHPAVPtg3DNode@@PAVClassesObj@@@Z 0047dafe f mainfrm.obj
 0001:0007d170       ??_ECMainFrame@@UAEPAXI@Z  0047e170 f mainfrm.obj
 0001:0007d170       ??_GCMainFrame@@UAEPAXI@Z  0047e170 f mainfrm.obj
 0001:0007d1b0       ??1CMDIFrameWnd@@UAE@XZ    0047e1b0 f mainfrm.obj
 0001:0007d210       ??1CProjectSettings@@UAE@XZ 0047e210 f mainfrm.obj
 0001:0007d320       ?getCurrentElem@CMainFrame@@QAEPAVPtg3DNode@@XZ 0047e320 f mainfrm.obj
 0001:0007d340       ?Select@AllElements@@QAE?AW4T_F@@H@Z 0047e340 f mainfrm.obj
 0001:0007d370       ?_GetBaseClass@CResultSheetDlg@@KGPAUCRuntimeClass@@XZ 0047e370 f resultsh.obj
 0001:0007d385       ?GetRuntimeClass@CResultSheetDlg@@UBEPAUCRuntimeClass@@XZ 0047e385 f resultsh.obj
 0001:0007d3a0       ??0CResultSheetDlg@@QAE@IPAVCWnd@@I@Z 0047e3a0 f resultsh.obj
 0001:0007d41d       ??0CResultSheetDlg@@QAE@PBDPAVCWnd@@I@Z 0047e41d f resultsh.obj
 0001:0007d49a       ??1CResultSheetDlg@@UAE@XZ 0047e49a f resultsh.obj
 0001:0007d502       ?_GetBaseMessageMap@CResultSheetDlg@@KGPBUAFX_MSGMAP@@XZ 0047e502 f resultsh.obj
 0001:0007d517       ?GetMessageMap@CResultSheetDlg@@MBEPBUAFX_MSGMAP@@XZ 0047e517 f resultsh.obj
 0001:0007d540       ??_GCResultSheetDlg@@UAEPAXI@Z 0047e540 f resultsh.obj
 0001:0007d540       ??_ECResultSheetDlg@@UAEPAXI@Z 0047e540 f resultsh.obj
 0001:0007d580       ?OpenImageByName@@YAHPAD@Z 0047e580 f img_help.obj
 0001:0007d6d8       ?ConvertPoint@@YAXPAU_Point3d@@0@Z 0047e6d8 f img_help.obj
 0001:0007d7c0       ??0Ptg3DBoxObj@@QAE@XZ     0047e7c0 f Ptg3DBoxObj.obj
 0001:0007d837       ?initVars@Ptg3DBoxObj@@AAEXXZ 0047e837 f Ptg3DBoxObj.obj
 0001:0007d882       ??1Ptg3DBoxObj@@UAE@XZ     0047e882 f Ptg3DBoxObj.obj
 0001:0007d8f0       ?getType@Ptg3DBoxObj@@UAEPBDXZ 0047e8f0 f Ptg3DBoxObj.obj
 0001:0007d910       ??_EPtg3DBoxObj@@UAEPAXI@Z 0047e910 f Ptg3DBoxObj.obj
 0001:0007d910       ??_GPtg3DBoxObj@@UAEPAXI@Z 0047e910 f Ptg3DBoxObj.obj
 0001:0007d950       ??0CLightAdjust@@QAE@PAVCWnd@@@Z 0047e950 f LightAdjust.obj
 0001:0007da89       ?DoDataExchange@CLightAdjust@@MAEXPAVCDataExchange@@@Z 0047ea89 f LightAdjust.obj
 0001:0007db7a       ?_GetBaseMessageMap@CLightAdjust@@KGPBUAFX_MSGMAP@@XZ 0047eb7a f LightAdjust.obj
 0001:0007db8f       ?GetMessageMap@CLightAdjust@@MBEPBUAFX_MSGMAP@@XZ 0047eb8f f LightAdjust.obj
 0001:0007dbaa       ?OnInitDialog@CLightAdjust@@MAEHXZ 0047ebaa f LightAdjust.obj
 0001:0007dce0       ?OnOK@CLightAdjust@@MAEXXZ 0047ece0 f LightAdjust.obj
 0001:0007dd87       ?OnCancel@CLightAdjust@@MAEXXZ 0047ed87 f LightAdjust.obj
 0001:0007dda5       ?OnHScroll@CLightAdjust@@IAEXIIPAVCScrollBar@@@Z 0047eda5 f LightAdjust.obj
 0001:0007dddf       ?OnVScroll@CLightAdjust@@IAEXIIPAVCScrollBar@@@Z 0047eddf f LightAdjust.obj
 0001:0007dff0       ??_GCLightAdjust@@UAEPAXI@Z 0047eff0 f LightAdjust.obj
 0001:0007dff0       ??_ECLightAdjust@@UAEPAXI@Z 0047eff0 f LightAdjust.obj
 0001:0007e030       ??0Ptg3DCylinderObj@@QAE@XZ 0047f030 f Ptg3DCylinderObj.obj
 0001:0007e0a7       ??1Ptg3DCylinderObj@@UAE@XZ 0047f0a7 f Ptg3DCylinderObj.obj
 0001:0007e10f       ?initVars@Ptg3DCylinderObj@@AAEXXZ 0047f10f f Ptg3DCylinderObj.obj
 0001:0007e150       ?getType@Ptg3DCylinderObj@@UAEPBDXZ 0047f150 f Ptg3DCylinderObj.obj
 0001:0007e170       ??_EPtg3DCylinderObj@@UAEPAXI@Z 0047f170 f Ptg3DCylinderObj.obj
 0001:0007e170       ??_GPtg3DCylinderObj@@UAEPAXI@Z 0047f170 f Ptg3DCylinderObj.obj
 0001:0007e1b0       ?CreateObject@EngineeringData@@SGPAVCObject@@XZ 0047f1b0 f engineer.obj
 0001:0007e23b       ?_GetBaseClass@EngineeringData@@KGPAUCRuntimeClass@@XZ 0047f23b f engineer.obj
 0001:0007e250       ?GetRuntimeClass@EngineeringData@@UBEPAUCRuntimeClass@@XZ 0047f250 f engineer.obj
 0001:0007e26b       ??0EngineeringData@@QAE@XZ 0047f26b f engineer.obj
 0001:0007e2e1       ??1EngineeringData@@UAE@XZ 0047f2e1 f engineer.obj
 0001:0007e349       ?DoDataExchange@EngineeringData@@MAEXPAVCDataExchange@@@Z 0047f349 f engineer.obj
 0001:0007e36d       ?_GetBaseMessageMap@EngineeringData@@KGPBUAFX_MSGMAP@@XZ 0047f36d f engineer.obj
 0001:0007e382       ?GetMessageMap@EngineeringData@@MBEPBUAFX_MSGMAP@@XZ 0047f382 f engineer.obj
 0001:0007e3a0       ??_EEngineeringData@@UAEPAXI@Z 0047f3a0 f engineer.obj
 0001:0007e3a0       ??_GEngineeringData@@UAEPAXI@Z 0047f3a0 f engineer.obj
 0001:0007e3e0       ??0CMyMdi@@QAE@XZ          0047f3e0 f mymdi.obj
 0001:0007e479       ??1CMyMdi@@UAE@XZ          0047f479 f mymdi.obj
 0001:0007e4fa       ?_GetBaseMessageMap@CMyMdi@@KGPBUAFX_MSGMAP@@XZ 0047f4fa f mymdi.obj
 0001:0007e50f       ?GetMessageMap@CMyMdi@@MBEPBUAFX_MSGMAP@@XZ 0047f50f f mymdi.obj
 0001:0007e52a       ?OnEraseBkgnd@CMyMdi@@IAEHPAVCDC@@@Z 0047f52a f mymdi.obj
 0001:0007e60a       ?GetSuperWndProcAddr@CMyMdi@@UAEPAP6GJPAUHWND__@@IIJ@ZXZ 0047f60a f mymdi.obj
 0001:0007e625       ?OnSize@CMyMdi@@IAEXIHH@Z  0047f625 f mymdi.obj
 0001:0007e6c0       ??_ECMyMdi@@UAEPAXI@Z      0047f6c0 f mymdi.obj
 0001:0007e6c0       ??_GCMyMdi@@UAEPAXI@Z      0047f6c0 f mymdi.obj
 0001:0007e700       ??0HierElem@@QAE@XZ        0047f700 f HierElem.obj
 0001:0007e77f       ??1HierElem@@UAE@XZ        0047f77f f HierElem.obj
 0001:0007e882       ?initVars@HierElem@@AAEXXZ 0047f882 f HierElem.obj
 0001:0007e8a2       ?addMember@HierElem@@QAEXPAV1@@Z 0047f8a2 f HierElem.obj
 0001:0007e8e0       ?getType@HierElem@@UAEPBDXZ 0047f8e0 f HierElem.obj
 0001:0007e900       ??_GHierElem@@UAEPAXI@Z    0047f900 f HierElem.obj
 0001:0007e900       ??_EHierElem@@UAEPAXI@Z    0047f900 f HierElem.obj
 0001:0007e940       ?setOwner@HierElem@@QAEXPAV1@@Z 0047f940 f HierElem.obj
 0001:0007e970       ??0?$CList@PAVHierElem@@PAV1@@@QAE@H@Z 0047f970 f HierElem.obj
 0001:0007ea50       ?RemoveTail@?$CList@PAVHierElem@@PAV1@@@QAEPAVHierElem@@XZ 0047fa50 f HierElem.obj
 0001:0007eb30       ?AddTail@?$CList@PAVHierElem@@PAV1@@@QAEPAU__POSITION@@PAVHierElem@@@Z 0047fb30 f HierElem.obj
 0001:0007ebb0       ??1?$CList@PAVHierElem@@PAV1@@@UAE@XZ 0047fbb0 f HierElem.obj
 0001:0007ec50       ?Serialize@?$CList@PAVHierElem@@PAV1@@@UAEXAAVCArchive@@@Z 0047fc50 f HierElem.obj
 0001:0007ed50       ?Dump@?$CList@PAVHierElem@@PAV1@@@UBEXAAVCDumpContext@@@Z 0047fd50 f HierElem.obj
 0001:0007ee00       ?AssertValid@?$CList@PAVHierElem@@PAV1@@@UBEXXZ 0047fe00 f HierElem.obj
 0001:0007eee0       ??_G?$CList@PAVHierElem@@PAV1@@@UAEPAXI@Z 0047fee0 f HierElem.obj
 0001:0007eee0       ??_E?$CList@PAVHierElem@@PAV1@@@UAEPAXI@Z 0047fee0 f HierElem.obj
 0001:0007ef20       ?NewNode@?$CList@PAVHierElem@@PAV1@@@IAEPAUCNode@1@PAU21@0@Z 0047ff20 f HierElem.obj
 0001:0007f040       ?SerializeElements@@YGXAAVCArchive@@PAPAVHierElem@@H@Z 00480040 f HierElem.obj
 0001:0007f0d0       ?DumpElements@@YGXAAVCDumpContext@@PBQAVHierElem@@H@Z 004800d0 f HierElem.obj
 0001:0007f120       ?ConstructElements@@YGXPAPAVHierElem@@H@Z 00480120 f HierElem.obj
 0001:0007f1c0       ?DDX_Length@@YGXPAVCDataExchange@@HN@Z 004801c0 f DDXFXNS.OBJ
 0001:0007f2e7       ?DDX_Text@@YGXPAVCDataExchange@@HPAD@Z 004802e7 f DDXFXNS.OBJ
 0001:0007f39c       ?DDX_Text@@YGXPAVCDataExchange@@HAAF@Z 0048039c f DDXFXNS.OBJ
 0001:0007f3f6       ?DDX_Zerofill@@YGXPAVCDataExchange@@HAAFH@Z 004803f6 f DDXFXNS.OBJ
 0001:0007f464       ?DDX_SeqFormat@@YGXPAVCDataExchange@@HAAN@Z 00480464 f DDXFXNS.OBJ
 0001:0007f514       ?DDV_InList@@YGXPAVCDataExchange@@HPBD@Z 00480514 f DDXFXNS.OBJ
 0001:0007f574       ?DDX_CBString@@YGXPAVCDataExchange@@HPAD@Z 00480574 f DDXFXNS.OBJ
 0001:0007f629       ?DDX_Check@@YGXPAVCDataExchange@@HAAF@Z 00480629 f DDXFXNS.OBJ
 0001:0007f683       ?DDX_Text@@YGXPAVCDataExchange@@HAAD@Z 00480683 f DDXFXNS.OBJ
 0001:0007f77d       ?DDX_Check@@YGXPAVCDataExchange@@HAAD@Z 0048077d f DDXFXNS.OBJ
 0001:0007f7d6       ?DDX_Radio@@YGXPAVCDataExchange@@HAAF@Z 004807d6 f DDXFXNS.OBJ
 0001:0007f830       ?DDX_CBString@@YGXPAVCDataExchange@@HD@Z 00480830 f DDXFXNS.OBJ
 0001:0007f8f4       ?DDX_BitCheck@@YGXPAVCDataExchange@@HAAFF@Z 004808f4 f DDXFXNS.OBJ
 0001:0007f9a0       ?drawSolid@Ptg3DPyramidObj@@MAEXXZ 004809a0 f Ptg3DPyramidObjOGL.obj
 0001:0007fe77       ?drawWireframe@Ptg3DPyramidObj@@MAEXXZ 00480e77 f Ptg3DPyramidObjOGL.obj
 0001:00080270       ?vectorLoadIdentity@@YAPANXZ 00481270 f Ptg3DNode.obj
 0001:00080368       ?vectorTMatrixTransposeRotation@@YAPANPAN@Z 00481368 f Ptg3DNode.obj
 0001:00080465       ?vectorTMatrixTransposeTranslation@@YAPANPAN@Z 00481465 f Ptg3DNode.obj
 0001:000805bc       ??0Ptg3DNode@@QAE@XZ       004815bc f Ptg3DNode.obj
 0001:0008064e       ??1Ptg3DNode@@UAE@XZ       0048164e f Ptg3DNode.obj
 0001:000806ec       ?initVars@Ptg3DNode@@AAEXXZ 004816ec f Ptg3DNode.obj
 0001:00080744       ?setColor@Ptg3DNode@@QAEXMMMM@Z 00481744 f Ptg3DNode.obj
 0001:00080780       ?getColor@Ptg3DNode@@QAEXQAM@Z 00481780 f Ptg3DNode.obj
 0001:00080838       ?setName@Ptg3DNode@@QAEXPBD@Z 00481838 f Ptg3DNode.obj
 0001:0008088b       ?findByID@Ptg3DNode@@QAEPAV1@HQAI@Z 0048188b f Ptg3DNode.obj
 0001:00080939       ?getDrawStyle@Ptg3DNode@@QAE?AW4DrawStyle@1@XZ 00481939 f Ptg3DNode.obj
 0001:00080996       ?findByName@Ptg3DNode@@QAEPAV1@PBDH@Z 00481996 f Ptg3DNode.obj
 0001:00080a9a       ?setMatrix@Ptg3DNode@@QAEXPAN@Z 00481a9a f Ptg3DNode.obj
 0001:00080ac1       ?getMatrix@Ptg3DNode@@QAEPANPAV1@@Z 00481ac1 f Ptg3DNode.obj
 0001:00080c3e       ?setDrawStyle@Ptg3DNode@@QAEXW4DrawStyle@1@H@Z 00481c3e f Ptg3DNode.obj
 0001:00080c60       ?getType@Ptg3DNode@@UAEPBDXZ 00481c60 f Ptg3DNode.obj
 0001:00080c80       ??_GPtg3DNode@@UAEPAXI@Z   00481c80 f Ptg3DNode.obj
 0001:00080c80       ??_EPtg3DNode@@UAEPAXI@Z   00481c80 f Ptg3DNode.obj
 0001:00080cc0       ?clearColor@Ptg3DNode@@QAEXXZ 00481cc0 f Ptg3DNode.obj
 0001:00080cf0       ??0CProjectSettings@@QAE@PAVCWnd@@@Z 00481cf0 f projects.obj
 0001:00080e89       ?DoDataExchange@CProjectSettings@@MAEXPAVCDataExchange@@@Z 00481e89 f projects.obj
 0001:00080f35       ?_GetBaseMessageMap@CProjectSettings@@KGPBUAFX_MSGMAP@@XZ 00481f35 f projects.obj
 0001:00080f4a       ?GetMessageMap@CProjectSettings@@MBEPBUAFX_MSGMAP@@XZ 00481f4a f projects.obj
 0001:00080f65       ?OnInitDialog@CProjectSettings@@MAEHXZ 00481f65 f projects.obj
 0001:00081384       ?OnRemove@CProjectSettings@@IAEXXZ 00482384 f projects.obj
 0001:000813a8       ?OnApply@CProjectSettings@@IAEXXZ 004823a8 f projects.obj
 0001:000817d7       ?OnOK@CProjectSettings@@MAEXXZ 004827d7 f projects.obj
 0001:000818f2       ?OnDblclkProjlist@CProjectSettings@@IAEXXZ 004828f2 f projects.obj
 0001:0008199e       ?OnSurveyXform@CProjectSettings@@IAEXXZ 0048299e f projects.obj
 0001:00081a40       ??_ECProjectSettings@@UAEPAXI@Z 00482a40 f projects.obj
 0001:00081a40       ??_GCProjectSettings@@UAEPAXI@Z 00482a40 f projects.obj
 0001:00081a80       ??_9@$BMM@AE               00482a80 f projects.obj
 0001:00081a90       ?CreateObject@Commisioning@@SGPAVCObject@@XZ 00482a90 f comision.obj
 0001:00081b1b       ?_GetBaseClass@Commisioning@@KGPAUCRuntimeClass@@XZ 00482b1b f comision.obj
 0001:00081b30       ?GetRuntimeClass@Commisioning@@UBEPAUCRuntimeClass@@XZ 00482b30 f comision.obj
 0001:00081b4b       ??0Commisioning@@QAE@XZ    00482b4b f comision.obj
 0001:00081bc1       ??1Commisioning@@UAE@XZ    00482bc1 f comision.obj
 0001:00081c29       ?DoDataExchange@Commisioning@@MAEXPAVCDataExchange@@@Z 00482c29 f comision.obj
 0001:00081c4d       ?_GetBaseMessageMap@Commisioning@@KGPBUAFX_MSGMAP@@XZ 00482c4d f comision.obj
 0001:00081c62       ?GetMessageMap@Commisioning@@MBEPBUAFX_MSGMAP@@XZ 00482c62 f comision.obj
 0001:00081c80       ??_GCommisioning@@UAEPAXI@Z 00482c80 f comision.obj
 0001:00081c80       ??_ECommisioning@@UAEPAXI@Z 00482c80 f comision.obj
 0001:00081cc0       ??0PtgWorld@@QAE@XZ        00482cc0 f PtgWorld.obj
 0001:00081dc2       ??1PtgWorld@@UAE@XZ        00482dc2 f PtgWorld.obj
 0001:00081e2a       ?InitWorld@PtgWorld@@QAEKPAX@Z 00482e2a f PtgWorld.obj
 0001:00081e9b       ?CreateSystem@PtgWorld@@QAEHPAVPtg3DNode@@@Z 00482e9b f PtgWorld.obj
 0001:00081ff6       ?CreateTargets@PtgWorld@@QAEHPAVPtg3DNode@@@Z 00482ff6 f PtgWorld.obj
 0001:000822f0       ?CreateReference@PtgWorld@@QAEHPAVPtg3DNode@@@Z 004832f0 f PtgWorld.obj
 0001:000824cf       ?CreateAxes@PtgWorld@@QAEHPAVPtg3DNode@@@Z 004834cf f PtgWorld.obj
 0001:00082807       ?CreateCameras@PtgWorld@@QAEHPAVPtg3DNode@@@Z 00483807 f PtgWorld.obj
 0001:00083011       ?CreateReview@PtgWorld@@QAEHPAVPtg3DNode@@@Z 00484011 f PtgWorld.obj
 0001:00083274       ?CreateModel@PtgWorld@@QAEHPAVPtg3DNode@@@Z 00484274 f PtgWorld.obj
 0001:00083384       ?CreateRays@PtgWorld@@QAEHPAVPtg3DNode@@@Z 00484384 f PtgWorld.obj
 0001:00083485       ?CreateCalculated@PtgWorld@@QAEHXZ 00484485 f PtgWorld.obj
 0001:00083586       ?FindTMatrix@PtgWorld@@QAEHPAD0PAN@Z 00484586 f PtgWorld.obj
 0001:0008377b       ?ConvertCameraMatrix@PtgWorld@@QAEPANQAN@Z 0048477b f PtgWorld.obj
 0001:0008395d       ?CreateColumns@PtgWorld@@QAEHXZ 0048495d f PtgWorld.obj
 0001:00083a49       ?CreateZones@PtgWorld@@QAEHXZ 00484a49 f PtgWorld.obj
 0001:00083b40       ?getType@PtgWorld@@UAEPBDXZ 00484b40 f PtgWorld.obj
 0001:00083b60       ??_GPtgWorld@@UAEPAXI@Z    00484b60 f PtgWorld.obj
 0001:00083b60       ??_EPtgWorld@@UAEPAXI@Z    00484b60 f PtgWorld.obj
 0001:00083ba0       ?drawWireframe@Ptg3DFacetObj@@MAEXXZ 00484ba0 f Ptg3DFacetObjOGL.obj
 0001:00083c8d       ?drawSolid@Ptg3DFacetObj@@MAEXXZ 00484c8d f Ptg3DFacetObjOGL.obj
 0001:00083e31       ?tessBegin@@YGXI@Z         00484e31 f Ptg3DFacetObjOGL.obj
 0001:00083e4d       ?tessEdgeFlag@@YGXE@Z      00484e4d f Ptg3DFacetObjOGL.obj
 0001:00083e5f       ?tessVertex@@YGXPAX@Z      00484e5f f Ptg3DFacetObjOGL.obj
 0001:00083ea0       ?tessEnd@@YGXXZ            00484ea0 f Ptg3DFacetObjOGL.obj
 0001:00083eb6       ?tessError@@YGXP6APAIXZ@Z  00484eb6 f Ptg3DFacetObjOGL.obj
 0001:00083f00       ?GetAt@?$CList@PAVPtg3DFacetVertexObj@@PAV1@@@QAEAAPAVPtg3DFacetVertexObj@@PAU__POSITION@@@Z 00484f00 f Ptg3DFacetObjOGL.obj
 0001:00083f60       ?matmat@@YAPANPAN0@Z       00484f60 f mathsubs.obj
 0001:000841d0       ?matinv@@YAPANPAN@Z        004851d0 f mathsubs.obj
 0001:000844e0       ?matinv@@YAPANPAPAPAN@Z    004854e0 f mathsubs.obj
 0001:00084626       ?decomp_matrix@@YAPANPAN0@Z 00485626 f mathsubs.obj
 0001:000849a5       ?get_matrix_scales@@YAPANPAN@Z 004859a5 f mathsubs.obj
 0001:000849ed       ?pythag@@YANNN@Z           004859ed f mathsubs.obj
 0001:00084b1d       ?getquad@@YAHPAN@Z         00485b1d f mathsubs.obj
 0001:00084ba4       ?getinitrot@@YAPANPAN0@Z   00485ba4 f mathsubs.obj
 0001:00084d21       ?getinittm@@YAPANHPAPAPAN0@Z 00485d21 f mathsubs.obj
 0001:00084f00       ?memcount@@YAJH@Z          00485f00 f mathsubs.obj
 0001:00084f38       ?myalloc@@YAPAXI@Z         00485f38 f mathsubs.obj
 0001:00084f7f       ?myfree@@YAXPAD@Z          00485f7f f mathsubs.obj
 0001:00084fdb       ?nrerror@@YAXPAD@Z         00485fdb f mathsubs.obj
 0001:00085055       ?clear_vector@@YAXPANHH@Z  00486055 f mathsubs.obj
 0001:0008509d       ?vector@@YAPANHH@Z         0048609d f mathsubs.obj
 0001:0008510d       ?print_vector@@YAPANPANHH@Z 0048610d f mathsubs.obj
 0001:00085179       ?print_matrix@@YAPAPAPANPAPAPANHHHH@Z 00486179 f mathsubs.obj
 0001:00085230       ?add_vector@@YAXPANHH0HH@Z 00486230 f mathsubs.obj
 0001:00085286       ?subtract_vector@@YAXPANHH0HH@Z 00486286 f mathsubs.obj
 0001:000852dc       ?copy_vector@@YAXPANHH0HH@Z 004862dc f mathsubs.obj
 0001:00085331       ?clone_vector@@YAPANPANHHHH@Z 00486331 f mathsubs.obj
 0001:0008537a       ?subvector@@YAPANPANHHH@Z  0048637a f mathsubs.obj
 0001:000853a4       ?free_vector@@YAXAAPANHH@Z 004863a4 f mathsubs.obj
 0001:000853e8       ?clear_matrix@@YAXPAPAPANHHHH@Z 004863e8 f mathsubs.obj
 0001:00085456       ?cross_vector@@YAPANPAN0@Z 00486456 f mathsubs.obj
 0001:000854db       ?dot_vector@@YANHPAN0@Z    004864db f mathsubs.obj
 0001:00085537       ?vector_length@@YANHPAN@Z  00486537 f mathsubs.obj
 0001:00085571       ?multvector@@YAXHPANN@Z    00486571 f mathsubs.obj
 0001:000855b9       ?unit_vector@@YAPANHPAN@Z  004865b9 f mathsubs.obj
 0001:00085616       ?mathdr@@YAPAUmat_hdr_st@@PAPAPAN@Z 00486616 f mathsubs.obj
 0001:00085629       ?get_matrix_nr@@YAHPAPAPAN@Z 00486629 f mathsubs.obj
 0001:00085658       ?get_matrix_rl@@YAHPAPAPAN@Z 00486658 f mathsubs.obj
 0001:00085680       ?get_matrix_rh@@YAHPAPAPAN@Z 00486680 f mathsubs.obj
 0001:000856a8       ?free_matrix_shell@@YAXAAPAPAPAN@Z 004866a8 f mathsubs.obj
 0001:0008570e       ?matrix_shell@@YAPAPAPANHHHH@Z 0048670e f mathsubs.obj
 0001:00085835       ?matrix@@YAPAPAPANHHHH@Z   00486835 f mathsubs.obj
 0001:00085906       ?add_matrix_rows@@YAHPAPAPANH@Z 00486906 f mathsubs.obj
 0001:00085a7f       ?add_matrix_shell_rows@@YAHPAPAPANH@Z 00486a7f f mathsubs.obj
 0001:00085be6       ?copy_matrix@@YAXPAPAPANHHHH0HHHH@Z 00486be6 f mathsubs.obj
 0001:00085ca5       ?clone_matrix@@YAPAPAPANPAPAPANHHHHHHHH@Z 00486ca5 f mathsubs.obj
 0001:00085d06       ?free_matrix@@YAXAAPAPAPANHHHH@Z 00486d06 f mathsubs.obj
 0001:00085dab       ?submatrix@@YAPAPAPANPAPAPANHHHHHH@Z 00486dab f mathsubs.obj
 0001:00085e34       ?free_submatrix@@YAXAAPAPAPANHHHH@Z 00486e34 f mathsubs.obj
 0001:00085e6a       ?normalize_matrix@@YAXPAN00@Z 00486e6a f mathsubs.obj
 0001:00085f3b       ?transpose@@YAPAPAPANPAPAPANHHHH@Z 00486f3b f mathsubs.obj
 0001:00085fd4       ?matrix_mult@@YAPAPAPANPAPAPANHHHH0HHHHHHHH@Z 00486fd4 f mathsubs.obj
 0001:000860e8       ?dot@@YANPANHH0HH@Z        004870e8 f mathsubs.obj
 0001:0008614c       ?matrix_vector@@YAPANPAPAPANHHHHPANHH@Z 0048714c f mathsubs.obj
 0001:000861ce       ?ludcmp@@YAXPAPANHPAHPAN@Z 004871ce f mathsubs.obj
 0001:000865c8       ?lubksb@@YAXPAPANHPAHPAN@Z 004875c8 f mathsubs.obj
 0001:0008673e       ?mprove@@YAXPAPAN0HPAHPAN2@Z 0048773e f mathsubs.obj
 0001:00086846       ?pivit@@YAXFPAPAN@Z        00487846 f mathsubs.obj
 0001:000869ed       ?solve@@YAPANPAPAPANPANH@Z 004879ed f mathsubs.obj
 0001:00086ab9       ?lsq@@YAPANPAPAPANPANHH@Z  00487ab9 f mathsubs.obj
 0001:00086bbd       ?svdcmp@@YAXPAPAPANHHPAN0@Z 00487bbd f mathsubs.obj
 0001:00087e8e       ?svbksb@@YAXPAPAPANPAN0HH11@Z 00488e8e f mathsubs.obj
 0001:00087fef       ?svdvar@@YAXPAPAPANHPAN0@Z 00488fef f mathsubs.obj
 0001:00088179       ?svdfit@@YAXPAPAPANPAN1H1H0011P6AXN0H@Z@Z 00489179 f mathsubs.obj
 0001:000883ea       ?covsrt@@YAXPAPAPANHQAHH@Z 004893ea f mathsubs.obj
 0001:000885ba       ?mrqcof@@YAXPAN00H0QAHHPAPAPAN00P6AX0000H@Z@Z 004895ba f mathsubs.obj
 0001:00088857       ?mrqmin@@YAXPAN00H0QAHHPAPAPAN20P6AXN000H@Z0@Z 00489857 f mathsubs.obj
 0001:00088cc4       ?BBlsq@@YAXPAPAPAN000PAN11HHHH11PAPAPAPANHH1@Z 00489cc4 f mathsubs.obj
 0001:00089765       ?choldc@@YAXPAPAPANHPAN@Z  0048a765 f mathsubs.obj
 0001:0008988e       ?choldcinv@@YAXPAPAPANH@Z  0048a88e f mathsubs.obj
 0001:00089ad7       ?pnt2film@@YAXNPAN000@Z    0048aad7 f mathsubs.obj
 0001:00089b96       ?pnt2film_error@@YAXNPAN0000@Z 0048ab96 f mathsubs.obj
 0001:00089c00       ?CreateObject@CDIB@@SGPAVCObject@@XZ 0048ac00 f DIB.OBJ
 0001:00089c88       ?_GetBaseClass@CDIB@@KGPAUCRuntimeClass@@XZ 0048ac88 f DIB.OBJ
 0001:00089c9d       ?GetRuntimeClass@CDIB@@UBEPAUCRuntimeClass@@XZ 0048ac9d f DIB.OBJ
 0001:00089cec       ??5@YGAAVCArchive@@AAV0@AAPAVCDIB@@@Z 0048acec f DIB.OBJ
 0001:00089d13       ??0CDIB@@QAE@XZ            0048ad13 f DIB.OBJ
 0001:00089dac       ??1CDIB@@UAE@XZ            0048adac f DIB.OBJ
 0001:00089e5b       ?Serialize@CDIB@@UAEXAAVCArchive@@@Z 0048ae5b f DIB.OBJ
 0001:00089e79       ?Create@CDIB@@QAEHHH@Z     0048ae79 f DIB.OBJ
 0001:0008a058       ?Create@CDIB@@QAEHPAUtagBITMAPINFO@@PAE@Z 0048b058 f DIB.OBJ
 0001:0008a2b8       ?Load@CDIB@@UAEHPAVCFile@@@Z 0048b2b8 f DIB.OBJ
 0001:0008a6dd       ?Load@CDIB@@UAEHPAD@Z      0048b6dd f DIB.OBJ
 0001:0008a8de       ?DrawZoom@CDIB@@UAEXPAVCDC@@HHHH@Z 0048b8de f DIB.OBJ
 0001:0008a974       ?Draw@CDIB@@UAEXPAVCDC@@HH@Z 0048b974 f DIB.OBJ
 0001:0008aa06       ?GetNumClrEntries@CDIB@@QAEHXZ 0048ba06 f DIB.OBJ
 0001:0008aa2b       ?MapColorsToPalette@CDIB@@UAEHPAVCPalette@@@Z 0048ba2b f DIB.OBJ
 0001:0008acb5       ?GetPixelAddress@CDIB@@QAEPAXHH@Z 0048bcb5 f DIB.OBJ
 0001:0008ad54       ?GetRect@CDIB@@UAEXPAVCRect@@@Z 0048bd54 f DIB.OBJ
 0001:0008ad9b       ?CopyBits@CDIB@@UAEXPAV1@HHHHHHK@Z 0048bd9b f DIB.OBJ
 0001:0008afa0       ?GetWidth@CDIB@@UAEHXZ     0048bfa0 f DIB.OBJ
 0001:0008afc0       ?GetHeight@CDIB@@UAEHXZ    0048bfc0 f DIB.OBJ
 0001:0008afe0       ?DibWidth@CDIB@@AAEHXZ     0048bfe0 f DIB.OBJ
 0001:0008b000       ?DibHeight@CDIB@@AAEHXZ    0048c000 f DIB.OBJ
 0001:0008b020       ??_GCDIB@@UAEPAXI@Z        0048c020 f DIB.OBJ
 0001:0008b020       ??_ECDIB@@UAEPAXI@Z        0048c020 f DIB.OBJ
 0001:0008b060       ?StorageWidth@CDIB@@AAEHXZ 0048c060 f DIB.OBJ
 0001:0008b086       _dt_lock@16                0048c086   rdmwin32:RDMWIN32.DLL
 0001:0008b08c       _dt_reclstat@16            0048c08c   rdmwin32:RDMWIN32.DLL
 0001:0008b092       _dt_reclock@16             0048c092   rdmwin32:RDMWIN32.DLL
 0001:0008b098       _dt_recfree@12             0048c098   rdmwin32:RDMWIN32.DLL
 0001:0008b09e       _dt_trbegin@8              0048c09e   rdmwin32:RDMWIN32.DLL
 0001:0008b0a4       _dt_trend@4                0048c0a4   rdmwin32:RDMWIN32.DLL
 0001:0008b0aa       _dt_trabort@4              0048c0aa   rdmwin32:RDMWIN32.DLL
 0001:0008b0b0       _dt_internals@24           0048c0b0   rdmwin32:RDMWIN32.DLL
 0001:0008b0b6       _dt_setfree@12             0048c0b6   rdmwin32:RDMWIN32.DLL
 0001:0008b0bc       _dt_setlstat@16            0048c0bc   rdmwin32:RDMWIN32.DLL
 0001:0008b0c2       _dt_setlock@16             0048c0c2   rdmwin32:RDMWIN32.DLL
 0001:0008b0c8       _dt_recwrite@12            0048c0c8   rdmwin32:RDMWIN32.DLL
 0001:0008b0ce       _dt_crget@12               0048c0ce   rdmwin32:RDMWIN32.DLL
 0001:0008b0d4       _dt_fillnew@16             0048c0d4   rdmwin32:RDMWIN32.DLL
 0001:0008b0da       _dt_dbdpath@8              0048c0da   rdmwin32:RDMWIN32.DLL
 0001:0008b0e0       _dt_dbfpath@8              0048c0e0   rdmwin32:RDMWIN32.DLL
 0001:0008b0e6       _dt_dblog@8                0048c0e6   rdmwin32:RDMWIN32.DLL
 0001:0008b0ec       _dt_dbtaf@8                0048c0ec   rdmwin32:RDMWIN32.DLL
 0001:0008b0f2       _dt_dbuserid@8             0048c0f2   rdmwin32:RDMWIN32.DLL
 0001:0008b0f8       _dt_checkid@8              0048c0f8   rdmwin32:RDMWIN32.DLL
 0001:0008b0fe       _dt_destroy@8              0048c0fe   rdmwin32:RDMWIN32.DLL
 0001:0008b104       _dt_freeall@4              0048c104   rdmwin32:RDMWIN32.DLL
 0001:0008b10a       _dt_lockcomm@8             0048c10a   rdmwin32:RDMWIN32.DLL
 0001:0008b110       _dt_lockmgr@8              0048c110   rdmwin32:RDMWIN32.DLL
 0001:0008b116       _dt_off_opt@8              0048c116   rdmwin32:RDMWIN32.DLL
 0001:0008b11c       _dt_on_opt@8               0048c11c   rdmwin32:RDMWIN32.DLL
 0001:0008b122       _dt_recover@8              0048c122   rdmwin32:RDMWIN32.DLL
 0001:0008b128       _dt_renfile@16             0048c128   rdmwin32:RDMWIN32.DLL
 0001:0008b12e       _dt_renclean@4             0048c12e   rdmwin32:RDMWIN32.DLL
 0001:0008b134       _dt_setpages@12            0048c134   rdmwin32:RDMWIN32.DLL
 0001:0008b13a       _dt_setfiles@8             0048c13a   rdmwin32:RDMWIN32.DLL
 0001:0008b140       _dt_set_dberr@8            0048c140   rdmwin32:RDMWIN32.DLL
 0001:0008b146       _dt_timeout@8              0048c146   rdmwin32:RDMWIN32.DLL
 0001:0008b14c       _dt_recstat@16             0048c14c   rdmwin32:RDMWIN32.DLL
 0001:0008b152       _dt_rlbclr@8               0048c152   rdmwin32:RDMWIN32.DLL
 0001:0008b158       _dt_rlbset@8               0048c158   rdmwin32:RDMWIN32.DLL
 0001:0008b15e       _dt_rlbtst@8               0048c15e   rdmwin32:RDMWIN32.DLL
 0001:0008b164       _dt_cmstat@12              0048c164   rdmwin32:RDMWIN32.DLL
 0001:0008b16a       _dt_cmtype@16              0048c16a   rdmwin32:RDMWIN32.DLL
 0001:0008b170       _dt_connect@12             0048c170   rdmwin32:RDMWIN32.DLL
 0001:0008b176       _dt_costat@12              0048c176   rdmwin32:RDMWIN32.DLL
 0001:0008b17c       _dt_cotype@16              0048c17c   rdmwin32:RDMWIN32.DLL
 0001:0008b182       _dt_crread@16              0048c182   rdmwin32:RDMWIN32.DLL
 0001:0008b188       _dt_crset@12               0048c188   rdmwin32:RDMWIN32.DLL
 0001:0008b18e       _dt_crstat@8               0048c18e   rdmwin32:RDMWIN32.DLL
 0001:0008b194       _dt_crtype@12              0048c194   rdmwin32:RDMWIN32.DLL
 0001:0008b19a       _dt_crwrite@16             0048c19a   rdmwin32:RDMWIN32.DLL
 0001:0008b1a0       _dt_csmget@16              0048c1a0   rdmwin32:RDMWIN32.DLL
 0001:0008b1a6       _dt_csmread@20             0048c1a6   rdmwin32:RDMWIN32.DLL
 0001:0008b1ac       _dt_csmset@16              0048c1ac   rdmwin32:RDMWIN32.DLL
 0001:0008b1b2       _dt_csmwrite@20            0048c1b2   rdmwin32:RDMWIN32.DLL
 0001:0008b1b8       _dt_csoget@16              0048c1b8   rdmwin32:RDMWIN32.DLL
 0001:0008b1be       _dt_csoread@20             0048c1be   rdmwin32:RDMWIN32.DLL
 0001:0008b1c4       _dt_csoset@16              0048c1c4   rdmwin32:RDMWIN32.DLL
 0001:0008b1ca       _dt_csowrite@20            0048c1ca   rdmwin32:RDMWIN32.DLL
 0001:0008b1d0       _dt_csstat@12              0048c1d0   rdmwin32:RDMWIN32.DLL
 0001:0008b1d6       _dt_ctbpath@8              0048c1d6   rdmwin32:RDMWIN32.DLL
 0001:0008b1dc       _dt_ctscm@16               0048c1dc   rdmwin32:RDMWIN32.DLL
 0001:0008b1e2       _dt_ctsco@16               0048c1e2   rdmwin32:RDMWIN32.DLL
 0001:0008b1e8       _dt_ctscr@12               0048c1e8   rdmwin32:RDMWIN32.DLL
 0001:0008b1ee       _dt_curkey@8               0048c1ee   rdmwin32:RDMWIN32.DLL
 0001:0008b1f4       _dt_delete@8               0048c1f4   rdmwin32:RDMWIN32.DLL
 0001:0008b1fa       _dt_disdel@8               0048c1fa   rdmwin32:RDMWIN32.DLL
 0001:0008b200       _dt_recnext@8              0048c200   rdmwin32:RDMWIN32.DLL
 0001:0008b206       _dt_recprev@8              0048c206   rdmwin32:RDMWIN32.DLL
 0001:0008b20c       _dt_discon@12              0048c20c   rdmwin32:RDMWIN32.DLL
 0001:0008b212       _dt_findco@12              0048c212   rdmwin32:RDMWIN32.DLL
 0001:0008b218       _dt_findfm@12              0048c218   rdmwin32:RDMWIN32.DLL
 0001:0008b21e       _dt_findlm@12              0048c21e   rdmwin32:RDMWIN32.DLL
 0001:0008b224       _dt_findnm@12              0048c224   rdmwin32:RDMWIN32.DLL
 0001:0008b22a       _dt_findpm@12              0048c22a   rdmwin32:RDMWIN32.DLL
 0001:0008b230       _dt_gtscm@16               0048c230   rdmwin32:RDMWIN32.DLL
 0001:0008b236       _dt_gtsco@16               0048c236   rdmwin32:RDMWIN32.DLL
 0001:0008b23c       _dt_gtscr@12               0048c23c   rdmwin32:RDMWIN32.DLL
 0001:0008b242       _dt_gtscs@16               0048c242   rdmwin32:RDMWIN32.DLL
 0001:0008b248       _dt_initialize@8           0048c248   rdmwin32:RDMWIN32.DLL
 0001:0008b24e       _dt_initfile@12            0048c24e   rdmwin32:RDMWIN32.DLL
 0001:0008b254       _dt_ismember@12            0048c254   rdmwin32:RDMWIN32.DLL
 0001:0008b25a       _dt_isowner@12             0048c25a   rdmwin32:RDMWIN32.DLL
 0001:0008b260       _dt_keybuild@8             0048c260   rdmwin32:RDMWIN32.DLL
 0001:0008b266       _dt_keydel@12              0048c266   rdmwin32:RDMWIN32.DLL
 0001:0008b26c       _dt_keyexist@12            0048c26c   rdmwin32:RDMWIN32.DLL
 0001:0008b272       _dt_keyfind@16             0048c272   rdmwin32:RDMWIN32.DLL
 0001:0008b278       _dt_keyfree@12             0048c278   rdmwin32:RDMWIN32.DLL
 0001:0008b27e       _dt_keyfrst@12             0048c27e   rdmwin32:RDMWIN32.DLL
 0001:0008b284       _dt_keylast@12             0048c284   rdmwin32:RDMWIN32.DLL
 0001:0008b28a       _dt_keylock@16             0048c28a   rdmwin32:RDMWIN32.DLL
 0001:0008b290       _dt_keylstat@16            0048c290   rdmwin32:RDMWIN32.DLL
 0001:0008b296       _dt_keynext@12             0048c296   rdmwin32:RDMWIN32.DLL
 0001:0008b29c       _dt_keyprev@12             0048c29c   rdmwin32:RDMWIN32.DLL
 0001:0008b2a2       _dt_keyread@8              0048c2a2   rdmwin32:RDMWIN32.DLL
 0001:0008b2a8       _dt_keystore@12            0048c2a8   rdmwin32:RDMWIN32.DLL
 0001:0008b2ae       _dt_makenew@12             0048c2ae   rdmwin32:RDMWIN32.DLL
 0001:0008b2b4       _dt_members@16             0048c2b4   rdmwin32:RDMWIN32.DLL
 0001:0008b2ba       _dt_recfrst@12             0048c2ba   rdmwin32:RDMWIN32.DLL
 0001:0008b2c0       _dt_reclast@12             0048c2c0   rdmwin32:RDMWIN32.DLL
 0001:0008b2c6       _dt_recread@12             0048c2c6   rdmwin32:RDMWIN32.DLL
 0001:0008b2cc       _dt_recset@12              0048c2cc   rdmwin32:RDMWIN32.DLL
 0001:0008b2d2       _dt_setkey@16              0048c2d2   rdmwin32:RDMWIN32.DLL
 0001:0008b2d8       _dt_setmm@16               0048c2d8   rdmwin32:RDMWIN32.DLL
 0001:0008b2de       _dt_setmo@16               0048c2de   rdmwin32:RDMWIN32.DLL
 0001:0008b2e4       _dt_setmr@12               0048c2e4   rdmwin32:RDMWIN32.DLL
 0001:0008b2ea       _dt_setom@16               0048c2ea   rdmwin32:RDMWIN32.DLL
 0001:0008b2f0       _dt_setoo@16               0048c2f0   rdmwin32:RDMWIN32.DLL
 0001:0008b2f6       _dt_setor@12               0048c2f6   rdmwin32:RDMWIN32.DLL
 0001:0008b2fc       _dt_setrm@12               0048c2fc   rdmwin32:RDMWIN32.DLL
 0001:0008b302       _dt_setro@12               0048c302   rdmwin32:RDMWIN32.DLL
 0001:0008b308       _dt_stscm@16               0048c308   rdmwin32:RDMWIN32.DLL
 0001:0008b30e       _dt_stsco@16               0048c30e   rdmwin32:RDMWIN32.DLL
 0001:0008b314       _dt_stscr@12               0048c314   rdmwin32:RDMWIN32.DLL
 0001:0008b31a       _dt_stscs@16               0048c31a   rdmwin32:RDMWIN32.DLL
 0001:0008b320       _dt_utscm@16               0048c320   rdmwin32:RDMWIN32.DLL
 0001:0008b326       _dt_utsco@16               0048c326   rdmwin32:RDMWIN32.DLL
 0001:0008b32c       _dt_utscr@12               0048c32c   rdmwin32:RDMWIN32.DLL
 0001:0008b332       _dt_utscs@16               0048c332   rdmwin32:RDMWIN32.DLL
 0001:0008b338       _dt_closetask@4            0048c338   rdmwin32:RDMWIN32.DLL
 0001:0008b33e       _dt_open@12                0048c33e   rdmwin32:RDMWIN32.DLL
 0001:0008b344       _dt_opentask@4             0048c344   rdmwin32:RDMWIN32.DLL
 0001:0008b34a       _dt_close@4                0048c34a   rdmwin32:RDMWIN32.DLL
 0001:0008b350       _dt_wrcurr@20              0048c350   rdmwin32:RDMWIN32.DLL
 0001:0008b356       _dt_rdcurr@16              0048c356   rdmwin32:RDMWIN32.DLL
 0001:0008b35c       ?Read@VistaObj@@UAEXXZ     0048c35c   omrdmimp:OMRDM.dll
 0001:0008b362       ?SetDefaultValues@VistaObj@@UAEXXZ 0048c362   omrdmimp:OMRDM.dll
 0001:0008b368       ?TotalSize@VistaObj@@UAEJXZ 0048c368   omrdmimp:OMRDM.dll
 0001:0008b36e       ?RecData@VistaObj@@UAEPAXXZ 0048c36e   omrdmimp:OMRDM.dll
 0001:0008b374       ?RecType@VistaObj@@UAEHXZ  0048c374   omrdmimp:OMRDM.dll
 0001:0008b37a       ?_GetDb@VistaObj@@UAEPAVVistaDb@@XZ 0048c37a   omrdmimp:OMRDM.dll
 0001:0008b380       ??1RDXTask@@QAE@XZ         0048c380   omrdmimp:OMRDM.dll
 0001:0008b386       ?MakeCurrent@VistaTask@@UAEXXZ 0048c386   omrdmimp:OMRDM.dll
 0001:0008b38c       ??1VistaTask@@QAE@XZ       0048c38c   omrdmimp:OMRDM.dll
 0001:0008b392       ??1RDXDb@@UAE@XZ           0048c392   omrdmimp:OMRDM.dll
 0001:0008b398       ??1VistaDb@@UAE@XZ         0048c398   omrdmimp:OMRDM.dll
 0001:0008b39e       ??0VistaTask@@QAE@PAD@Z    0048c39e   omrdmimp:OMRDM.dll
 0001:0008b3a4       ??0VistaTask@@QAE@PADAAVActivateTask@@@Z 0048c3a4   omrdmimp:OMRDM.dll
 0001:0008b3aa       ?Find@StoreObj@@QAEAAV1@AAVKeyObj@@@Z 0048c3aa   omrdmimp:OMRDM.dll
 0001:0008b3b0       ?GotoDirect@StoreObj@@QAEAAV1@AAVDbAddr@@@Z 0048c3b0   omrdmimp:OMRDM.dll
 0001:0008b3b6       ?Goto@StoreObj@@QAEAAV1@W4NavCtrl@@@Z 0048c3b6   omrdmimp:OMRDM.dll
 0001:0008b3bc       ?Goto@StoreObj@@QAEAAV1@AAVKeyObj@@W4NavCtrl@@@Z 0048c3bc   omrdmimp:OMRDM.dll
 0001:0008b3c2       ?Lock@StoreObj@@QAE?AW4T_F@@PAD@Z 0048c3c2   omrdmimp:OMRDM.dll
 0001:0008b3c8       ??0StoreObj@@IAE@PAVVistaDb@@@Z 0048c3c8   omrdmimp:OMRDM.dll
 0001:0008b3ce       ??1StoreObj@@UAE@XZ        0048c3ce   omrdmimp:OMRDM.dll
 0001:0008b3d4       ?Clone@StoreObj@@UAEPAV1@XZ 0048c3d4   omrdmimp:OMRDM.dll
 0001:0008b3da       ?Read@Polymorph@@MAEXXZ    0048c3da   omrdmimp:OMRDM.dll
 0001:0008b3e0       ?RecData@StoreObj@@MAEPAXXZ 0048c3e0   omrdmimp:OMRDM.dll
 0001:0008b3e6       ?Delete@StoreObj@@UAEXXZ   0048c3e6   omrdmimp:OMRDM.dll
 0001:0008b3ec       ?Write@StoreObj@@UAEXXZ    0048c3ec   omrdmimp:OMRDM.dll
 0001:0008b3f2       ?NewObj@StoreObj@@UAEXXZ   0048c3f2   omrdmimp:OMRDM.dll
 0001:0008b3f8       ??0StoreObj@@QAE@AAV0@@Z   0048c3f8   omrdmimp:OMRDM.dll
 0001:0008b3fe       ??4StoreObj@@QAEAAV0@AAV0@@Z 0048c3fe   omrdmimp:OMRDM.dll
 0001:0008b404       ??1Polymorph@@UAE@XZ       0048c404   omrdmimp:OMRDM.dll
 0001:0008b40a       ??0StoreDb@@IAE@PADPAPAV0@@Z 0048c40a   omrdmimp:OMRDM.dll
 0001:0008b410       ?Open@VistaDb@@QAE?AW4T_F@@XZ 0048c410   omrdmimp:OMRDM.dll
 0001:0008b416       ?Read@StoreObj@@MAEXXZ     0048c416   omrdmimp:OMRDM.dll
 0001:0008b41c       ??AStoreObj@@QAEAAV0@W4NavCtrl@@@Z 0048c41c   omrdmimp:OMRDM.dll
 0001:0008b422       ??EStoreObj@@QAEAAV0@XZ    0048c422   omrdmimp:OMRDM.dll
 0001:0008b428       ??FStoreObj@@QAEAAV0@XZ    0048c428   omrdmimp:OMRDM.dll
 0001:0008b42e       ?FromOwner@StoreObj@@QAEAAV1@PAV1@H@Z 0048c42e   omrdmimp:OMRDM.dll
 0001:0008b434       ?MemCount@StoreObj@@IAEJAAV1@H@Z 0048c434   omrdmimp:OMRDM.dll
 0001:0008b43a       ??0StoreObj@@IAE@AAVSetObj@@PAVVistaDb@@@Z 0048c43a   omrdmimp:OMRDM.dll
 0001:0008b440       ??0StoreObj@@IAE@AAVKeyObj@@PAVVistaDb@@@Z 0048c440   omrdmimp:OMRDM.dll
 0001:0008b446       ?ConnectTo@StoreObj@@QAE?AW4T_F@@AAV1@H@Z 0048c446   omrdmimp:OMRDM.dll
 0001:0008b44c       ?GotoMember@StoreObj@@QAEAAV1@AAV1@HW4NavCtrl@@@Z 0048c44c   omrdmimp:OMRDM.dll
 0001:0008b452       ?DisConFrom@StoreObj@@QAE?AW4T_F@@AAV1@H@Z 0048c452   omrdmimp:OMRDM.dll
 0001:0008b458       ?FromMember@StoreObj@@QAEAAV1@PAV1@H@Z 0048c458   omrdmimp:OMRDM.dll
 0001:0008b45e       ??0StoreDb@@IAE@PAPAV0@@Z  0048c45e   omrdmimp:OMRDM.dll
 0001:0008b464       ??0TransAction@@QAE@PAVVistaTask@@@Z 0048c464   omrdmimp:OMRDM.dll
 0001:0008b46a       ??1TransAction@@QAE@XZ     0048c46a   omrdmimp:OMRDM.dll
 0001:0008b470       ?End@TransAction@@QAEXXZ   0048c470   omrdmimp:OMRDM.dll
 0001:0008b476       ?Begin@TransAction@@QAEHQAD@Z 0048c476   omrdmimp:OMRDM.dll
 0001:0008b47c       ?SetPaths@RDXTask@@QAEXPAD0000@Z 0048c47c   omrdmimp:OMRDM.dll
 0001:0008b482       ?FreeLock@StoreObj@@QAE?AW4T_F@@XZ 0048c482   omrdmimp:OMRDM.dll
 0001:0008b488       ?SetName@StoreDb@@QAEXPAD@Z 0048c488   omrdmimp:OMRDM.dll
 0001:0008b48e       ?Close@VistaDb@@QAE?AW4T_F@@XZ 0048c48e   omrdmimp:OMRDM.dll
 0001:0008b494       ?Register@Polymorph@@QAE?AW4T_F@@AAVStoreObj@@@Z 0048c494   omrdmimp:OMRDM.dll
 0001:0008b49a       ??0Polymorph@@IAE@HHPAVVistaDb@@@Z 0048c49a   omrdmimp:OMRDM.dll
 0001:0008b4a0       ?IsMember@StoreObj@@QAE?AW4T_F@@H@Z 0048c4a0   omrdmimp:OMRDM.dll
 0001:0008b4a6       ?IsOwner@StoreObj@@QAE?AW4T_F@@H@Z 0048c4a6   omrdmimp:OMRDM.dll
 0001:0008b4ac       ?Abort@TransAction@@QAEXXZ 0048c4ac   omrdmimp:OMRDM.dll
 0001:0008b4b2       ?Select@Polymorph@@IAE?AW4T_F@@H@Z 0048c4b2   omrdmimp:OMRDM.dll
 0001:0008b4b8       _gluErrorString@4          0048c4b8 f glu32:GLU32.dll
 0001:0008b4be       _gluDeleteNurbsRenderer@4  0048c4be f glu32:GLU32.dll
 0001:0008b4c4       _gluEndSurface@4           0048c4c4 f glu32:GLU32.dll
 0001:0008b4ca       _gluNurbsSurface@44        0048c4ca f glu32:GLU32.dll
 0001:0008b4d0       _gluBeginSurface@4         0048c4d0 f glu32:GLU32.dll
 0001:0008b4d6       _gluNurbsProperty@12       0048c4d6 f glu32:GLU32.dll
 0001:0008b4dc       _gluNurbsCallback@12       0048c4dc f glu32:GLU32.dll
 0001:0008b4e2       _gluNewNurbsRenderer@0     0048c4e2 f glu32:GLU32.dll
 0001:0008b4e8       _gluPerspective@32         0048c4e8 f glu32:GLU32.dll
 0001:0008b4ee       _gluDeleteQuadric@4        0048c4ee f glu32:GLU32.dll
 0001:0008b4f4       _gluCylinder@36            0048c4f4 f glu32:GLU32.dll
 0001:0008b4fa       _gluQuadricDrawStyle@8     0048c4fa f glu32:GLU32.dll
 0001:0008b500       _gluNewQuadric@0           0048c500 f glu32:GLU32.dll
 0001:0008b506       _gluDisk@28                0048c506 f glu32:GLU32.dll
 0001:0008b50c       _gluOrtho2D@32             0048c50c f glu32:GLU32.dll
 0001:0008b512       _gluPickMatrix@36          0048c512 f glu32:GLU32.dll
 0001:0008b518       _gluDeleteTess@4           0048c518 f glu32:GLU32.dll
 0001:0008b51e       _gluEndPolygon@4           0048c51e f glu32:GLU32.dll
 0001:0008b524       _gluTessVertex@12          0048c524 f glu32:GLU32.dll
 0001:0008b52a       _gluBeginPolygon@4         0048c52a f glu32:GLU32.dll
 0001:0008b530       _gluTessCallback@12        0048c530 f glu32:GLU32.dll
 0001:0008b536       _gluNewTess@0              0048c536 f glu32:GLU32.dll
 0001:0008b53c       _glEnd@0                   0048c53c f opengl32:OPENGL32.dll
 0001:0008b542       _glVertex3d@24             0048c542 f opengl32:OPENGL32.dll
 0001:0008b548       _glBegin@4                 0048c548 f opengl32:OPENGL32.dll
 0001:0008b54e       _glPointSize@4             0048c54e f opengl32:OPENGL32.dll
 0001:0008b554       _glEnable@4                0048c554 f opengl32:OPENGL32.dll
 0001:0008b55a       _glTranslated@24           0048c55a f opengl32:OPENGL32.dll
 0001:0008b560       _glRotated@32              0048c560 f opengl32:OPENGL32.dll
 0001:0008b566       _glMatrixMode@4            0048c566 f opengl32:OPENGL32.dll
 0001:0008b56c       _glOrtho@48                0048c56c f opengl32:OPENGL32.dll
 0001:0008b572       _glMultMatrixd@4           0048c572 f opengl32:OPENGL32.dll
 0001:0008b578       _glPopMatrix@0             0048c578 f opengl32:OPENGL32.dll
 0001:0008b57e       _glTranslatef@12           0048c57e f opengl32:OPENGL32.dll
 0001:0008b584       _glPushMatrix@0            0048c584 f opengl32:OPENGL32.dll
 0001:0008b58a       _glRotatef@16              0048c58a f opengl32:OPENGL32.dll
 0001:0008b590       _glLoadIdentity@0          0048c590 f opengl32:OPENGL32.dll
 0001:0008b596       _wglMakeCurrent@8          0048c596 f opengl32:OPENGL32.dll
 0001:0008b59c       _glGetIntegerv@8           0048c59c f opengl32:OPENGL32.dll
 0001:0008b5a2       _glClear@4                 0048c5a2 f opengl32:OPENGL32.dll
 0001:0008b5a8       _glClearColor@16           0048c5a8 f opengl32:OPENGL32.dll
 0001:0008b5ae       _glGetError@0              0048c5ae f opengl32:OPENGL32.dll
 0001:0008b5b4       _glViewport@16             0048c5b4 f opengl32:OPENGL32.dll
 0001:0008b5ba       _glLightModelfv@8          0048c5ba f opengl32:OPENGL32.dll
 0001:0008b5c0       _glShadeModel@4            0048c5c0 f opengl32:OPENGL32.dll
 0001:0008b5c6       _wglCreateContext@4        0048c5c6 f opengl32:OPENGL32.dll
 0001:0008b5cc       _glDrawPixels@20           0048c5cc f opengl32:OPENGL32.dll
 0001:0008b5d2       _glPixelStorei@8           0048c5d2 f opengl32:OPENGL32.dll
 0001:0008b5d8       _glRasterPos2i@8           0048c5d8 f opengl32:OPENGL32.dll
 0001:0008b5de       _glReadPixels@28           0048c5de f opengl32:OPENGL32.dll
 0001:0008b5e4       _glFlush@0                 0048c5e4 f opengl32:OPENGL32.dll
 0001:0008b5ea       _glCallList@4              0048c5ea f opengl32:OPENGL32.dll
 0001:0008b5f0       _glEndList@0               0048c5f0 f opengl32:OPENGL32.dll
 0001:0008b5f6       _glNewList@8               0048c5f6 f opengl32:OPENGL32.dll
 0001:0008b5fc       _glGenLists@4              0048c5fc f opengl32:OPENGL32.dll
 0001:0008b602       _glClipPlane@8             0048c602 f opengl32:OPENGL32.dll
 0001:0008b608       _glColor4d@32              0048c608 f opengl32:OPENGL32.dll
 0001:0008b60e       _glColor3d@24              0048c60e f opengl32:OPENGL32.dll
 0001:0008b614       _glBlendFunc@8             0048c614 f opengl32:OPENGL32.dll
 0001:0008b61a       _glColorMaterial@8         0048c61a f opengl32:OPENGL32.dll
 0001:0008b620       _glLightModeli@8           0048c620 f opengl32:OPENGL32.dll
 0001:0008b626       _glRenderMode@4            0048c626 f opengl32:OPENGL32.dll
 0001:0008b62c       _glPushName@4              0048c62c f opengl32:OPENGL32.dll
 0001:0008b632       _glInitNames@0             0048c632 f opengl32:OPENGL32.dll
 0001:0008b638       _glSelectBuffer@8          0048c638 f opengl32:OPENGL32.dll
 0001:0008b63e       _glDeleteLists@8           0048c63e f opengl32:OPENGL32.dll
 0001:0008b644       _glDisable@4               0048c644 f opengl32:OPENGL32.dll
 0001:0008b64a       _glVertex3dv@4             0048c64a f opengl32:OPENGL32.dll
 0001:0008b650       _glNormal3dv@4             0048c650 f opengl32:OPENGL32.dll
 0001:0008b656       _glPopName@0               0048c656 f opengl32:OPENGL32.dll
 0001:0008b65c       _glPopAttrib@0             0048c65c f opengl32:OPENGL32.dll
 0001:0008b662       _glColor4fv@4              0048c662 f opengl32:OPENGL32.dll
 0001:0008b668       _glPushAttrib@4            0048c668 f opengl32:OPENGL32.dll
 0001:0008b66e       _glNormal3d@24             0048c66e f opengl32:OPENGL32.dll
 0001:0008b674       _WNetGetUserA@12           0048c674 f mpr:MPR.dll
 0001:0008b67a       ?closeDgnFile@@YAXPAX@Z    0048c67a f pm3dgnInterface:pm3dgnInterface.dll
 0001:0008b680       ?dgnPopCurrentTransform@@YAXPAX@Z 0048c680 f pm3dgnInterface:pm3dgnInterface.dll
 0001:0008b686       ?dgnPushCurrentTransform@@YAXPAX@Z 0048c686 f pm3dgnInterface:pm3dgnInterface.dll
 0001:0008b68c       ?setUORConversion@@YAXPAXNPAD@Z 0048c68c f pm3dgnInterface:pm3dgnInterface.dll
 0001:0008b692       ?openDgnFile@@YAPAXPAD@Z   0048c692 f pm3dgnInterface:pm3dgnInterface.dll
 0001:0008b698       ?dgnCreateOffSetCone@@YAXPAXNNNNN@Z 0048c698 f pm3dgnInterface:pm3dgnInterface.dll
 0001:0008b69e       ?dgnCreateCircTorus@@YAXPAXNNN@Z 0048c69e f pm3dgnInterface:pm3dgnInterface.dll
 0001:0008b6a4       ?dgnCreateRectTorus@@YAXPAXNNNN@Z 0048c6a4 f pm3dgnInterface:pm3dgnInterface.dll
 0001:0008b6aa       ?dgnCreatePyramid@@YAXPAXNNNNNNN@Z 0048c6aa f pm3dgnInterface:pm3dgnInterface.dll
 0001:0008b6b0       ?dgnCreateCylinder@@YAXPAXNN@Z 0048c6b0 f pm3dgnInterface:pm3dgnInterface.dll
 0001:0008b6b6       ?dgnCreateBox@@YAXPAXNNN@Z 0048c6b6 f pm3dgnInterface:pm3dgnInterface.dll
 0001:0008b6bc       ?dgnSetCurrentCoordSystemRel@@YAXPAXPAN111@Z 0048c6bc f pm3dgnInterface:pm3dgnInterface.dll
 0001:0008b6d0       _printf                    0048c6d0 f MSVCRTD:MSVCRTD.dll
 0001:0008b6d6       _sqrt                      0048c6d6 f MSVCRTD:MSVCRTD.dll
 0001:0008b6dc       __setjmp3                  0048c6dc f MSVCRTD:MSVCRTD.dll
 0001:0008b6e2       _fabs                      0048c6e2 f MSVCRTD:MSVCRTD.dll
 0001:0008b6e8       _memset                    0048c6e8 f MSVCRTD:MSVCRTD.dll
 0001:0008b6ee       _fprintf                   0048c6ee f MSVCRTD:MSVCRTD.dll
 0001:0008b6f4       ___p__iob                  0048c6f4 f MSVCRTD:MSVCRTD.dll
 0001:0008b6fa       ___CxxFrameHandler         0048c6fa f MSVCRTD:MSVCRTD.dll
 0001:0008b700       _free                      0048c700 f MSVCRTD:MSVCRTD.dll
 0001:0008b706       _memcpy                    0048c706 f MSVCRTD:MSVCRTD.dll
 0001:0008b70c       _malloc                    0048c70c f MSVCRTD:MSVCRTD.dll
 0001:0008b712       __purecall                 0048c712 f MSVCRTD:MSVCRTD.dll
 0001:0008b718       ??3@YAXPAX@Z               0048c718 f MSVCRTD:MSVCRTD.dll
 0001:0008b720       ??_M@YGXPAXIHP6EX0@Z@Z     0048c720 f MSVCRTD:ehvecdtr.obj
 0001:0008b7d0       ?__ArrayUnwind@@YGXPAXIHP6EX0@Z@Z 0048c7d0 f MSVCRTD:ehvecdtr.obj
 0001:0008b8a6       _sprintf                   0048c8a6 f MSVCRTD:MSVCRTD.dll
 0001:0008b8ac       _strcpy                    0048c8ac f MSVCRTD:MSVCRTD.dll
 0001:0008b8b2       ??2@YAPAXI@Z               0048c8b2 f MSVCRTD:MSVCRTD.dll
 0001:0008b8c0       __onexit                   0048c8c0 f MSVCRTD:atonexit.obj
 0001:0008b990       _atexit                    0048c990 f MSVCRTD:atonexit.obj
 0001:0008b9c0       _freopen                   0048c9c0 f MSVCRTD:MSVCRTD.dll
 0001:0008b9c6       __ftol                     0048c9c6 f MSVCRTD:MSVCRTD.dll
 0001:0008b9cc       _remove                    0048c9cc f MSVCRTD:MSVCRTD.dll
 0001:0008b9d2       _atof                      0048c9d2 f MSVCRTD:MSVCRTD.dll
 0001:0008b9d8       _sin                       0048c9d8 f MSVCRTD:MSVCRTD.dll
 0001:0008b9de       _cos                       0048c9de f MSVCRTD:MSVCRTD.dll
 0001:0008b9e4       _fclose                    0048c9e4 f MSVCRTD:MSVCRTD.dll
 0001:0008b9ea       _fopen                     0048c9ea f MSVCRTD:MSVCRTD.dll
 0001:0008b9f0       _asctime                   0048c9f0 f MSVCRTD:MSVCRTD.dll
 0001:0008b9f6       _localtime                 0048c9f6 f MSVCRTD:MSVCRTD.dll
 0001:0008b9fc       _time                      0048c9fc f MSVCRTD:MSVCRTD.dll
 0001:0008ba02       _strcmp                    0048ca02 f MSVCRTD:MSVCRTD.dll
 0001:0008ba08       _strcat                    0048ca08 f MSVCRTD:MSVCRTD.dll
 0001:0008ba0e       _vfprintf                  0048ca0e f MSVCRTD:MSVCRTD.dll
 0001:0008ba14       _vsprintf                  0048ca14 f MSVCRTD:MSVCRTD.dll
 0001:0008ba20       __chkstk                   0048ca20   MSVCRTD:chkstk.obj
 0001:0008ba20       __alloca_probe             0048ca20   MSVCRTD:chkstk.obj
 0001:0008ba50       _vprintf                   0048ca50 f MSVCRTD:MSVCRTD.dll
 0001:0008ba56       _getchar                   0048ca56 f MSVCRTD:MSVCRTD.dll
 0001:0008ba5c       _atan                      0048ca5c f MSVCRTD:MSVCRTD.dll
 0001:0008ba62       _strlen                    0048ca62 f MSVCRTD:MSVCRTD.dll
 0001:0008ba68       _fgets                     0048ca68 f MSVCRTD:MSVCRTD.dll
 0001:0008ba6e       _atoi                      0048ca6e f MSVCRTD:MSVCRTD.dll
 0001:0008ba74       _strncpy                   0048ca74 f MSVCRTD:MSVCRTD.dll
 0001:0008ba7a       _exit                      0048ca7a f MSVCRTD:MSVCRTD.dll
 0001:0008ba80       _realloc                   0048ca80 f MSVCRTD:MSVCRTD.dll
 0001:0008ba86       __assert                   0048ca86 f MSVCRTD:MSVCRTD.dll
 0001:0008ba8c       _isdigit                   0048ca8c f MSVCRTD:MSVCRTD.dll
 0001:0008ba92       _ispunct                   0048ca92 f MSVCRTD:MSVCRTD.dll
 0001:0008ba98       _isspace                   0048ca98 f MSVCRTD:MSVCRTD.dll
 0001:0008ba9e       _strchr                    0048ca9e f MSVCRTD:MSVCRTD.dll
 0001:0008baa4       __strdup                   0048caa4 f MSVCRTD:MSVCRTD.dll
 0001:0008baaa       _strrchr                   0048caaa f MSVCRTD:MSVCRTD.dll
 0001:0008bab0       _abs                       0048cab0 f MSVCRTD:MSVCRTD.dll
 0001:0008bab6       _fmod                      0048cab6 f MSVCRTD:MSVCRTD.dll
 0001:0008babc       _floor                     0048cabc f MSVCRTD:MSVCRTD.dll
 0001:0008bac2       _ceil                      0048cac2 f MSVCRTD:MSVCRTD.dll
 0001:0008bad0       ??_L@YGXPAXIHP6EX0@Z1@Z    0048cad0 f MSVCRTD:ehvecctr.obj
 0001:0008bb82       __beginthread              0048cb82 f MSVCRTD:MSVCRTD.dll
 0001:0008bb88       _longjmp                   0048cb88 f MSVCRTD:MSVCRTD.dll
 0001:0008bb90       _WinMainCRTStartup         0048cb90 f MSVCRTD:crtexew.obj
 0001:0008bdce       __except_handler3          0048cdce f MSVCRTD:MSVCRTD.dll
 0001:0008bdd4       ?terminate@@YAXXZ          0048cdd4 f MSVCRTD:MSVCRTD.dll
 0001:0008bdda       ___dllonexit               0048cdda f MSVCRTD:MSVCRTD.dll
 0001:0008bde0       __exit                     0048cde0 f MSVCRTD:MSVCRTD.dll
 0001:0008bde6       __XcptFilter               0048cde6 f MSVCRTD:MSVCRTD.dll
 0001:0008bdec       ___p__acmdln               0048cdec f MSVCRTD:MSVCRTD.dll
 0001:0008bdf2       __initterm                 0048cdf2 f MSVCRTD:MSVCRTD.dll
 0001:0008bdf8       ___getmainargs             0048cdf8 f MSVCRTD:MSVCRTD.dll
 0001:0008be00       __setdefaultprecision      0048ce00 f MSVCRTD:fp8.obj
 0001:0008be1e       ___setusermatherr          0048ce1e f MSVCRTD:MSVCRTD.dll
 0001:0008be30       __matherr                  0048ce30 f MSVCRTD:merr.obj
 0001:0008be50       __setargv                  0048ce50 f MSVCRTD:dllargv.obj
 0001:0008be5c       ___p__commode              0048ce5c f MSVCRTD:MSVCRTD.dll
 0001:0008be62       ___p__fmode                0048ce62 f MSVCRTD:MSVCRTD.dll
 0001:0008be68       ___set_app_type            0048ce68 f MSVCRTD:MSVCRTD.dll
 0001:0008be6e       __controlfp                0048ce6e f MSVCRTD:MSVCRTD.dll
 0001:0008be80       ??3CObject@@SGXPAX@Z       0048ce80 f mfc42d:MFC42D.DLL
 0001:0008be86       ??2CObject@@SGPAXI@Z       0048ce86 f mfc42d:MFC42D.DLL
 0001:0008be8c       ?SetOccDialogInfo@CWnd@@MAEHPAU_AFX_OCC_DIALOG_INFO@@@Z 0048ce8c f mfc42d:MFC42D.DLL
 0001:0008be92       ?IsFrameWnd@CWnd@@UBEHXZ   0048ce92 f mfc42d:MFC42D.DLL
 0001:0008be98       ?CheckAutoCenter@CWnd@@UAEHXZ 0048ce98 f mfc42d:MFC42D.DLL
 0001:0008be9e       ?OnChildNotify@CWnd@@MAEHIIJPAJ@Z 0048ce9e f mfc42d:MFC42D.DLL
 0001:0008bea4       ?PostNcDestroy@CWnd@@MAEXXZ 0048cea4 f mfc42d:MFC42D.DLL
 0001:0008beaa       ?DefWindowProcA@CWnd@@MAEJIIJ@Z 0048ceaa f mfc42d:MFC42D.DLL
 0001:0008beb0       ?OnWndMsg@CWnd@@MAEHIIJPAJ@Z 0048ceb0 f mfc42d:MFC42D.DLL
 0001:0008beb6       ?WindowProc@CWnd@@MAEJIIJ@Z 0048ceb6 f mfc42d:MFC42D.DLL
 0001:0008bebc       ?OnAmbientProperty@CWnd@@UAEHPAVCOleControlSite@@JPAUtagVARIANT@@@Z 0048cebc f mfc42d:MFC42D.DLL
 0001:0008bec2       ?PreTranslateMessage@CWnd@@UAEHPAUtagMSG@@@Z 0048cec2 f mfc42d:MFC42D.DLL
 0001:0008bec8       ?EndModalState@CWnd@@UAEXXZ 0048cec8 f mfc42d:MFC42D.DLL
 0001:0008bece       ?BeginModalState@CWnd@@UAEXXZ 0048cece f mfc42d:MFC42D.DLL
 0001:0008bed4       ?DoDataExchange@CWnd@@MAEXPAVCDataExchange@@@Z 0048ced4 f mfc42d:MFC42D.DLL
 0001:0008beda       ?GetSuperWndProcAddr@CWnd@@MAEPAP6GJPAUHWND__@@IIJ@ZXZ 0048ceda f mfc42d:MFC42D.DLL
 0001:0008bee0       ?OnNotify@CWnd@@MAEHIJPAJ@Z 0048cee0 f mfc42d:MFC42D.DLL
 0001:0008bee6       ?OnCommand@CWnd@@MAEHIJ@Z  0048cee6 f mfc42d:MFC42D.DLL
 0001:0008beec       ?EndModalLoop@CWnd@@UAEXH@Z 0048ceec f mfc42d:MFC42D.DLL
 0001:0008bef2       ?ContinueModal@CWnd@@UAEHXZ 0048cef2 f mfc42d:MFC42D.DLL
 0001:0008bef8       ?WinHelpA@CWnd@@UAEXKI@Z   0048cef8 f mfc42d:MFC42D.DLL
 0001:0008befe       ?GetScrollBarCtrl@CWnd@@UBEPAVCScrollBar@@H@Z 0048cefe f mfc42d:MFC42D.DLL
 0001:0008bf04       ?OnToolHitTest@CWnd@@UBEHVCPoint@@PAUtagTOOLINFOA@@@Z 0048cf04 f mfc42d:MFC42D.DLL
 0001:0008bf0a       ?CalcWindowRect@CWnd@@UAEXPAUtagRECT@@I@Z 0048cf0a f mfc42d:MFC42D.DLL
 0001:0008bf10       ?PreCreateWindow@CWnd@@UAEHAAUtagCREATESTRUCTA@@@Z 0048cf10 f mfc42d:MFC42D.DLL
 0001:0008bf16       ?DestroyWindow@CWnd@@UAEHXZ 0048cf16 f mfc42d:MFC42D.DLL
 0001:0008bf1c       ?PreSubclassWindow@CWnd@@UAEXXZ 0048cf1c f mfc42d:MFC42D.DLL
 0001:0008bf22       ?GetConnectionHook@CCmdTarget@@MAEPAUIConnectionPoint@@ABU_GUID@@@Z 0048cf22 f mfc42d:MFC42D.DLL
 0001:0008bf28       ?GetExtraConnectionPoints@CCmdTarget@@MAEHPAVCPtrArray@@@Z 0048cf28 f mfc42d:MFC42D.DLL
 0001:0008bf2e       ?GetInterfaceHook@CCmdTarget@@UAEPAUIUnknown@@PBX@Z 0048cf2e f mfc42d:MFC42D.DLL
 0001:0008bf34       ?OnCreateAggregates@CCmdTarget@@UAEHXZ 0048cf34 f mfc42d:MFC42D.DLL
 0001:0008bf3a       ?GetEventSinkMap@CCmdTarget@@MBEPBUAFX_EVENTSINKMAP@@XZ 0048cf3a f mfc42d:MFC42D.DLL
 0001:0008bf40       ?GetInterfaceMap@CCmdTarget@@MBEPBUAFX_INTERFACEMAP@@XZ 0048cf40 f mfc42d:MFC42D.DLL
 0001:0008bf46       ?GetConnectionMap@CCmdTarget@@MBEPBUAFX_CONNECTIONMAP@@XZ 0048cf46 f mfc42d:MFC42D.DLL
 0001:0008bf4c       ?GetDispatchMap@CCmdTarget@@MBEPBUAFX_DISPMAP@@XZ 0048cf4c f mfc42d:MFC42D.DLL
 0001:0008bf52       ?GetCommandMap@CCmdTarget@@MBEPBUAFX_OLECMDMAP@@XZ 0048cf52 f mfc42d:MFC42D.DLL
 0001:0008bf58       ?GetMessageMap@CWnd@@MBEPBUAFX_MSGMAP@@XZ 0048cf58 f mfc42d:MFC42D.DLL
 0001:0008bf5e       ?GetTypeLib@CCmdTarget@@UAEJKPAPAUITypeLib@@@Z 0048cf5e f mfc42d:MFC42D.DLL
 0001:0008bf64       ?GetTypeLibCache@CCmdTarget@@UAEPAVCTypeLibCache@@XZ 0048cf64 f mfc42d:MFC42D.DLL
 0001:0008bf6a       ?GetTypeInfoCount@CCmdTarget@@UAEIXZ 0048cf6a f mfc42d:MFC42D.DLL
 0001:0008bf70       ?GetDispatchIID@CCmdTarget@@UAEHPAU_GUID@@@Z 0048cf70 f mfc42d:MFC42D.DLL
 0001:0008bf76       ?IsInvokeAllowed@CCmdTarget@@UAEHJ@Z 0048cf76 f mfc42d:MFC42D.DLL
 0001:0008bf7c       ?OnFinalRelease@CWnd@@UAEXXZ 0048cf7c f mfc42d:MFC42D.DLL
 0001:0008bf82       ?OnCmdMsg@CCmdTarget@@UAEHIHPAXPAUAFX_CMDHANDLERINFO@@@Z 0048cf82 f mfc42d:MFC42D.DLL
 0001:0008bf88       ?Dump@CWnd@@UBEXAAVCDumpContext@@@Z 0048cf88 f mfc42d:MFC42D.DLL
 0001:0008bf8e       ?AssertValid@CWnd@@UBEXXZ  0048cf8e f mfc42d:MFC42D.DLL
 0001:0008bf94       ?Serialize@CObject@@UAEXAAVCArchive@@@Z 0048cf94 f mfc42d:MFC42D.DLL
 0001:0008bf9a       ??1CWnd@@UAE@XZ            0048cf9a f mfc42d:MFC42D.DLL
 0001:0008bfa0       ??0CWnd@@QAE@XZ            0048cfa0 f mfc42d:MFC42D.DLL
 0001:0008bfa6       ?classCWnd@CWnd@@2UCRuntimeClass@@B 0048cfa6 f mfc42d:MFC42D.DLL
 0001:0008bfac       ?GetProperty@CWnd@@QBEXJGPAX@Z 0048cfac f mfc42d:MFC42D.DLL
 0001:0008bfb2       ?SetProperty@CWnd@@QAAXJGZZ 0048cfb2 f mfc42d:MFC42D.DLL
 0001:0008bfb8       ?InvokeHelper@CWnd@@QAAXJGGPAXPBEZZ 0048cfb8 f mfc42d:MFC42D.DLL
 0001:0008bfbe       ??1CObList@@UAE@XZ         0048cfbe f mfc42d:MFC42D.DLL
 0001:0008bfc4       ??1CString@@QAE@XZ         0048cfc4 f mfc42d:MFC42D.DLL
 0001:0008bfca       ??1CStdioFile@@UAE@XZ      0048cfca f mfc42d:MFC42D.DLL
 0001:0008bfd0       ?WriteString@CStdioFile@@UAEXPBD@Z 0048cfd0 f mfc42d:MFC42D.DLL
 0001:0008bfd6       ??0CStdioFile@@QAE@PBDI@Z  0048cfd6 f mfc42d:MFC42D.DLL
 0001:0008bfdc       ?UpdateAllViews@CDocument@@QAEXPAVCView@@JPAVCObject@@@Z 0048cfdc f mfc42d:MFC42D.DLL
 0001:0008bfe2       ?AfxGetApp@@YGPAVCWinApp@@XZ 0048cfe2 f mfc42d:MFC42D.DLL
 0001:0008bfe8       ??BCString@@QBEPBDXZ       0048cfe8 f mfc42d:MFC42D.DLL
 0001:0008bfee       ??4CString@@QAEABV0@ABV0@@Z 0048cfee f mfc42d:MFC42D.DLL
 0001:0008bff4       ??0CString@@QAE@XZ         0048cff4 f mfc42d:MFC42D.DLL
 0001:0008bffa       ?IsKindOf@CObject@@QBEHPBUCRuntimeClass@@@Z 0048cffa f mfc42d:MFC42D.DLL
 0001:0008c000       ?GetNext@CObList@@QAEAAPAVCObject@@AAPAU__POSITION@@@Z 0048d000 f mfc42d:MFC42D.DLL
 0001:0008c006       ?GetHeadPosition@CObList@@QBEPAU__POSITION@@XZ 0048d006 f mfc42d:MFC42D.DLL
 0001:0008c00c       ??0CObList@@QAE@H@Z        0048d00c f mfc42d:MFC42D.DLL
 0001:0008c012       ?GetPathName@CDocument@@QBEABVCString@@XZ 0048d012 f mfc42d:MFC42D.DLL
 0001:0008c018       ?GetNext@CPtrList@@QAEAAPAXAAPAU__POSITION@@@Z 0048d018 f mfc42d:MFC42D.DLL
 0001:0008c01e       ?GetHeadPosition@CPtrList@@QBEPAU__POSITION@@XZ 0048d01e f mfc42d:MFC42D.DLL
 0001:0008c024       ??1CPtrList@@UAE@XZ        0048d024 f mfc42d:MFC42D.DLL
 0001:0008c02a       ?AfxMessageBox@@YGHPBDII@Z 0048d02a f mfc42d:MFC42D.DLL
 0001:0008c030       ?AddTail@CPtrList@@QAEPAU__POSITION@@PAX@Z 0048d030 f mfc42d:MFC42D.DLL
 0001:0008c036       ??0CPtrList@@QAE@H@Z       0048d036 f mfc42d:MFC42D.DLL
 0001:0008c03c       ?OnFilePrintSetup@CWinApp@@IAEXXZ 0048d03c f mfc42d:MFC42D.DLL
 0001:0008c042       ?OnFileOpen@CWinApp@@IAEXXZ 0048d042 f mfc42d:MFC42D.DLL
 0001:0008c048       ?OnFileNew@CWinApp@@IAEXXZ 0048d048 f mfc42d:MFC42D.DLL
 0001:0008c04e       ?messageMap@CWinApp@@1UAFX_MSGMAP@@B 0048d04e f mfc42d:MFC42D.DLL
 0001:0008c054       ?WinHelpA@CWinApp@@UAEXKI@Z 0048d054 f mfc42d:MFC42D.DLL
 0001:0008c05a       ?OnDDECommand@CWinApp@@UAEHPAD@Z 0048d05a f mfc42d:MFC42D.DLL
 0001:0008c060       ?DoWaitCursor@CWinApp@@UAEXH@Z 0048d060 f mfc42d:MFC42D.DLL
 0001:0008c066       ?DoMessageBox@CWinApp@@UAEHPBDII@Z 0048d066 f mfc42d:MFC42D.DLL
 0001:0008c06c       ?SaveAllModified@CWinApp@@UAEHXZ 0048d06c f mfc42d:MFC42D.DLL
 0001:0008c072       ?InitApplication@CWinApp@@UAEHXZ 0048d072 f mfc42d:MFC42D.DLL
 0001:0008c078       ?AddToRecentFileList@CWinApp@@UAEXPBD@Z 0048d078 f mfc42d:MFC42D.DLL
 0001:0008c07e       ?OpenDocumentFile@CWinApp@@UAEPAVCDocument@@PBD@Z 0048d07e f mfc42d:MFC42D.DLL
 0001:0008c084       ?Delete@CWinThread@@UAEXXZ 0048d084 f mfc42d:MFC42D.DLL
 0001:0008c08a       ?GetMainWnd@CWinThread@@UAEPAVCWnd@@XZ 0048d08a f mfc42d:MFC42D.DLL
 0001:0008c090       ?ProcessMessageFilter@CWinThread@@UAEHHPAUtagMSG@@@Z 0048d090 f mfc42d:MFC42D.DLL
 0001:0008c096       ?ProcessWndProcException@CWinApp@@UAEJPAVCException@@PBUtagMSG@@@Z 0048d096 f mfc42d:MFC42D.DLL
 0001:0008c09c       ?IsIdleMessage@CWinThread@@UAEHPAUtagMSG@@@Z 0048d09c f mfc42d:MFC42D.DLL
 0001:0008c0a2       ?OnIdle@CWinApp@@UAEHJ@Z   0048d0a2 f mfc42d:MFC42D.DLL
 0001:0008c0a8       ?PumpMessage@CWinThread@@UAEHXZ 0048d0a8 f mfc42d:MFC42D.DLL
 0001:0008c0ae       ?PreTranslateMessage@CWinThread@@UAEHPAUtagMSG@@@Z 0048d0ae f mfc42d:MFC42D.DLL
 0001:0008c0b4       ?Run@CWinApp@@UAEHXZ       0048d0b4 f mfc42d:MFC42D.DLL
 0001:0008c0ba       ?OnFinalRelease@CCmdTarget@@UAEXXZ 0048d0ba f mfc42d:MFC42D.DLL
 0001:0008c0c0       ?Dump@CWinApp@@UBEXAAVCDumpContext@@@Z 0048d0c0 f mfc42d:MFC42D.DLL
 0001:0008c0c6       ?AssertValid@CWinApp@@UBEXXZ 0048d0c6 f mfc42d:MFC42D.DLL
 0001:0008c0cc       ?GetRuntimeClass@CWinApp@@UBEPAUCRuntimeClass@@XZ 0048d0cc f mfc42d:MFC42D.DLL
 0001:0008c0d2       ??1CWinApp@@UAE@XZ         0048d0d2 f mfc42d:MFC42D.DLL
 0001:0008c0d8       ??0CWinApp@@QAE@PBD@Z      0048d0d8 f mfc42d:MFC42D.DLL
 0001:0008c0de       ??1CCommandLineInfo@@UAE@XZ 0048d0de f mfc42d:MFC42D.DLL
 0001:0008c0e4       ?UpdateWindow@CWnd@@QAEXXZ 0048d0e4 f mfc42d:MFC42D.DLL
 0001:0008c0ea       ?ShowWindow@CWnd@@QAEHH@Z  0048d0ea f mfc42d:MFC42D.DLL
 0001:0008c0f0       ?DragAcceptFiles@CWnd@@QAEXH@Z 0048d0f0 f mfc42d:MFC42D.DLL
 0001:0008c0f6       ??H@YG?AVCString@@ABV0@PBD@Z 0048d0f6 f mfc42d:MFC42D.DLL
 0001:0008c0fc       ?RegisterShellFileTypes@CWinApp@@IAEXH@Z 0048d0fc f mfc42d:MFC42D.DLL
 0001:0008c102       ?EnableShellOpen@CWinApp@@IAEXXZ 0048d102 f mfc42d:MFC42D.DLL
 0001:0008c108       ?SetIcon@CWnd@@QAEPAUHICON__@@PAU2@H@Z 0048d108 f mfc42d:MFC42D.DLL
 0001:0008c10e       ?LoadIconA@CWinApp@@QBEPAUHICON__@@I@Z 0048d10e f mfc42d:MFC42D.DLL
 0001:0008c114       ?SendMessageA@CWnd@@QAEJIIJ@Z 0048d114 f mfc42d:MFC42D.DLL
 0001:0008c11a       ?AddDocTemplate@CWinApp@@QAEXPAVCDocTemplate@@@Z 0048d11a f mfc42d:MFC42D.DLL
 0001:0008c120       ??0CMultiDocTemplate@@QAE@IPAUCRuntimeClass@@00@Z 0048d120 f mfc42d:MFC42D.DLL
 0001:0008c126       ?classCMDIChildWnd@CMDIChildWnd@@2UCRuntimeClass@@B 0048d126 f mfc42d:MFC42D.DLL
 0001:0008c12c       ?LoadStdProfileSettings@CWinApp@@IAEXI@Z 0048d12c f mfc42d:MFC42D.DLL
 0001:0008c132       ?Enable3dControls@CWinApp@@IAEHXZ 0048d132 f mfc42d:MFC42D.DLL
 0001:0008c138       ?AfxMessageBox@@YGHIII@Z   0048d138 f mfc42d:MFC42D.DLL
 0001:0008c13e       ?ParseCommandLine@CWinApp@@QAEXAAVCCommandLineInfo@@@Z 0048d13e f mfc42d:MFC42D.DLL
 0001:0008c144       ??0CCommandLineInfo@@QAE@XZ 0048d144 f mfc42d:MFC42D.DLL
 0001:0008c14a       ?PreInitDialog@CDialog@@MAEXXZ 0048d14a f mfc42d:MFC42D.DLL
 0001:0008c150       ?OnCancel@CDialog@@MAEXXZ  0048d150 f mfc42d:MFC42D.DLL
 0001:0008c156       ?OnOK@CDialog@@MAEXXZ      0048d156 f mfc42d:MFC42D.DLL
 0001:0008c15c       ?OnSetFont@CDialog@@UAEXPAVCFont@@@Z 0048d15c f mfc42d:MFC42D.DLL
 0001:0008c162       ?DoModal@CDialog@@UAEHXZ   0048d162 f mfc42d:MFC42D.DLL
 0001:0008c168       ?SetOccDialogInfo@CDialog@@MAEHPAU_AFX_OCC_DIALOG_INFO@@@Z 0048d168 f mfc42d:MFC42D.DLL
 0001:0008c16e       ?CheckAutoCenter@CDialog@@UAEHXZ 0048d16e f mfc42d:MFC42D.DLL
 0001:0008c174       ?PreTranslateMessage@CDialog@@UAEHPAUtagMSG@@@Z 0048d174 f mfc42d:MFC42D.DLL
 0001:0008c17a       ?Create@CWnd@@UAEHPBD0KABUtagRECT@@PAV1@IPAUCCreateContext@@@Z 0048d17a f mfc42d:MFC42D.DLL
 0001:0008c180       ?OnCmdMsg@CDialog@@UAEHIHPAXPAUAFX_CMDHANDLERINFO@@@Z 0048d180 f mfc42d:MFC42D.DLL
 0001:0008c186       ?Dump@CDialog@@UBEXAAVCDumpContext@@@Z 0048d186 f mfc42d:MFC42D.DLL
 0001:0008c18c       ?AssertValid@CDialog@@UBEXXZ 0048d18c f mfc42d:MFC42D.DLL
 0001:0008c192       ?GetRuntimeClass@CDialog@@UBEPAUCRuntimeClass@@XZ 0048d192 f mfc42d:MFC42D.DLL
 0001:0008c198       ??1CDialog@@UAE@XZ         0048d198 f mfc42d:MFC42D.DLL
 0001:0008c19e       ??1CDC@@UAE@XZ             0048d19e f mfc42d:MFC42D.DLL
 0001:0008c1a4       ??1CBitmap@@UAE@XZ         0048d1a4 f mfc42d:MFC42D.DLL
 0001:0008c1aa       ??0CSize@@QAE@XZ           0048d1aa f mfc42d:MFC42D.DLL
 0001:0008c1b0       ??0CPoint@@QAE@XZ          0048d1b0 f mfc42d:MFC42D.DLL
 0001:0008c1b6       ??0CBitmap@@QAE@XZ         0048d1b6 f mfc42d:MFC42D.DLL
 0001:0008c1bc       ??0CDC@@QAE@XZ             0048d1bc f mfc42d:MFC42D.DLL
 0001:0008c1c2       ??0CDialog@@QAE@IPAVCWnd@@@Z 0048d1c2 f mfc42d:MFC42D.DLL
 0001:0008c1c8       ?messageMap@CDialog@@1UAFX_MSGMAP@@B 0048d1c8 f mfc42d:MFC42D.DLL
 0001:0008c1ce       ??1CClientDC@@UAE@XZ       0048d1ce f mfc42d:MFC42D.DLL
 0001:0008c1d4       ?AfxAssertFailedLine@@YGHPBDH@Z 0048d1d4 f mfc42d:MFC42D.DLL
 0001:0008c1da       ?GetSafeHandle@CGdiObject@@QBEPAXXZ 0048d1da f mfc42d:MFC42D.DLL
 0001:0008c1e0       ?SelectObject@CDC@@QAEPAVCBitmap@@PAV2@@Z 0048d1e0 f mfc42d:MFC42D.DLL
 0001:0008c1e6       ?CreateCompatibleDC@CDC@@QAEHPAV1@@Z 0048d1e6 f mfc42d:MFC42D.DLL
 0001:0008c1ec       ??0CClientDC@@QAE@PAVCWnd@@@Z 0048d1ec f mfc42d:MFC42D.DLL
 0001:0008c1f2       ?GetObjectA@CGdiObject@@QBEHHPAX@Z 0048d1f2 f mfc42d:MFC42D.DLL
 0001:0008c1f8       ?LoadBitmapA@CBitmap@@QAEHI@Z 0048d1f8 f mfc42d:MFC42D.DLL
 0001:0008c1fe       ?OnInitDialog@CDialog@@UAEHXZ 0048d1fe f mfc42d:MFC42D.DLL
 0001:0008c204       ??1CPaintDC@@UAE@XZ        0048d204 f mfc42d:MFC42D.DLL
 0001:0008c20a       ?StretchBlt@CDC@@QAEHHHHHPAV1@HHHHK@Z 0048d20a f mfc42d:MFC42D.DLL
 0001:0008c210       ??0CPaintDC@@QAE@PAVCWnd@@@Z 0048d210 f mfc42d:MFC42D.DLL
 0001:0008c216       ?AddHead@CObList@@QAEPAU__POSITION@@PAVCObject@@@Z 0048d216 f mfc42d:MFC42D.DLL
 0001:0008c21c       ?GetNextDocTemplate@CWinApp@@QBEPAVCDocTemplate@@AAPAU__POSITION@@@Z 0048d21c f mfc42d:MFC42D.DLL
 0001:0008c222       ?GetFirstDocTemplatePosition@CWinApp@@QBEPAU__POSITION@@XZ 0048d222 f mfc42d:MFC42D.DLL
 0001:0008c228       ?IsEmpty@CObList@@QBEHXZ   0048d228 f mfc42d:MFC42D.DLL
 0001:0008c22e       ?Close@CStdioFile@@UAEXXZ  0048d22e f mfc42d:MFC42D.DLL
 0001:0008c234       ?Open@CStdioFile@@UAEHPBDIPAVCFileException@@@Z 0048d234 f mfc42d:MFC42D.DLL
 0001:0008c23a       ??0CStdioFile@@QAE@XZ      0048d23a f mfc42d:MFC42D.DLL
 0001:0008c240       ??1CListBox@@UAE@XZ        0048d240 f mfc42d:MFC42D.DLL
 0001:0008c246       ??4CString@@QAEABV0@PBD@Z  0048d246 f mfc42d:MFC42D.DLL
 0001:0008c24c       ?DDX_Text@@YGXPAVCDataExchange@@HAAN@Z 0048d24c f mfc42d:MFC42D.DLL
 0001:0008c252       ?DDX_Radio@@YGXPAVCDataExchange@@HAAH@Z 0048d252 f mfc42d:MFC42D.DLL
 0001:0008c258       ?UpdateData@CWnd@@QAEHH@Z  0048d258 f mfc42d:MFC42D.DLL
 0001:0008c25e       ?classCDocument@CDocument@@2UCRuntimeClass@@B 0048d25e f mfc42d:MFC42D.DLL
 0001:0008c264       ?messageMap@CDocument@@1UAFX_MSGMAP@@B 0048d264 f mfc42d:MFC42D.DLL
 0001:0008c26a       ?dispatchMap@CCmdTarget@@1UAFX_DISPMAP@@B 0048d26a f mfc42d:MFC42D.DLL
 0001:0008c270       ?OnIdle@CDocument@@UAEXXZ  0048d270 f mfc42d:MFC42D.DLL
 0001:0008c276       ?GetDefaultAccelerator@CDocument@@UAEPAUHACCEL__@@XZ 0048d276 f mfc42d:MFC42D.DLL
 0001:0008c27c       ?GetDefaultMenu@CDocument@@UAEPAUHMENU__@@XZ 0048d27c f mfc42d:MFC42D.DLL
 0001:0008c282       ?UpdateFrameCounts@CDocument@@UAEXXZ 0048d282 f mfc42d:MFC42D.DLL
 0001:0008c288       ?DoFileSave@CDocument@@UAEHXZ 0048d288 f mfc42d:MFC42D.DLL
 0001:0008c28e       ?DoSave@CDocument@@UAEHPBDH@Z 0048d28e f mfc42d:MFC42D.DLL
 0001:0008c294       ?PreCloseFrame@CDocument@@UAEXPAVCFrameWnd@@@Z 0048d294 f mfc42d:MFC42D.DLL
 0001:0008c29a       ?SaveModified@CDocument@@UAEHXZ 0048d29a f mfc42d:MFC42D.DLL
 0001:0008c2a0       ?CanCloseFrame@CDocument@@UAEHPAVCFrameWnd@@@Z 0048d2a0 f mfc42d:MFC42D.DLL
 0001:0008c2a6       ?ReleaseFile@CDocument@@UAEXPAVCFile@@H@Z 0048d2a6 f mfc42d:MFC42D.DLL
 0001:0008c2ac       ?GetFile@CDocument@@UAEPAVCFile@@PBDIPAVCFileException@@@Z 0048d2ac f mfc42d:MFC42D.DLL
 0001:0008c2b2       ?ReportSaveLoadException@CDocument@@UAEXPBDPAVCException@@HI@Z 0048d2b2 f mfc42d:MFC42D.DLL
 0001:0008c2b8       ?OnCloseDocument@CDocument@@UAEXXZ 0048d2b8 f mfc42d:MFC42D.DLL
 0001:0008c2be       ?OnSaveDocument@CDocument@@UAEHPBD@Z 0048d2be f mfc42d:MFC42D.DLL
 0001:0008c2c4       ?OnOpenDocument@CDocument@@UAEHPBD@Z 0048d2c4 f mfc42d:MFC42D.DLL
 0001:0008c2ca       ?DeleteContents@CDocument@@UAEXXZ 0048d2ca f mfc42d:MFC42D.DLL
 0001:0008c2d0       ?OnChangedViewList@CDocument@@UAEXXZ 0048d2d0 f mfc42d:MFC42D.DLL
 0001:0008c2d6       ?GetNextView@CDocument@@UBEPAVCView@@AAPAU__POSITION@@@Z 0048d2d6 f mfc42d:MFC42D.DLL
 0001:0008c2dc       ?GetFirstViewPosition@CDocument@@UBEPAU__POSITION@@XZ 0048d2dc f mfc42d:MFC42D.DLL
 0001:0008c2e2       ?SetModifiedFlag@CDocument@@UAEXH@Z 0048d2e2 f mfc42d:MFC42D.DLL
 0001:0008c2e8       ?IsModified@CDocument@@UAEHXZ 0048d2e8 f mfc42d:MFC42D.DLL
 0001:0008c2ee       ?SetPathName@CDocument@@UAEXPBDH@Z 0048d2ee f mfc42d:MFC42D.DLL
 0001:0008c2f4       ?SetTitle@CDocument@@UAEXPBD@Z 0048d2f4 f mfc42d:MFC42D.DLL
 0001:0008c2fa       ?OnFinalRelease@CDocument@@UAEXXZ 0048d2fa f mfc42d:MFC42D.DLL
 0001:0008c300       ?OnCmdMsg@CDocument@@UAEHIHPAXPAUAFX_CMDHANDLERINFO@@@Z 0048d300 f mfc42d:MFC42D.DLL
 0001:0008c306       ??1CDocument@@UAE@XZ       0048d306 f mfc42d:MFC42D.DLL
 0001:0008c30c       ?AfxOleLockApp@@YGXXZ      0048d30c f mfc42d:MFC42D.DLL
 0001:0008c312       ??0CDocument@@QAE@XZ       0048d312 f mfc42d:MFC42D.DLL
 0001:0008c318       ?AfxOleUnlockApp@@YGXXZ    0048d318 f mfc42d:MFC42D.DLL
 0001:0008c31e       ?OnNewDocument@CDocument@@UAEHXZ 0048d31e f mfc42d:MFC42D.DLL
 0001:0008c324       ?Flush@CArchive@@QAEXXZ    0048d324 f mfc42d:MFC42D.DLL
 0001:0008c32a       ?GetFile@CArchive@@QBEPAVCFile@@XZ 0048d32a f mfc42d:MFC42D.DLL
 0001:0008c330       ?IsStoring@CArchive@@QBEHXZ 0048d330 f mfc42d:MFC42D.DLL
 0001:0008c336       ?AssertValid@CDocument@@UBEXXZ 0048d336 f mfc42d:MFC42D.DLL
 0001:0008c33c       ?Dump@CDocument@@UBEXAAVCDumpContext@@@Z 0048d33c f mfc42d:MFC42D.DLL
 0001:0008c342       ??1CMenu@@UAE@XZ           0048d342 f mfc42d:MFC42D.DLL
 0001:0008c348       ?DestroyMenu@CMenu@@QAEHXZ 0048d348 f mfc42d:MFC42D.DLL
 0001:0008c34e       ?TrackPopupMenu@CMenu@@QAEHIHHPAVCWnd@@PBUtagRECT@@@Z 0048d34e f mfc42d:MFC42D.DLL
 0001:0008c354       ?ModifyMenuA@CMenu@@QAEHIIIPBD@Z 0048d354 f mfc42d:MFC42D.DLL
 0001:0008c35a       ?GetMenuStringA@CMenu@@QBEHIPADHI@Z 0048d35a f mfc42d:MFC42D.DLL
 0001:0008c360       ?GetSubMenu@CMenu@@QBEPAV1@H@Z 0048d360 f mfc42d:MFC42D.DLL
 0001:0008c366       ?LoadMenuA@CMenu@@QAEHI@Z  0048d366 f mfc42d:MFC42D.DLL
 0001:0008c36c       ??0CMenu@@QAE@XZ           0048d36c f mfc42d:MFC42D.DLL
 0001:0008c372       ??2CObject@@SGPAXIPBDH@Z   0048d372 f mfc42d:MFC42D.DLL
 0001:0008c378       ?classCFormView@CFormView@@2UCRuntimeClass@@B 0048d378 f mfc42d:MFC42D.DLL
 0001:0008c37e       ?OnEndPrintPreview@CView@@MAEXPAVCDC@@PAUCPrintInfo@@UtagPOINT@@PAVCPreviewView@@@Z 0048d37e f mfc42d:MFC42D.DLL
 0001:0008c384       ?OnEndPrinting@CView@@MAEXPAVCDC@@PAUCPrintInfo@@@Z 0048d384 f mfc42d:MFC42D.DLL
 0001:0008c38a       ?OnPrint@CView@@MAEXPAVCDC@@PAUCPrintInfo@@@Z 0048d38a f mfc42d:MFC42D.DLL
 0001:0008c390       ?OnBeginPrinting@CView@@MAEXPAVCDC@@PAUCPrintInfo@@@Z 0048d390 f mfc42d:MFC42D.DLL
 0001:0008c396       ?OnPreparePrinting@CView@@MAEHPAUCPrintInfo@@@Z 0048d396 f mfc42d:MFC42D.DLL
 0001:0008c39c       ?OnDraw@CFormView@@MAEXPAVCDC@@@Z 0048d39c f mfc42d:MFC42D.DLL
 0001:0008c3a2       ?OnUpdate@CView@@MAEXPAV1@JPAVCObject@@@Z 0048d3a2 f mfc42d:MFC42D.DLL
 0001:0008c3a8       ?OnActivateFrame@CFormView@@MAEXIPAVCFrameWnd@@@Z 0048d3a8 f mfc42d:MFC42D.DLL
 0001:0008c3ae       ?OnActivateView@CFormView@@MAEXHPAVCView@@0@Z 0048d3ae f mfc42d:MFC42D.DLL
 0001:0008c3b4       ?OnPrepareDC@CScrollView@@UAEXPAVCDC@@PAUCPrintInfo@@@Z 0048d3b4 f mfc42d:MFC42D.DLL
 0001:0008c3ba       ?OnDragScroll@CView@@UAEKKVCPoint@@@Z 0048d3ba f mfc42d:MFC42D.DLL
 0001:0008c3c0       ?OnDropEx@CView@@UAEKPAVCOleDataObject@@KKVCPoint@@@Z 0048d3c0 f mfc42d:MFC42D.DLL
 0001:0008c3c6       ?OnDrop@CView@@UAEHPAVCOleDataObject@@KVCPoint@@@Z 0048d3c6 f mfc42d:MFC42D.DLL
 0001:0008c3cc       ?OnDragLeave@CView@@UAEXXZ 0048d3cc f mfc42d:MFC42D.DLL
 0001:0008c3d2       ?OnDragOver@CView@@UAEKPAVCOleDataObject@@KVCPoint@@@Z 0048d3d2 f mfc42d:MFC42D.DLL
 0001:0008c3d8       ?OnDragEnter@CView@@UAEKPAVCOleDataObject@@KVCPoint@@@Z 0048d3d8 f mfc42d:MFC42D.DLL
 0001:0008c3de       ?OnScrollBy@CScrollView@@UAEHVCSize@@H@Z 0048d3de f mfc42d:MFC42D.DLL
 0001:0008c3e4       ?OnScroll@CScrollView@@UAEHIIH@Z 0048d3e4 f mfc42d:MFC42D.DLL
 0001:0008c3ea       ?IsSelected@CView@@UBEHPBVCObject@@@Z 0048d3ea f mfc42d:MFC42D.DLL
 0001:0008c3f0       ?SetOccDialogInfo@CFormView@@MAEHPAU_AFX_OCC_DIALOG_INFO@@@Z 0048d3f0 f mfc42d:MFC42D.DLL
 0001:0008c3f6       ?PostNcDestroy@CView@@MAEXXZ 0048d3f6 f mfc42d:MFC42D.DLL
 0001:0008c3fc       ?PreTranslateMessage@CFormView@@MAEHPAUtagMSG@@@Z 0048d3fc f mfc42d:MFC42D.DLL
 0001:0008c402       ?GetScrollBarCtrl@CView@@UBEPAVCScrollBar@@H@Z 0048d402 f mfc42d:MFC42D.DLL
 0001:0008c408       ?CalcWindowRect@CScrollView@@UAEXPAUtagRECT@@I@Z 0048d408 f mfc42d:MFC42D.DLL
 0001:0008c40e       ?PreCreateWindow@CView@@MAEHAAUtagCREATESTRUCTA@@@Z 0048d40e f mfc42d:MFC42D.DLL
 0001:0008c414       ?Create@CFormView@@MAEHPBD0KABUtagRECT@@PAVCWnd@@IPAUCCreateContext@@@Z 0048d414 f mfc42d:MFC42D.DLL
 0001:0008c41a       ?OnCmdMsg@CView@@MAEHIHPAXPAUAFX_CMDHANDLERINFO@@@Z 0048d41a f mfc42d:MFC42D.DLL
 0001:0008c420       ??1CTreeCtrl@@UAE@XZ       0048d420 f mfc42d:MFC42D.DLL
 0001:0008c426       ??0CTreeCtrl@@QAE@XZ       0048d426 f mfc42d:MFC42D.DLL
 0001:0008c42c       ??0CFormView@@IAE@I@Z      0048d42c f mfc42d:MFC42D.DLL
 0001:0008c432       ??1CScrollView@@UAE@XZ     0048d432 f mfc42d:MFC42D.DLL
 0001:0008c438       ?DDX_Control@@YGXPAVCDataExchange@@HAAVCWnd@@@Z 0048d438 f mfc42d:MFC42D.DLL
 0001:0008c43e       ?messageMap@CFormView@@1UAFX_MSGMAP@@B 0048d43e f mfc42d:MFC42D.DLL
 0001:0008c444       ?AssertValid@CFormView@@UBEXXZ 0048d444 f mfc42d:MFC42D.DLL
 0001:0008c44a       ?Dump@CFormView@@UBEXAAVCDumpContext@@@Z 0048d44a f mfc42d:MFC42D.DLL
 0001:0008c450       ?OnCreate@CFormView@@IAEHPAUtagCREATESTRUCTA@@@Z 0048d450 f mfc42d:MFC42D.DLL
 0001:0008c456       ?Height@CRect@@QBEHXZ      0048d456 f mfc42d:MFC42D.DLL
 0001:0008c45c       ?Width@CRect@@QBEHXZ       0048d45c f mfc42d:MFC42D.DLL
 0001:0008c462       ?GetClientRect@CWnd@@QBEXPAUtagRECT@@@Z 0048d462 f mfc42d:MFC42D.DLL
 0001:0008c468       ??0CRect@@QAE@XZ           0048d468 f mfc42d:MFC42D.DLL
 0001:0008c46e       ?SelectItem@CTreeCtrl@@QAEHPAU_TREEITEM@@@Z 0048d46e f mfc42d:MFC42D.DLL
 0001:0008c474       ??ACMapPtrToPtr@@QAEAAPAXPAX@Z 0048d474 f mfc42d:MFC42D.DLL
 0001:0008c47a       ?Expand@CTreeCtrl@@QAEHPAU_TREEITEM@@I@Z 0048d47a f mfc42d:MFC42D.DLL
 0001:0008c480       ?GetRootItem@CTreeCtrl@@QBEPAU_TREEITEM@@XZ 0048d480 f mfc42d:MFC42D.DLL
 0001:0008c486       ?DeleteAllItems@CTreeCtrl@@QAEHXZ 0048d486 f mfc42d:MFC42D.DLL
 0001:0008c48c       ?SetImageList@CTreeCtrl@@QAEPAVCImageList@@PAV2@H@Z 0048d48c f mfc42d:MFC42D.DLL
 0001:0008c492       ?Attach@CImageList@@QAEHPAU_IMAGELIST@@@Z 0048d492 f mfc42d:MFC42D.DLL
 0001:0008c498       ??0CImageList@@QAE@XZ      0048d498 f mfc42d:MFC42D.DLL
 0001:0008c49e       ?SetWindowTextA@CWnd@@QAEXPBD@Z 0048d49e f mfc42d:MFC42D.DLL
 0001:0008c4a4       ?GetParent@CWnd@@QBEPAV1@XZ 0048d4a4 f mfc42d:MFC42D.DLL
 0001:0008c4aa       ?OnInitialUpdate@CFormView@@UAEXXZ 0048d4aa f mfc42d:MFC42D.DLL
 0001:0008c4b0       ?GetSafeHwnd@CWnd@@QBEPAUHWND__@@XZ 0048d4b0 f mfc42d:MFC42D.DLL
 0001:0008c4b6       ?GetDlgItem@CWnd@@QBEPAV1@H@Z 0048d4b6 f mfc42d:MFC42D.DLL
 0001:0008c4bc       ?OnSize@CScrollView@@QAEXIHH@Z 0048d4bc f mfc42d:MFC42D.DLL
 0001:0008c4c2       ?AfxTrace@@YAXPBDZZ        0048d4c2 f mfc42d:MFC42D.DLL
 0001:0008c4c8       ?InsertItem@CTreeCtrl@@QAEPAU_TREEITEM@@PAUtagTVINSERTSTRUCTA@@@Z 0048d4c8 f mfc42d:MFC42D.DLL
 0001:0008c4ce       ??2@YAPAXIPBDH@Z           0048d4ce f mfc42d:MFC42D.DLL
 0001:0008c4d4       ?GetNextSiblingItem@CTreeCtrl@@QBEPAU_TREEITEM@@PAU2@@Z 0048d4d4 f mfc42d:MFC42D.DLL
 0001:0008c4da       ?GetItem@CTreeCtrl@@QBEHPAUtagTVITEMA@@@Z 0048d4da f mfc42d:MFC42D.DLL
 0001:0008c4e0       ?GetChildItem@CTreeCtrl@@QBEPAU_TREEITEM@@PAU2@@Z 0048d4e0 f mfc42d:MFC42D.DLL
 0001:0008c4e6       ?DeleteItem@CTreeCtrl@@QAEHPAU_TREEITEM@@@Z 0048d4e6 f mfc42d:MFC42D.DLL
 0001:0008c4ec       ?GetParentItem@CTreeCtrl@@QBEPAU_TREEITEM@@PAU2@@Z 0048d4ec f mfc42d:MFC42D.DLL
 0001:0008c4f2       ?GetSelectedItem@CTreeCtrl@@QBEPAU_TREEITEM@@XZ 0048d4f2 f mfc42d:MFC42D.DLL
 0001:0008c4f8       ?HitTest@CTreeCtrl@@QBEPAU_TREEITEM@@VCPoint@@PAI@Z 0048d4f8 f mfc42d:MFC42D.DLL
 0001:0008c4fe       ?ScreenToClient@CWnd@@QBEXPAUtagPOINT@@@Z 0048d4fe f mfc42d:MFC42D.DLL
 0001:0008c504       ?SetItem@CTreeCtrl@@QAEHPAU_TREEITEM@@IPBDHHIIJ@Z 0048d504 f mfc42d:MFC42D.DLL
 0001:0008c50a       ?GetImageList@CTreeCtrl@@QBEPAVCImageList@@I@Z 0048d50a f mfc42d:MFC42D.DLL
 0001:0008c510       ?OnDestroy@CView@@IAEXXZ   0048d510 f mfc42d:MFC42D.DLL
 0001:0008c516       ?Invalidate@CWnd@@QAEXH@Z  0048d516 f mfc42d:MFC42D.DLL
 0001:0008c51c       ?RemoveKey@CMapPtrToPtr@@QAEHPAX@Z 0048d51c f mfc42d:MFC42D.DLL
 0001:0008c522       ?GetPathName@CFileDialog@@QBE?AVCString@@XZ 0048d522 f mfc42d:MFC42D.DLL
 0001:0008c528       ?DoModal@CFileDialog@@UAEHXZ 0048d528 f mfc42d:MFC42D.DLL
 0001:0008c52e       ??0CFileDialog@@QAE@HPBD0K0PAVCWnd@@@Z 0048d52e f mfc42d:MFC42D.DLL
 0001:0008c534       ?AfxIsValidAddress@@YGHPBXIH@Z 0048d534 f mfc42d:MFC42D.DLL
 0001:0008c53a       ?AfxAssertValidObject@@YGXPBVCObject@@PBDH@Z 0048d53a f mfc42d:MFC42D.DLL
 0001:0008c540       ?FreeDataChain@CPlex@@QAEXXZ 0048d540 f mfc42d:MFC42D.DLL
 0001:0008c546       ?DDX_Text@@YGXPAVCDataExchange@@HAAH@Z 0048d546 f mfc42d:MFC42D.DLL
 0001:0008c54c       ?EnableWindow@CWnd@@QAEHH@Z 0048d54c f mfc42d:MFC42D.DLL
 0001:0008c552       ?MessageBoxA@CWnd@@QAEHPBD0I@Z 0048d552 f mfc42d:MFC42D.DLL
 0001:0008c558       ?eventsinkMap@CCmdTarget@@1UAFX_EVENTSINKMAP@@B 0048d558 f mfc42d:MFC42D.DLL
 0001:0008c55e       ?GetTitle@CDocument@@QBEABVCString@@XZ 0048d55e f mfc42d:MFC42D.DLL
 0001:0008c564       ?GetDocument@CView@@QBEPAVCDocument@@XZ 0048d564 f mfc42d:MFC42D.DLL
 0001:0008c56a       ?ShowScrollBar@CWnd@@QAEXIH@Z 0048d56a f mfc42d:MFC42D.DLL
 0001:0008c570       ?InvalidateRect@CWnd@@QAEXPBUtagRECT@@H@Z 0048d570 f mfc42d:MFC42D.DLL
 0001:0008c576       ?SetWindowPos@CWnd@@QAEHPBV1@HHHHI@Z 0048d576 f mfc42d:MFC42D.DLL
 0001:0008c57c       ?wndTop@CWnd@@2V1@B        0048d57c f mfc42d:MFC42D.DLL
 0001:0008c582       ?GetBuffer@CString@@QAEPADH@Z 0048d582 f mfc42d:MFC42D.DLL
 0001:0008c588       ??0CString@@QAE@PBG@Z      0048d588 f mfc42d:MFC42D.DLL
 0001:0008c58e       ?classCPropertyPage@CPropertyPage@@2UCRuntimeClass@@B 0048d58e f mfc42d:MFC42D.DLL
 0001:0008c594       ?OnWizardFinish@CPropertyPage@@UAEHXZ 0048d594 f mfc42d:MFC42D.DLL
 0001:0008c59a       ?OnWizardNext@CPropertyPage@@UAEJXZ 0048d59a f mfc42d:MFC42D.DLL
 0001:0008c5a0       ?OnWizardBack@CPropertyPage@@UAEJXZ 0048d5a0 f mfc42d:MFC42D.DLL
 0001:0008c5a6       ?OnQueryCancel@CPropertyPage@@UAEHXZ 0048d5a6 f mfc42d:MFC42D.DLL
 0001:0008c5ac       ?OnKillActive@CPropertyPage@@UAEHXZ 0048d5ac f mfc42d:MFC42D.DLL
 0001:0008c5b2       ?OnSetActive@CPropertyPage@@UAEHXZ 0048d5b2 f mfc42d:MFC42D.DLL
 0001:0008c5b8       ?OnReset@CPropertyPage@@UAEXXZ 0048d5b8 f mfc42d:MFC42D.DLL
 0001:0008c5be       ?OnApply@CPropertyPage@@UAEHXZ 0048d5be f mfc42d:MFC42D.DLL
 0001:0008c5c4       ?OnCancel@CPropertyPage@@UAEXXZ 0048d5c4 f mfc42d:MFC42D.DLL
 0001:0008c5ca       ?OnOK@CPropertyPage@@UAEXXZ 0048d5ca f mfc42d:MFC42D.DLL
 0001:0008c5d0       ?PreTranslateMessage@CPropertyPage@@MAEHPAUtagMSG@@@Z 0048d5d0 f mfc42d:MFC42D.DLL
 0001:0008c5d6       ?OnNotify@CPropertyPage@@MAEHIJPAJ@Z 0048d5d6 f mfc42d:MFC42D.DLL
 0001:0008c5dc       ?Dump@CPropertyPage@@UBEXAAVCDumpContext@@@Z 0048d5dc f mfc42d:MFC42D.DLL
 0001:0008c5e2       ?AssertValid@CPropertyPage@@UBEXXZ 0048d5e2 f mfc42d:MFC42D.DLL
 0001:0008c5e8       ??1CPropertyPage@@UAE@XZ   0048d5e8 f mfc42d:MFC42D.DLL
 0001:0008c5ee       ??0CListBox@@QAE@XZ        0048d5ee f mfc42d:MFC42D.DLL
 0001:0008c5f4       ??0CPropertyPage@@QAE@II@Z 0048d5f4 f mfc42d:MFC42D.DLL
 0001:0008c5fa       ?DDX_LBString@@YGXPAVCDataExchange@@HAAVCString@@@Z 0048d5fa f mfc42d:MFC42D.DLL
 0001:0008c600       ?messageMap@CPropertyPage@@1UAFX_MSGMAP@@B 0048d600 f mfc42d:MFC42D.DLL
 0001:0008c606       ?AddString@CListBox@@QAEHPBD@Z 0048d606 f mfc42d:MFC42D.DLL
 0001:0008c60c       ?SetTabStops@CListBox@@QAEHHPAH@Z 0048d60c f mfc42d:MFC42D.DLL
 0001:0008c612       ?interfaceMap@CCmdTarget@@1UAFX_INTERFACEMAP@@B 0048d612 f mfc42d:MFC42D.DLL
 0001:0008c618       ?GetState@CButton@@QBEIXZ  0048d618 f mfc42d:MFC42D.DLL
 0001:0008c61e       ?GetText@CListBox@@QBEXHAAVCString@@@Z 0048d61e f mfc42d:MFC42D.DLL
 0001:0008c624       ?GetCurSel@CListBox@@QBEHXZ 0048d624 f mfc42d:MFC42D.DLL
 0001:0008c62a       ?SetDlgItemTextA@CWnd@@QAEXHPBD@Z 0048d62a f mfc42d:MFC42D.DLL
 0001:0008c630       ??0CString@@QAE@ABV0@@Z    0048d630 f mfc42d:MFC42D.DLL
 0001:0008c636       ?classCDialogBar@CDialogBar@@2UCRuntimeClass@@B 0048d636 f mfc42d:MFC42D.DLL
 0001:0008c63c       ?messageMap@CDialogBar@@1UAFX_MSGMAP@@B 0048d63c f mfc42d:MFC42D.DLL
 0001:0008c642       ?AssertValid@CControlBar@@UBEXXZ 0048d642 f mfc42d:MFC42D.DLL
 0001:0008c648       ?Dump@CControlBar@@UBEXAAVCDumpContext@@@Z 0048d648 f mfc42d:MFC42D.DLL
 0001:0008c64e       ?OnUpdateFrameMenu@CMDIChildWnd@@UAEXHPAVCWnd@@PAUHMENU__@@@Z 0048d64e f mfc42d:MFC42D.DLL
 0001:0008c654       ?Create@CMDIChildWnd@@UAEHPBD0KABUtagRECT@@PAVCMDIFrameWnd@@PAUCCreateContext@@@Z 0048d654 f mfc42d:MFC42D.DLL
 0001:0008c65a       ?ExitHelpMode@CFrameWnd@@UAEXXZ 0048d65a f mfc42d:MFC42D.DLL
 0001:0008c660       ?DelayUpdateFrameMenu@CFrameWnd@@UAEXPAUHMENU__@@@Z 0048d660 f mfc42d:MFC42D.DLL
 0001:0008c666       ?GetDefaultAccelerator@CFrameWnd@@UAEPAUHACCEL__@@XZ 0048d666 f mfc42d:MFC42D.DLL
 0001:0008c66c       ?OnUpdateFrameMenu@CFrameWnd@@UAEXPAUHMENU__@@@Z 0048d66c f mfc42d:MFC42D.DLL
 0001:0008c672       ?OnUpdateFrameTitle@CMDIChildWnd@@MAEXH@Z 0048d672 f mfc42d:MFC42D.DLL
 0001:0008c678       ?OnCreateClient@CFrameWnd@@MAEHPAUtagCREATESTRUCTA@@PAUCCreateContext@@@Z 0048d678 f mfc42d:MFC42D.DLL
 0001:0008c67e       ?NegotiateBorderSpace@CFrameWnd@@UAEHIPAUtagRECT@@@Z 0048d67e f mfc42d:MFC42D.DLL
 0001:0008c684       ?GetMessageBar@CMDIChildWnd@@MAEPAVCWnd@@XZ 0048d684 f mfc42d:MFC42D.DLL
 0001:0008c68a       ?OnSetPreviewMode@CFrameWnd@@UAEXHPAUCPrintPreviewState@@@Z 0048d68a f mfc42d:MFC42D.DLL
 0001:0008c690       ?ActivateFrame@CMDIChildWnd@@UAEXH@Z 0048d690 f mfc42d:MFC42D.DLL
 0001:0008c696       ?RecalcLayout@CFrameWnd@@UAEXH@Z 0048d696 f mfc42d:MFC42D.DLL
 0001:0008c69c       ?GetMessageString@CFrameWnd@@UBEXIAAVCString@@@Z 0048d69c f mfc42d:MFC42D.DLL
 0001:0008c6a2       ?GetActiveFrame@CFrameWnd@@UAEPAV1@XZ 0048d6a2 f mfc42d:MFC42D.DLL
 0001:0008c6a8       ?GetActiveDocument@CFrameWnd@@UAEPAVCDocument@@XZ 0048d6a8 f mfc42d:MFC42D.DLL
 0001:0008c6ae       ?IsFrameWnd@CFrameWnd@@UBEHXZ 0048d6ae f mfc42d:MFC42D.DLL
 0001:0008c6b4       ?PostNcDestroy@CFrameWnd@@MAEXXZ 0048d6b4 f mfc42d:MFC42D.DLL
 0001:0008c6ba       ?DefWindowProcA@CMDIChildWnd@@MAEJIIJ@Z 0048d6ba f mfc42d:MFC42D.DLL
 0001:0008c6c0       ?PreTranslateMessage@CMDIChildWnd@@UAEHPAUtagMSG@@@Z 0048d6c0 f mfc42d:MFC42D.DLL
 0001:0008c6c6       ?EndModalState@CFrameWnd@@UAEXXZ 0048d6c6 f mfc42d:MFC42D.DLL
 0001:0008c6cc       ?BeginModalState@CFrameWnd@@UAEXXZ 0048d6cc f mfc42d:MFC42D.DLL
 0001:0008c6d2       ?OnCommand@CFrameWnd@@MAEHIJ@Z 0048d6d2 f mfc42d:MFC42D.DLL
 0001:0008c6d8       ?DestroyWindow@CMDIChildWnd@@UAEHXZ 0048d6d8 f mfc42d:MFC42D.DLL
 0001:0008c6de       ?OnCmdMsg@CFrameWnd@@UAEHIHPAXPAUAFX_CMDHANDLERINFO@@@Z 0048d6de f mfc42d:MFC42D.DLL
 0001:0008c6e4       ?Dump@CMDIChildWnd@@UBEXAAVCDumpContext@@@Z 0048d6e4 f mfc42d:MFC42D.DLL
 0001:0008c6ea       ?AssertValid@CMDIChildWnd@@UBEXXZ 0048d6ea f mfc42d:MFC42D.DLL
 0001:0008c6f0       ??0CMDIChildWnd@@QAE@XZ    0048d6f0 f mfc42d:MFC42D.DLL
 0001:0008c6f6       ??1CFrameWnd@@UAE@XZ       0048d6f6 f mfc42d:MFC42D.DLL
 0001:0008c6fc       ?messageMap@CMDIChildWnd@@1UAFX_MSGMAP@@B 0048d6fc f mfc42d:MFC42D.DLL
 0001:0008c702       ?GetIconWndClass@CFrameWnd@@IAEPBDKI@Z 0048d702 f mfc42d:MFC42D.DLL
 0001:0008c708       ?rectDefault@CFrameWnd@@2VCRect@@B 0048d708 f mfc42d:MFC42D.DLL
 0001:0008c70e       ?AfxExtractSubString@@YGHAAVCString@@PBDHD@Z 0048d70e f mfc42d:MFC42D.DLL
 0001:0008c714       ?LoadStringA@CString@@QAEHI@Z 0048d714 f mfc42d:MFC42D.DLL
 0001:0008c71a       ?classCMultiDocTemplate@CMultiDocTemplate@@2UCRuntimeClass@@B 0048d71a f mfc42d:MFC42D.DLL
 0001:0008c720       ?classCMDIFrameWnd@CMDIFrameWnd@@2UCRuntimeClass@@B 0048d720 f mfc42d:MFC42D.DLL
 0001:0008c726       ?PreCreateWindow@CMDIChildWnd@@UAEHAAUtagCREATESTRUCTA@@@Z 0048d726 f mfc42d:MFC42D.DLL
 0001:0008c72c       ?GetItemData@CListBox@@QBEKH@Z 0048d72c f mfc42d:MFC42D.DLL
 0001:0008c732       ?SetItemData@CListBox@@QAEHHK@Z 0048d732 f mfc42d:MFC42D.DLL
 0001:0008c738       ?RemoveTail@CObList@@QAEPAVCObject@@XZ 0048d738 f mfc42d:MFC42D.DLL
 0001:0008c73e       ?GetCount@CObList@@QBEHXZ  0048d73e f mfc42d:MFC42D.DLL
 0001:0008c744       ?PostMessageA@CWnd@@QAEHIIJ@Z 0048d744 f mfc42d:MFC42D.DLL
 0001:0008c74a       ?GetRuntimeClass@CWnd@@UBEPAUCRuntimeClass@@XZ 0048d74a f mfc42d:MFC42D.DLL
 0001:0008c750       ?messageMap@CWnd@@1UAFX_MSGMAP@@B 0048d750 f mfc42d:MFC42D.DLL
 0001:0008c756       ?CreateEx@CWnd@@QAEHKPBD0KHHHHPAUHWND__@@PAUHMENU__@@PAX@Z 0048d756 f mfc42d:MFC42D.DLL
 0001:0008c75c       ?AfxRegisterWndClass@@YGPBDIPAUHICON__@@PAUHBRUSH__@@0@Z 0048d75c f mfc42d:MFC42D.DLL
 0001:0008c762       ?LoadStandardCursor@CWinApp@@QBEPAUHICON__@@PBD@Z 0048d762 f mfc42d:MFC42D.DLL
 0001:0008c768       ?GetBitmap@CBitmap@@QAEHPAUtagBITMAP@@@Z 0048d768 f mfc42d:MFC42D.DLL
 0001:0008c76e       ?AfxGetMainWnd@@YGPAVCWnd@@XZ 0048d76e f mfc42d:MFC42D.DLL
 0001:0008c774       ?SetTimer@CWnd@@QAEIIIP6GXPAUHWND__@@IIK@Z@Z 0048d774 f mfc42d:MFC42D.DLL
 0001:0008c77a       ?CenterWindow@CWnd@@QAEXPAV1@@Z 0048d77a f mfc42d:MFC42D.DLL
 0001:0008c780       ?OnCreate@CWnd@@IAEHPAUtagCREATESTRUCTA@@@Z 0048d780 f mfc42d:MFC42D.DLL
 0001:0008c786       ?BitBlt@CDC@@QAEHHHHHPAV1@HHK@Z 0048d786 f mfc42d:MFC42D.DLL
 0001:0008c78c       ?SetStatusText@CControlBar@@UAEHH@Z 0048d78c f mfc42d:MFC42D.DLL
 0001:0008c792       ?DoPaint@CControlBar@@UAEXPAVCDC@@@Z 0048d792 f mfc42d:MFC42D.DLL
 0001:0008c798       ?OnBarStyleChange@CControlBar@@UAEXKK@Z 0048d798 f mfc42d:MFC42D.DLL
 0001:0008c79e       ?IsDockBar@CControlBar@@UBEHXZ 0048d79e f mfc42d:MFC42D.DLL
 0001:0008c7a4       ?RecalcDelayShow@CControlBar@@UAEKPAUAFX_SIZEPARENTPARAMS@@@Z 0048d7a4 f mfc42d:MFC42D.DLL
 0001:0008c7aa       ?IsVisible@CControlBar@@UBEHXZ 0048d7aa f mfc42d:MFC42D.DLL
 0001:0008c7b0       ?DelayShow@CControlBar@@UAEXH@Z 0048d7b0 f mfc42d:MFC42D.DLL
 0001:0008c7b6       ?OnUpdateCmdUI@CDialogBar@@UAEXPAVCFrameWnd@@H@Z 0048d7b6 f mfc42d:MFC42D.DLL
 0001:0008c7bc       ?CalcDynamicLayout@CControlBar@@UAE?AVCSize@@HK@Z 0048d7bc f mfc42d:MFC42D.DLL
 0001:0008c7c2       ?CalcFixedLayout@CDialogBar@@UAE?AVCSize@@HH@Z 0048d7c2 f mfc42d:MFC42D.DLL
 0001:0008c7c8       ?SetOccDialogInfo@CDialogBar@@MAEHPAU_AFX_OCC_DIALOG_INFO@@@Z 0048d7c8 f mfc42d:MFC42D.DLL
 0001:0008c7ce       ?PostNcDestroy@CControlBar@@UAEXXZ 0048d7ce f mfc42d:MFC42D.DLL
 0001:0008c7d4       ?WindowProc@CControlBar@@UAEJIIJ@Z 0048d7d4 f mfc42d:MFC42D.DLL
 0001:0008c7da       ?PreTranslateMessage@CControlBar@@UAEHPAUtagMSG@@@Z 0048d7da f mfc42d:MFC42D.DLL
 0001:0008c7e0       ?PreCreateWindow@CControlBar@@UAEHAAUtagCREATESTRUCTA@@@Z 0048d7e0 f mfc42d:MFC42D.DLL
 0001:0008c7e6       ?DestroyWindow@CControlBar@@UAEHXZ 0048d7e6 f mfc42d:MFC42D.DLL
 0001:0008c7ec       ?GetRuntimeClass@CDialogBar@@UBEPAUCRuntimeClass@@XZ 0048d7ec f mfc42d:MFC42D.DLL
 0001:0008c7f2       ??1CDialogBar@@UAE@XZ      0048d7f2 f mfc42d:MFC42D.DLL
 0001:0008c7f8       ??0CDialogBar@@QAE@XZ      0048d7f8 f mfc42d:MFC42D.DLL
 0001:0008c7fe       ?BringWindowToTop@CWnd@@QAEXXZ 0048d7fe f mfc42d:MFC42D.DLL
 0001:0008c804       ?OnSize@CWnd@@IAEXIHH@Z    0048d804 f mfc42d:MFC42D.DLL
 0001:0008c80a       ?GetFocus@CWnd@@SGPAV1@XZ  0048d80a f mfc42d:MFC42D.DLL
 0001:0008c810       ?SetCurSel@CTabCtrl@@QAEHH@Z 0048d810 f mfc42d:MFC42D.DLL
 0001:0008c816       ?InsertItem@CTabCtrl@@QAEHHPAUtagTCITEMA@@@Z 0048d816 f mfc42d:MFC42D.DLL
 0001:0008c81c       ?Create@CDialogBar@@QAEHPAVCWnd@@III@Z 0048d81c f mfc42d:MFC42D.DLL
 0001:0008c822       ?EndWaitCursor@CCmdTarget@@QAEXXZ 0048d822 f mfc42d:MFC42D.DLL
 0001:0008c828       ?BeginWaitCursor@CCmdTarget@@QAEXXZ 0048d828 f mfc42d:MFC42D.DLL
 0001:0008c82e       ?Dump@CMenu@@UBEXAAVCDumpContext@@@Z 0048d82e f mfc42d:MFC42D.DLL
 0001:0008c834       ?AssertValid@CMenu@@UBEXXZ 0048d834 f mfc42d:MFC42D.DLL
 0001:0008c83a       ?GetRuntimeClass@CMenu@@UBEPAUCRuntimeClass@@XZ 0048d83a f mfc42d:MFC42D.DLL
 0001:0008c840       ?CreateMenu@CMenu@@QAEHXZ  0048d840 f mfc42d:MFC42D.DLL
 0001:0008c846       ?Detach@CMenu@@QAEPAUHMENU__@@XZ 0048d846 f mfc42d:MFC42D.DLL
 0001:0008c84c       ??1CBrush@@UAE@XZ          0048d84c f mfc42d:MFC42D.DLL
 0001:0008c852       ?FrameRect@CDC@@QAEXPBUtagRECT@@PAVCBrush@@@Z 0048d852 f mfc42d:MFC42D.DLL
 0001:0008c858       ??0CBrush@@QAE@K@Z         0048d858 f mfc42d:MFC42D.DLL
 0001:0008c85e       ?FillRect@CDC@@QAEXPBUtagRECT@@PAVCBrush@@@Z 0048d85e f mfc42d:MFC42D.DLL
 0001:0008c864       ?FromHandle@CDC@@SGPAV1@PAUHDC__@@@Z 0048d864 f mfc42d:MFC42D.DLL
 0001:0008c86a       ?AppendMenuA@CMenu@@QAEHIIPBD@Z 0048d86a f mfc42d:MFC42D.DLL
 0001:0008c870       ?CreatePalette@CPalette@@QAEHPAUtagLOGPALETTE@@@Z 0048d870 f mfc42d:MFC42D.DLL
 0001:0008c876       ??0CPalette@@QAE@XZ        0048d876 f mfc42d:MFC42D.DLL
 0001:0008c87c       ?DDX_Check@@YGXPAVCDataExchange@@HAAH@Z 0048d87c f mfc42d:MFC42D.DLL
 0001:0008c882       ?GetRuntimeClass@CObject@@UBEPAUCRuntimeClass@@XZ 0048d882 f mfc42d:MFC42D.DLL
 0001:0008c888       ??1CObject@@UAE@XZ         0048d888 f mfc42d:MFC42D.DLL
 0001:0008c88e       ??0CObject@@IAE@XZ         0048d88e f mfc42d:MFC42D.DLL
 0001:0008c894       ?ReadCount@CArchive@@QAEKXZ 0048d894 f mfc42d:MFC42D.DLL
 0001:0008c89a       ?WriteCount@CArchive@@QAEXK@Z 0048d89a f mfc42d:MFC42D.DLL
 0001:0008c8a0       ??6CDumpContext@@QAEAAV0@PBD@Z 0048d8a0 f mfc42d:MFC42D.DLL
 0001:0008c8a6       ?GetDepth@CDumpContext@@QBEHXZ 0048d8a6 f mfc42d:MFC42D.DLL
 0001:0008c8ac       ??6CDumpContext@@QAEAAV0@H@Z 0048d8ac f mfc42d:MFC42D.DLL
 0001:0008c8b2       ?Dump@CObject@@UBEXAAVCDumpContext@@@Z 0048d8b2 f mfc42d:MFC42D.DLL
 0001:0008c8b8       ?AssertValid@CObject@@UBEXXZ 0048d8b8 f mfc42d:MFC42D.DLL
 0001:0008c8be       ?Read@CArchive@@QAEIPAXI@Z 0048d8be f mfc42d:MFC42D.DLL
 0001:0008c8c4       ?Write@CArchive@@QAEXPBXI@Z 0048d8c4 f mfc42d:MFC42D.DLL
 0001:0008c8ca       ?Create@CPlex@@SGPAU1@AAPAU1@II@Z 0048d8ca f mfc42d:MFC42D.DLL
 0001:0008c8d0       ??1CStringList@@UAE@XZ     0048d8d0 f mfc42d:MFC42D.DLL
 0001:0008c8d6       ??0CStringList@@QAE@H@Z    0048d8d6 f mfc42d:MFC42D.DLL
 0001:0008c8dc       ?GetText@CListBox@@QBEHHPAD@Z 0048d8dc f mfc42d:MFC42D.DLL
 0001:0008c8e2       ?GetSelItems@CListBox@@QBEHHPAH@Z 0048d8e2 f mfc42d:MFC42D.DLL
 0001:0008c8e8       ??1CComboBox@@UAE@XZ       0048d8e8 f mfc42d:MFC42D.DLL
 0001:0008c8ee       ??0CComboBox@@QAE@XZ       0048d8ee f mfc42d:MFC42D.DLL
 0001:0008c8f4       ?DDX_CBString@@YGXPAVCDataExchange@@HAAVCString@@@Z 0048d8f4 f mfc42d:MFC42D.DLL
 0001:0008c8fa       ?AddString@CComboBox@@QAEHPBD@Z 0048d8fa f mfc42d:MFC42D.DLL
 0001:0008c900       ?GetCount@CListBox@@QBEHXZ 0048d900 f mfc42d:MFC42D.DLL
 0001:0008c906       ?DDX_CBIndex@@YGXPAVCDataExchange@@HAAH@Z 0048d906 f mfc42d:MFC42D.DLL
 0001:0008c90c       ?SetCurSel@CComboBox@@QAEHH@Z 0048d90c f mfc42d:MFC42D.DLL
 0001:0008c912       ?classCView@CView@@2UCRuntimeClass@@B 0048d912 f mfc42d:MFC42D.DLL
 0001:0008c918       ?OnActivateFrame@CView@@MAEXIPAVCFrameWnd@@@Z 0048d918 f mfc42d:MFC42D.DLL
 0001:0008c91e       ?OnPrepareDC@CView@@UAEXPAVCDC@@PAUCPrintInfo@@@Z 0048d91e f mfc42d:MFC42D.DLL
 0001:0008c924       ?CalcWindowRect@CView@@UAEXPAUtagRECT@@I@Z 0048d924 f mfc42d:MFC42D.DLL
 0001:0008c92a       ??1CView@@UAE@XZ           0048d92a f mfc42d:MFC42D.DLL
 0001:0008c930       ??0CView@@IAE@XZ           0048d930 f mfc42d:MFC42D.DLL
 0001:0008c936       ?messageMap@CView@@1UAFX_MSGMAP@@B 0048d936 f mfc42d:MFC42D.DLL
 0001:0008c93c       ?SelectPalette@CDC@@QAEPAVCPalette@@PAV2@H@Z 0048d93c f mfc42d:MFC42D.DLL
 0001:0008c942       ?GetSafeHdc@CDC@@QBEPAUHDC__@@XZ 0048d942 f mfc42d:MFC42D.DLL
 0001:0008c948       ?SelectObject@CDC@@QAEPAVCBrush@@PAV2@@Z 0048d948 f mfc42d:MFC42D.DLL
 0001:0008c94e       ?CreateHatchBrush@CBrush@@QAEHHK@Z 0048d94e f mfc42d:MFC42D.DLL
 0001:0008c954       ??0CBrush@@QAE@XZ          0048d954 f mfc42d:MFC42D.DLL
 0001:0008c95a       ?RealizePalette@CDC@@QAEIXZ 0048d95a f mfc42d:MFC42D.DLL
 0001:0008c960       ?AssertValid@CView@@UBEXXZ 0048d960 f mfc42d:MFC42D.DLL
 0001:0008c966       ?Dump@CView@@UBEXAAVCDumpContext@@@Z 0048d966 f mfc42d:MFC42D.DLL
 0001:0008c96c       ?OnLButtonUp@CWnd@@IAEXIVCPoint@@@Z 0048d96c f mfc42d:MFC42D.DLL
 0001:0008c972       ?OnVScroll@CWnd@@IAEXIIPAVCScrollBar@@@Z 0048d972 f mfc42d:MFC42D.DLL
 0001:0008c978       ??0CPoint@@QAE@HH@Z        0048d978 f mfc42d:MFC42D.DLL
 0001:0008c97e       ?OnHScroll@CWnd@@IAEXIIPAVCScrollBar@@@Z 0048d97e f mfc42d:MFC42D.DLL
 0001:0008c984       ?OnScroll@CView@@UAEHIIH@Z 0048d984 f mfc42d:MFC42D.DLL
 0001:0008c98a       ?OnScrollBy@CView@@UAEHVCSize@@H@Z 0048d98a f mfc42d:MFC42D.DLL
 0001:0008c990       ?MakeLower@CString@@QAEXXZ 0048d990 f mfc42d:MFC42D.DLL
 0001:0008c996       ??0CString@@QAE@PBD@Z      0048d996 f mfc42d:MFC42D.DLL
 0001:0008c99c       ?OnInitialUpdate@CView@@UAEXXZ 0048d99c f mfc42d:MFC42D.DLL
 0001:0008c9a2       ?SetScrollRange@CWnd@@QAEXHHHH@Z 0048d9a2 f mfc42d:MFC42D.DLL
 0001:0008c9a8       ?SetPaneText@CStatusBar@@QAEHHPBDH@Z 0048d9a8 f mfc42d:MFC42D.DLL
 0001:0008c9ae       ?SetPaneInfo@CStatusBar@@QAEXHIIH@Z 0048d9ae f mfc42d:MFC42D.DLL
 0001:0008c9b4       ?SetIndicators@CStatusBar@@QAEHPBIH@Z 0048d9b4 f mfc42d:MFC42D.DLL
 0001:0008c9ba       ?Create@CStatusBar@@QAEHPAVCWnd@@KI@Z 0048d9ba f mfc42d:MFC42D.DLL
 0001:0008c9c0       ??0CStatusBar@@QAE@XZ      0048d9c0 f mfc42d:MFC42D.DLL
 0001:0008c9c6       ?OnCreate@CView@@IAEHPAUtagCREATESTRUCTA@@@Z 0048d9c6 f mfc42d:MFC42D.DLL
 0001:0008c9cc       ?ReleaseDC@CWnd@@QAEHPAVCDC@@@Z 0048d9cc f mfc42d:MFC42D.DLL
 0001:0008c9d2       ?Rectangle@CDC@@QAEHHHHH@Z 0048d9d2 f mfc42d:MFC42D.DLL
 0001:0008c9d8       ??BCRect@@QAEPAUtagRECT@@XZ 0048d9d8 f mfc42d:MFC42D.DLL
 0001:0008c9de       ?SetRect@CRect@@QAEXHHHH@Z 0048d9de f mfc42d:MFC42D.DLL
 0001:0008c9e4       ??0CRect@@QAE@HHHH@Z       0048d9e4 f mfc42d:MFC42D.DLL
 0001:0008c9ea       ?CreateSolidBrush@CBrush@@QAEHK@Z 0048d9ea f mfc42d:MFC42D.DLL
 0001:0008c9f0       ?GetDC@CWnd@@QAEPAVCDC@@XZ 0048d9f0 f mfc42d:MFC42D.DLL
 0001:0008c9f6       ?SetScrollPos@CWnd@@QAEHHHH@Z 0048d9f6 f mfc42d:MFC42D.DLL
 0001:0008c9fc       ?OnRButtonUp@CWnd@@IAEXIVCPoint@@@Z 0048d9fc f mfc42d:MFC42D.DLL
 0001:0008ca02       ?OnMouseMove@CWnd@@IAEXIVCPoint@@@Z 0048da02 f mfc42d:MFC42D.DLL
 0001:0008ca08       ??0CRect@@QAE@ABUtagRECT@@@Z 0048da08 f mfc42d:MFC42D.DLL
 0001:0008ca0e       ?GetScrollPos@CWnd@@QBEHH@Z 0048da0e f mfc42d:MFC42D.DLL
 0001:0008ca14       ??0CRect@@QAE@PBUtagRECT@@@Z 0048da14 f mfc42d:MFC42D.DLL
 0001:0008ca1a       ?OnTimer@CWnd@@IAEXI@Z     0048da1a f mfc42d:MFC42D.DLL
 0001:0008ca20       ?Rectangle@CDC@@QAEHPBUtagRECT@@@Z 0048da20 f mfc42d:MFC42D.DLL
 0001:0008ca26       ?TopLeft@CRect@@QAEAAVCPoint@@XZ 0048da26 f mfc42d:MFC42D.DLL
 0001:0008ca2c       ?OnLButtonDblClk@CWnd@@IAEXIVCPoint@@@Z 0048da2c f mfc42d:MFC42D.DLL
 0001:0008ca32       ?GetWindowRect@CWnd@@QBEXPAUtagRECT@@@Z 0048da32 f mfc42d:MFC42D.DLL
 0001:0008ca38       ??1CSliderCtrl@@UAE@XZ     0048da38 f mfc42d:MFC42D.DLL
 0001:0008ca3e       ?Dump@CGdiObject@@UBEXAAVCDumpContext@@@Z 0048da3e f mfc42d:MFC42D.DLL
 0001:0008ca44       ?AssertValid@CGdiObject@@UBEXXZ 0048da44 f mfc42d:MFC42D.DLL
 0001:0008ca4a       ?GetRuntimeClass@CPalette@@UBEPAUCRuntimeClass@@XZ 0048da4a f mfc42d:MFC42D.DLL
 0001:0008ca50       ??1CPalette@@UAE@XZ        0048da50 f mfc42d:MFC42D.DLL
 0001:0008ca56       ?SetPaletteEntries@CPalette@@QAEIIIPAUtagPALETTEENTRY@@@Z 0048da56 f mfc42d:MFC42D.DLL
 0001:0008ca5c       ?ResizePalette@CPalette@@QAEHI@Z 0048da5c f mfc42d:MFC42D.DLL
 0001:0008ca62       ?DDX_Text@@YGXPAVCDataExchange@@HAAVCString@@@Z 0048da62 f mfc42d:MFC42D.DLL
 0001:0008ca68       ?OnTypeChange@CFileDialog@@MAEXXZ 0048da68 f mfc42d:MFC42D.DLL
 0001:0008ca6e       ?OnFolderChange@CFileDialog@@MAEXXZ 0048da6e f mfc42d:MFC42D.DLL
 0001:0008ca74       ?OnFileNameChange@CFileDialog@@MAEXXZ 0048da74 f mfc42d:MFC42D.DLL
 0001:0008ca7a       ?OnInitDone@CFileDialog@@MAEXXZ 0048da7a f mfc42d:MFC42D.DLL
 0001:0008ca80       ?OnLBSelChangedNotify@CFileDialog@@MAEXIII@Z 0048da80 f mfc42d:MFC42D.DLL
 0001:0008ca86       ?OnFileNameOK@CFileDialog@@MAEHXZ 0048da86 f mfc42d:MFC42D.DLL
 0001:0008ca8c       ?OnShareViolation@CFileDialog@@MAEIPBD@Z 0048da8c f mfc42d:MFC42D.DLL
 0001:0008ca92       ?OnCancel@CCommonDialog@@MAEXXZ 0048da92 f mfc42d:MFC42D.DLL
 0001:0008ca98       ?OnOK@CCommonDialog@@MAEXXZ 0048da98 f mfc42d:MFC42D.DLL
 0001:0008ca9e       ?OnNotify@CFileDialog@@MAEHIJPAJ@Z 0048da9e f mfc42d:MFC42D.DLL
 0001:0008caa4       ?GetMessageMap@CCommonDialog@@MBEPBUAFX_MSGMAP@@XZ 0048daa4 f mfc42d:MFC42D.DLL
 0001:0008caaa       ?Dump@CFileDialog@@UBEXAAVCDumpContext@@@Z 0048daaa f mfc42d:MFC42D.DLL
 0001:0008cab0       ?GetRuntimeClass@CFileDialog@@UBEPAUCRuntimeClass@@XZ 0048dab0 f mfc42d:MFC42D.DLL
 0001:0008cab6       ??YCString@@QAEABV0@ABV0@@Z 0048dab6 f mfc42d:MFC42D.DLL
 0001:0008cabc       ??YCString@@QAEABV0@PBD@Z  0048dabc f mfc42d:MFC42D.DLL
 0001:0008cac2       ??1CButton@@UAE@XZ         0048dac2 f mfc42d:MFC42D.DLL
 0001:0008cac8       ??0CButton@@QAE@XZ         0048dac8 f mfc42d:MFC42D.DLL
 0001:0008cace       ?SetButtonStyle@CButton@@QAEXIH@Z 0048dace f mfc42d:MFC42D.DLL
 0001:0008cad4       ?GetButtonStyle@CButton@@QBEIXZ 0048dad4 f mfc42d:MFC42D.DLL
 0001:0008cada       ?SetItemText@CTreeCtrl@@QAEHPAU_TREEITEM@@PBD@Z 0048dada f mfc42d:MFC42D.DLL
 0001:0008cae0       ?SetFocus@CWnd@@QAEPAV1@XZ 0048dae0 f mfc42d:MFC42D.DLL
 0001:0008cae6       ?SetActiveWindow@CWnd@@QAEPAV1@XZ 0048dae6 f mfc42d:MFC42D.DLL
 0001:0008caec       ?Create@CPropertySheet@@QAEHPAVCWnd@@KK@Z 0048daec f mfc42d:MFC42D.DLL
 0001:0008caf2       ?AddPage@CPropertySheet@@QAEXPAVCPropertyPage@@@Z 0048daf2 f mfc42d:MFC42D.DLL
 0001:0008caf8       ??0CPropertySheet@@QAE@PBDPAVCWnd@@I@Z 0048daf8 f mfc42d:MFC42D.DLL
 0001:0008cafe       ?OnClose@CWnd@@IAEXXZ      0048dafe f mfc42d:MFC42D.DLL
 0001:0008cb04       ?OnDestroy@CWnd@@IAEXXZ    0048db04 f mfc42d:MFC42D.DLL
 0001:0008cb0a       ?OnContextHelp@CFrameWnd@@QAEXXZ 0048db0a f mfc42d:MFC42D.DLL
 0001:0008cb10       ?OnHelp@CFrameWnd@@IAEXXZ  0048db10 f mfc42d:MFC42D.DLL
 0001:0008cb16       ?OnHelpUsing@CWnd@@QAEXXZ  0048db16 f mfc42d:MFC42D.DLL
 0001:0008cb1c       ?OnHelpIndex@CWnd@@QAEXXZ  0048db1c f mfc42d:MFC42D.DLL
 0001:0008cb22       ?messageMap@CMDIFrameWnd@@1UAFX_MSGMAP@@B 0048db22 f mfc42d:MFC42D.DLL
 0001:0008cb28       ?GetWindowMenuPopup@CMDIFrameWnd@@UAEPAUHMENU__@@PAU2@@Z 0048db28 f mfc42d:MFC42D.DLL
 0001:0008cb2e       ?DelayUpdateFrameMenu@CMDIFrameWnd@@UAEXPAUHMENU__@@@Z 0048db2e f mfc42d:MFC42D.DLL
 0001:0008cb34       ?OnUpdateFrameMenu@CMDIFrameWnd@@UAEXPAUHMENU__@@@Z 0048db34 f mfc42d:MFC42D.DLL
 0001:0008cb3a       ?OnUpdateFrameTitle@CMDIFrameWnd@@UAEXH@Z 0048db3a f mfc42d:MFC42D.DLL
 0001:0008cb40       ?OnCreateClient@CMDIFrameWnd@@UAEHPAUtagCREATESTRUCTA@@PAUCCreateContext@@@Z 0048db40 f mfc42d:MFC42D.DLL
 0001:0008cb46       ?GetMessageBar@CFrameWnd@@UAEPAVCWnd@@XZ 0048db46 f mfc42d:MFC42D.DLL
 0001:0008cb4c       ?ActivateFrame@CFrameWnd@@UAEXH@Z 0048db4c f mfc42d:MFC42D.DLL
 0001:0008cb52       ?GetActiveFrame@CMDIFrameWnd@@UAEPAVCFrameWnd@@XZ 0048db52 f mfc42d:MFC42D.DLL
 0001:0008cb58       ?LoadFrame@CMDIFrameWnd@@UAEHIKPAVCWnd@@PAUCCreateContext@@@Z 0048db58 f mfc42d:MFC42D.DLL
 0001:0008cb5e       ?DefWindowProcA@CMDIFrameWnd@@MAEJIIJ@Z 0048db5e f mfc42d:MFC42D.DLL
 0001:0008cb64       ?PreTranslateMessage@CMDIFrameWnd@@UAEHPAUtagMSG@@@Z 0048db64 f mfc42d:MFC42D.DLL
 0001:0008cb6a       ?OnCommand@CMDIFrameWnd@@MAEHIJ@Z 0048db6a f mfc42d:MFC42D.DLL
 0001:0008cb70       ?PreCreateWindow@CMDIFrameWnd@@UAEHAAUtagCREATESTRUCTA@@@Z 0048db70 f mfc42d:MFC42D.DLL
 0001:0008cb76       ?OnCmdMsg@CMDIFrameWnd@@UAEHIHPAXPAUAFX_CMDHANDLERINFO@@@Z 0048db76 f mfc42d:MFC42D.DLL
 0001:0008cb7c       ??1CMapPtrToPtr@@UAE@XZ    0048db7c f mfc42d:MFC42D.DLL
 0001:0008cb82       ??1CStatusBar@@UAE@XZ      0048db82 f mfc42d:MFC42D.DLL
 0001:0008cb88       ??1CToolBar@@UAE@XZ        0048db88 f mfc42d:MFC42D.DLL
 0001:0008cb8e       ??0CToolBar@@QAE@XZ        0048db8e f mfc42d:MFC42D.DLL
 0001:0008cb94       ??0CMapPtrToPtr@@QAE@H@Z   0048db94 f mfc42d:MFC42D.DLL
 0001:0008cb9a       ??0CMDIFrameWnd@@QAE@XZ    0048db9a f mfc42d:MFC42D.DLL
 0001:0008cba0       ?EnableDocking@CControlBar@@QAEXK@Z 0048dba0 f mfc42d:MFC42D.DLL
 0001:0008cba6       ?SetBarStyle@CControlBar@@QAEXK@Z 0048dba6 f mfc42d:MFC42D.DLL
 0001:0008cbac       ?GetBarStyle@CControlBar@@QAEKXZ 0048dbac f mfc42d:MFC42D.DLL
 0001:0008cbb2       ?LoadToolBar@CToolBar@@QAEHI@Z 0048dbb2 f mfc42d:MFC42D.DLL
 0001:0008cbb8       ?Create@CToolBar@@QAEHPAVCWnd@@KI@Z 0048dbb8 f mfc42d:MFC42D.DLL
 0001:0008cbbe       ?DockControlBar@CFrameWnd@@QAEXPAVCControlBar@@IPBUtagRECT@@@Z 0048dbbe f mfc42d:MFC42D.DLL
 0001:0008cbc4       ?EnableDocking@CFrameWnd@@QAEXK@Z 0048dbc4 f mfc42d:MFC42D.DLL
 0001:0008cbca       ?OnCreate@CFrameWnd@@IAEHPAUtagCREATESTRUCTA@@@Z 0048dbca f mfc42d:MFC42D.DLL
 0001:0008cbd0       ?OffsetRect@CRect@@QAEXHH@Z 0048dbd0 f mfc42d:MFC42D.DLL
 0001:0008cbd6       ?RemoveAll@CObList@@QAEXXZ 0048dbd6 f mfc42d:MFC42D.DLL
 0001:0008cbdc       ?MDIGetActive@CMDIFrameWnd@@QBEPAVCMDIChildWnd@@PAH@Z 0048dbdc f mfc42d:MFC42D.DLL
 0001:0008cbe2       ??8@YGHABVCString@@0@Z     0048dbe2 f mfc42d:MFC42D.DLL
 0001:0008cbe8       ?GetDocTemplate@CDocument@@QBEPAVCDocTemplate@@XZ 0048dbe8 f mfc42d:MFC42D.DLL
 0001:0008cbee       ?Dump@CMDIFrameWnd@@UBEXAAVCDumpContext@@@Z 0048dbee f mfc42d:MFC42D.DLL
 0001:0008cbf4       ?SendMessageToDescendants@CWnd@@QAEXIIJHH@Z 0048dbf4 f mfc42d:MFC42D.DLL
 0001:0008cbfa       ?OnPaletteChanged@CFrameWnd@@IAEXPAVCWnd@@@Z 0048dbfa f mfc42d:MFC42D.DLL
 0001:0008cc00       ?GetActiveView@CFrameWnd@@QBEPAVCView@@XZ 0048dc00 f mfc42d:MFC42D.DLL
 0001:0008cc06       ?OnSetCursor@CFrameWnd@@IAEHPAVCWnd@@II@Z 0048dc06 f mfc42d:MFC42D.DLL
 0001:0008cc0c       ?OnSize@CMDIFrameWnd@@IAEXIHH@Z 0048dc0c f mfc42d:MFC42D.DLL
 0001:0008cc12       ?KillTimer@CWnd@@QAEHH@Z   0048dc12 f mfc42d:MFC42D.DLL
 0001:0008cc18       ?GetWindowDC@CWnd@@QAEPAVCDC@@XZ 0048dc18 f mfc42d:MFC42D.DLL
 0001:0008cc1e       ?OnEraseBkgnd@CFrameWnd@@IAEHPAVCDC@@@Z 0048dc1e f mfc42d:MFC42D.DLL
 0001:0008cc24       ?GetTextMetricsA@CDC@@QBEHPAUtagTEXTMETRICA@@@Z 0048dc24 f mfc42d:MFC42D.DLL
 0001:0008cc2a       ?wndTopMost@CWnd@@2V1@B    0048dc2a f mfc42d:MFC42D.DLL
 0001:0008cc30       ?Create@CDialog@@QAEHIPAVCWnd@@@Z 0048dc30 f mfc42d:MFC42D.DLL
 0001:0008cc36       ?SubclassWindow@CWnd@@QAEHPAUHWND__@@@Z 0048dc36 f mfc42d:MFC42D.DLL
 0001:0008cc3c       ?CreateClient@CMDIFrameWnd@@UAEHPAUtagCREATESTRUCTA@@PAVCMenu@@@Z 0048dc3c f mfc42d:MFC42D.DLL
 0001:0008cc42       ?OnClose@CFrameWnd@@IAEXXZ 0048dc42 f mfc42d:MFC42D.DLL
 0001:0008cc48       ??BCWnd@@QBEPAUHWND__@@XZ  0048dc48 f mfc42d:MFC42D.DLL
 0001:0008cc4e       ?SetAt@CMapPtrToPtr@@QAEXPAX0@Z 0048dc4e f mfc42d:MFC42D.DLL
 0001:0008cc54       ?GetFileName@CFileDialog@@QBE?AVCString@@XZ 0048dc54 f mfc42d:MFC42D.DLL
 0001:0008cc5a       ?classCPropertySheet@CPropertySheet@@2UCRuntimeClass@@B 0048dc5a f mfc42d:MFC42D.DLL
 0001:0008cc60       ?OnInitDialog@CPropertySheet@@UAEHXZ 0048dc60 f mfc42d:MFC42D.DLL
 0001:0008cc66       ?BuildPropPageArray@CPropertySheet@@UAEXXZ 0048dc66 f mfc42d:MFC42D.DLL
 0001:0008cc6c       ?DoModal@CPropertySheet@@UAEHXZ 0048dc6c f mfc42d:MFC42D.DLL
 0001:0008cc72       ?PreTranslateMessage@CPropertySheet@@UAEHPAUtagMSG@@@Z 0048dc72 f mfc42d:MFC42D.DLL
 0001:0008cc78       ?OnCommand@CPropertySheet@@UAEHIJ@Z 0048dc78 f mfc42d:MFC42D.DLL
 0001:0008cc7e       ?ContinueModal@CPropertySheet@@UAEHXZ 0048dc7e f mfc42d:MFC42D.DLL
 0001:0008cc84       ?OnCmdMsg@CPropertySheet@@UAEHIHPAXPAUAFX_CMDHANDLERINFO@@@Z 0048dc84 f mfc42d:MFC42D.DLL
 0001:0008cc8a       ?Dump@CPropertySheet@@UBEXAAVCDumpContext@@@Z 0048dc8a f mfc42d:MFC42D.DLL
 0001:0008cc90       ?AssertValid@CPropertySheet@@UBEXXZ 0048dc90 f mfc42d:MFC42D.DLL
 0001:0008cc96       ??1CPropertySheet@@UAE@XZ  0048dc96 f mfc42d:MFC42D.DLL
 0001:0008cc9c       ??0CPropertySheet@@QAE@IPAVCWnd@@I@Z 0048dc9c f mfc42d:MFC42D.DLL
 0001:0008cca2       ?messageMap@CPropertySheet@@1UAFX_MSGMAP@@B 0048dca2 f mfc42d:MFC42D.DLL
 0001:0008cca8       ??0CSliderCtrl@@QAE@XZ     0048dca8 f mfc42d:MFC42D.DLL
 0001:0008ccae       ?DDX_Text@@YGXPAVCDataExchange@@HAAM@Z 0048dcae f mfc42d:MFC42D.DLL
 0001:0008ccb4       ?SetPos@CSliderCtrl@@QAEXH@Z 0048dcb4 f mfc42d:MFC42D.DLL
 0001:0008ccba       ?SetTicFreq@CSliderCtrl@@QAEXH@Z 0048dcba f mfc42d:MFC42D.DLL
 0001:0008ccc0       ?SetRange@CSliderCtrl@@QAEXHHH@Z 0048dcc0 f mfc42d:MFC42D.DLL
 0001:0008ccc6       ?GetPos@CSliderCtrl@@QBEHXZ 0048dcc6 f mfc42d:MFC42D.DLL
 0001:0008cccc       ??0CSize@@QAE@HH@Z         0048dccc f mfc42d:MFC42D.DLL
 0001:0008ccd2       ?PatBlt@CDC@@QAEHHHHHK@Z   0048dcd2 f mfc42d:MFC42D.DLL
 0001:0008ccd8       ?SetBrushOrg@CDC@@QAE?AVCPoint@@HH@Z 0048dcd8 f mfc42d:MFC42D.DLL
 0001:0008ccde       ?RedrawWindow@CWnd@@QAEHPBUtagRECT@@PAVCRgn@@I@Z 0048dcde f mfc42d:MFC42D.DLL
 0001:0008cce4       ?Default@CWnd@@IAEJXZ      0048dce4 f mfc42d:MFC42D.DLL
 0001:0008ccea       ?Fail@CDataExchange@@QAEXXZ 0048dcea f mfc42d:MFC42D.DLL
 0001:0008ccf0       ?FindString@CComboBox@@QBEHHPBD@Z 0048dcf0 f mfc42d:MFC42D.DLL
 0001:0008ccf6       ?GetAt@CString@@QBEDH@Z    0048dcf6 f mfc42d:MFC42D.DLL
 0001:0008ccfc       ?GetLength@CString@@QBEHXZ 0048dcfc f mfc42d:MFC42D.DLL
 0001:0008cd02       ?GetWindowTextA@CWnd@@QBEXAAVCString@@@Z 0048dd02 f mfc42d:MFC42D.DLL
 0001:0008cd08       ?classCObject@CObject@@2UCRuntimeClass@@B 0048dd08 f mfc42d:MFC42D.DLL
 0001:0008cd0e       ??0AFX_CLASSINIT@@QAE@PAUCRuntimeClass@@@Z 0048dd0e f mfc42d:MFC42D.DLL
 0001:0008cd14       ?ReadObject@CArchive@@QAEPAVCObject@@PBUCRuntimeClass@@@Z 0048dd14 f mfc42d:MFC42D.DLL
 0001:0008cd1a       ??1CFile@@UAE@XZ           0048dd1a f mfc42d:MFC42D.DLL
 0001:0008cd20       ?Close@CFile@@UAEXXZ       0048dd20 f mfc42d:MFC42D.DLL
 0001:0008cd26       ?Open@CFile@@UAEHPBDIPAVCFileException@@@Z 0048dd26 f mfc42d:MFC42D.DLL
 0001:0008cd2c       ??0CFile@@QAE@XZ           0048dd2c f mfc42d:MFC42D.DLL
 0001:0008cd32       ?GetPaletteEntries@CPalette@@QBEIIIPAUtagPALETTEENTRY@@@Z 0048dd32 f mfc42d:MFC42D.DLL
 0001:0008cd38       ?GetNearestPaletteIndex@CPalette@@QBEIK@Z 0048dd38 f mfc42d:MFC42D.DLL
 0001:0008cd40       _WinMain@16                0048dd40 f mfcs42d:appmodul.obj
 0001:0008cd70       ?AfxInitialize@@YGHHK@Z    0048dd70 f mfcs42d:appmodul.obj
 0001:0008cde0       ??0_AFX_TERM_APP_STATE@@QAE@XZ 0048dde0 f mfcs42d:appmodul.obj
 0001:0008ce4a       _AllocConsole@0            0048de4a f kernel32:KERNEL32.dll
 0001:0008ce50       _FreeConsole@0             0048de50 f kernel32:KERNEL32.dll
 0001:0008ce56       _GetCurrentDirectoryA@8    0048de56 f kernel32:KERNEL32.dll
 0001:0008ce5c       _lstrlenA@4                0048de5c f kernel32:KERNEL32.dll
 0001:0008ce62       _HeapFree@12               0048de62 f kernel32:KERNEL32.dll
 0001:0008ce68       _HeapAlloc@12              0048de68 f kernel32:KERNEL32.dll
 0001:0008ce6e       _GetProcessHeap@0          0048de6e f kernel32:KERNEL32.dll
 0001:0008ce74       _GetLastError@0            0048de74 f kernel32:KERNEL32.dll
 0001:0008ce7a       _CreateProcessA@40         0048de7a f kernel32:KERNEL32.dll
 0001:0008ce80       _FreeLibrary@4             0048de80 f kernel32:KERNEL32.dll
 0001:0008ce86       _WaitForSingleObject@8     0048de86 f kernel32:KERNEL32.dll
 0001:0008ce8c       _CreateEventA@16           0048de8c f kernel32:KERNEL32.dll
 0001:0008ce92       _SetEvent@4                0048de92 f kernel32:KERNEL32.dll
 0001:0008ce98       _OpenEventA@12             0048de98 f kernel32:KERNEL32.dll
 0001:0008ce9e       _Sleep@4                   0048de9e f kernel32:KERNEL32.dll
 0001:0008cea4       _GetVersion@0              0048dea4 f kernel32:KERNEL32.dll
 0001:0008ceaa       _GetModuleHandleA@4        0048deaa f kernel32:KERNEL32.dll
 0001:0008ceb0       _GetStartupInfoA@4         0048deb0 f kernel32:KERNEL32.dll
 0001:0008ceb6       _PostQuitMessage@4         0048deb6 f user32:USER32.dll
 0001:0008cebc       _LoadBitmapA@8             0048debc f user32:USER32.dll
 0001:0008cec2       _SetWindowPos@28           0048dec2 f user32:USER32.dll
 0001:0008cec8       _GetCursorPos@4            0048dec8 f user32:USER32.dll
 0001:0008cece       _SendMessageA@16           0048dece f user32:USER32.dll
 0001:0008ced4       _GetMenuCheckMarkDimensions@0 0048ded4 f user32:USER32.dll
 0001:0008ceda       _ReleaseDC@8               0048deda f user32:USER32.dll
 0001:0008cee0       _GetDC@4                   0048dee0 f user32:USER32.dll
 0001:0008cee6       _PeekMessageA@20           0048dee6 f user32:USER32.dll
 0001:0008ceec       _WaitMessage@0             0048deec f user32:USER32.dll
 0001:0008cef2       _wsprintfA                 0048def2 f user32:USER32.dll
 0001:0008cef8       _IsRectEmpty@4             0048def8 f user32:USER32.dll
 0001:0008cefe       _MessageBoxA@16            0048defe f user32:USER32.dll
 0001:0008cf04       _GetClientRect@8           0048df04 f user32:USER32.dll
 0001:0008cf0a       _InvalidateRect@12         0048df0a f user32:USER32.dll
 0001:0008cf10       _GetActiveWindow@0         0048df10 f user32:USER32.dll
 0001:0008cf16       _MessageBeep@4             0048df16 f user32:USER32.dll
 0001:0008cf1c       _SetCursor@4               0048df1c f user32:USER32.dll
 0001:0008cf22       _PostMessageA@16           0048df22 f user32:USER32.dll
 0001:0008cf28       _DeleteObject@4            0048df28 f gdi32:GDI32.dll
 0001:0008cf2e       _StretchDIBits@52          0048df2e f gdi32:GDI32.dll
 0001:0008cf34       _PatBlt@24                 0048df34 f gdi32:GDI32.dll
 0001:0008cf3a       _SetStretchBltMode@8       0048df3a f gdi32:GDI32.dll
 0001:0008cf40       _SelectObject@8            0048df40 f gdi32:GDI32.dll
 0001:0008cf46       _CreateSolidBrush@4        0048df46 f gdi32:GDI32.dll
 0001:0008cf4c       _SetWindowOrgEx@16         0048df4c f gdi32:GDI32.dll
 0001:0008cf52       _DeleteDC@4                0048df52 f gdi32:GDI32.dll
 0001:0008cf58       _BitBlt@36                 0048df58 f gdi32:GDI32.dll
 0001:0008cf5e       _ExtTextOutA@32            0048df5e f gdi32:GDI32.dll
 0001:0008cf64       _CreateBitmap@20           0048df64 f gdi32:GDI32.dll
 0001:0008cf6a       _SetBkColor@8              0048df6a f gdi32:GDI32.dll
 0001:0008cf70       _SetTextColor@8            0048df70 f gdi32:GDI32.dll
 0001:0008cf76       _CreateCompatibleDC@4      0048df76 f gdi32:GDI32.dll
 0001:0008cf7c       _GetTextExtentPoint32A@16  0048df7c f gdi32:GDI32.dll
 0001:0008cf82       _RealizePalette@4          0048df82 f gdi32:GDI32.dll
 0001:0008cf88       _SelectPalette@12          0048df88 f gdi32:GDI32.dll
 0001:0008cf8e       _CreatePalette@4           0048df8e f gdi32:GDI32.dll
 0001:0008cf94       _DescribePixelFormat@16    0048df94 f gdi32:GDI32.dll
 0001:0008cf9a       _SetPixelFormat@12         0048df9a f gdi32:GDI32.dll
 0001:0008cfa0       _ChoosePixelFormat@8       0048dfa0 f gdi32:GDI32.dll
 0001:0008cfa6       _SwapBuffers@4             0048dfa6 f gdi32:GDI32.dll
 0001:0008cfac       _UpdateColors@4            0048dfac f gdi32:GDI32.dll
 0001:0008cfb2       _GetSystemPaletteEntries@16 0048dfb2 f gdi32:GDI32.dll
 0001:0008cfb8       _SetSystemPaletteUse@8     0048dfb8 f gdi32:GDI32.dll
 0001:0008cfbe       _GetDeviceCaps@8           0048dfbe f gdi32:GDI32.dll
 0001:0008cfc4       _RegCloseKey@4             0048dfc4 f advapi32:ADVAPI32.dll
 0001:0008cfca       _RegSetValueA@20           0048dfca f advapi32:ADVAPI32.dll
 0001:0008cfd0       _RegQueryValueExA@24       0048dfd0 f advapi32:ADVAPI32.dll
 0001:0008cfd6       _RegOpenKeyExA@20          0048dfd6 f advapi32:ADVAPI32.dll
 0001:0008cfdc       _RegEnumKeyExA@32          0048dfdc f advapi32:ADVAPI32.dll
 0001:0008cfe2       _RegSetValueExA@24         0048dfe2 f advapi32:ADVAPI32.dll
 0001:0008cfe8       _RegCreateKeyExA@36        0048dfe8 f advapi32:ADVAPI32.dll
 0001:0008cfee       _ImageList_Add@12          0048dfee f comctl32:COMCTL32.dll
 0001:0008cff4       _ImageList_Create@20       0048dff4 f comctl32:COMCTL32.dll
 0001:0008cffa       _ImageList_Destroy@4       0048dffa f comctl32:COMCTL32.dll
 0001:0008d000       ?CreateControl@CWnd@@QAEHABU_GUID@@PBDKABUtagRECT@@PAV1@IPAVCFile@@HPAG@Z 0048e000 f mfco42d:MFCO42D.DLL
 0001:0008d006       ??1COleDispatchDriver@@QAE@XZ 0048e006 f mfco42d:MFCO42D.DLL
 0001:0008d00c       ??0COleDispatchDriver@@QAE@PAUIDispatch@@H@Z 0048e00c f mfco42d:MFCO42D.DLL
 0001:0008d012       ??0COleTemplateServer@@QAE@XZ 0048e012 f mfco42d:MFCO42D.DLL
 0001:0008d018       ??1COleObjectFactory@@UAE@XZ 0048e018 f mfco42d:MFCO42D.DLL
 0001:0008d01e       ?UpdateRegistryAll@COleObjectFactory@@SGHH@Z 0048e01e f mfco42d:MFCO42D.DLL
 0001:0008d024       ?UpdateRegistry@COleTemplateServer@@QAEXW4OLE_APPTYPE@@PAPBD1@Z 0048e024 f mfco42d:MFCO42D.DLL
 0001:0008d02a       ?RunAutomated@CWinApp@@QAEHXZ 0048e02a f mfco42d:MFCO42D.DLL
 0001:0008d030       ?RunEmbedded@CWinApp@@QAEHXZ 0048e030 f mfco42d:MFCO42D.DLL
 0001:0008d036       ?RegisterAll@COleObjectFactory@@SGHXZ 0048e036 f mfco42d:MFCO42D.DLL
 0001:0008d03c       ?ConnectTemplate@COleTemplateServer@@QAEXABU_GUID@@PAVCDocTemplate@@H@Z 0048e03c f mfco42d:MFCO42D.DLL
 0001:0008d042       ?AfxOleInit@@YGHXZ         0048e042 f mfco42d:MFCO42D.DLL
 0001:0008d048       ?AfxEnableControlContainer@@YAXPAVCOccManager@@@Z 0048e048 f mfco42d:MFCO42D.DLL
 0001:0008d04e       ?EnableAutomation@CCmdTarget@@QAEXXZ 0048e04e f mfco42d:MFCO42D.DLL
 0001:0008d054       ??1COleVariant@@QAE@XZ     0048e054 f mfco42d:MFCO42D.DLL
 0001:0008d05a       ??0COleVariant@@QAE@XZ     0048e05a f mfco42d:MFCO42D.DLL
 0001:0008d060       ??0COleVariant@@QAE@ABUtagVARIANT@@@Z 0048e060 f mfco42d:MFCO42D.DLL
 0001:0008d066       ?Clear@COleVariant@@QAEXXZ 0048e066 f mfco42d:MFCO42D.DLL
 0001:0008d06c       ?ChangeType@COleVariant@@QAEXGPAUtagVARIANT@@@Z 0048e06c f mfco42d:MFCO42D.DLL
 0001:0008d072       ??BCOleVariant@@QAEPAUtagVARIANT@@XZ 0048e072 f mfco42d:MFCO42D.DLL
 0001:0008d078       ??4COleVariant@@QAEABV0@QBD@Z 0048e078 f mfco42d:MFCO42D.DLL
 0001:0008d07e       ??4COleVariant@@QAEABV0@J@Z 0048e07e f mfco42d:MFCO42D.DLL
 0001:0008d084       ??4COleVariant@@QAEABV0@N@Z 0048e084 f mfco42d:MFCO42D.DLL
 0001:0008d08a       ?GetProperty@COleDispatchDriver@@QBEXJGPAX@Z 0048e08a f mfco42d:MFCO42D.DLL
 0001:0008d090       ?SetProperty@COleDispatchDriver@@QAAXJGZZ 0048e090 f mfco42d:MFCO42D.DLL
 0001:0008d096       ?InvokeHelper@COleDispatchDriver@@QAAXJGGPAXPBEZZ 0048e096 f mfco42d:MFCO42D.DLL
 0001:0008d09c       ??0COleVariant@@QAE@ABV0@@Z 0048e09c f mfco42d:MFCO42D.DLL
 0001:0008d0a2       _SafeArrayCreate@12        0048e0a2 f oleaut32:OLEAUT32.dll
 0001:0008d0a8       _SafeArrayGetElement@12    0048e0a8 f oleaut32:OLEAUT32.dll
 0001:0008d0ae       _SafeArrayPutElement@12    0048e0ae f oleaut32:OLEAUT32.dll
 0001:0008d0b4       __stricmp                  0048e0b4 f MSVCRTD:MSVCRTD.dll
 0001:0008d0ba       __gcvt                     0048e0ba f MSVCRTD:MSVCRTD.dll
 0001:0008d0c0       __itoa                     0048e0c0 f MSVCRTD:MSVCRTD.dll
 0001:0008d0c6       __setmbcp                  0048e0c6 f MSVCRTD:MSVCRTD.dll
 0001:0008d0cc       ?AfxWinMain@@YGHPAUHINSTANCE__@@0PADH@Z 0048e0cc f mfc42d:MFC42D.DLL
 0001:0008d0d2       ?AfxGetModuleState@@YGPAVAFX_MODULE_STATE@@XZ 0048e0d2 f mfc42d:MFC42D.DLL
 0002:00000180       ?classCDatatbl@CDatatbl@@2UCRuntimeClass@@B 0048f180   datatbl.obj
 0002:00000198       ??_7CDatatbl@@6B@          0048f198   datatbl.obj
 0002:00000258       ?clsid@?1??GetClsid@CDatatbl@@QAEABU_GUID@@XZ@4U3@B 0048f258   datatbl.obj
 0002:00000268       ??_7VistaObj@@6B@          0048f268   calc3dp.obj
 0002:0000029c       ??_7VistaTask@@6B@         0048f29c   calc3dp.obj
 0002:000002a0       ??_7RDXDb@@6B@             0048f2a0   calc3dp.obj
 0002:000002a8       ??_7VistaDb@@6B@           0048f2a8   calc3dp.obj
 0002:000002b0       ??_7StoreDb@@6B@           0048f2b0   calc3dp.obj
 0002:000002b8       ??_7StoreTask@@6B@         0048f2b8   calc3dp.obj
 0002:000002c0       ??_7Polymorph@@6B@         0048f2c0   calc3dp.obj
 0002:000002f8       ??_7triton@@6B@            0048f2f8   calc3dp.obj
 0002:00000300       ??_7TransformObj@@6B@      0048f300   calc3dp.obj
 0002:00000338       ??_7ClassesObj@@6B@        0048f338   calc3dp.obj
 0002:00000370       ??_7GroupsObj@@6B@         0048f370   calc3dp.obj
 0002:000003a8       ??_7PropertiesObj@@6B@     0048f3a8   calc3dp.obj
 0002:000003e0       ??_7ElementObj@@6B@        0048f3e0   calc3dp.obj
 0002:00000420       ??_7BoxObj@@6B@            0048f420   calc3dp.obj
 0002:00000460       ??_7CirTorusObj@@6B@       0048f460   calc3dp.obj
 0002:000004a0       ??_7ConeObj@@6B@           0048f4a0   calc3dp.obj
 0002:000004e0       ??_7CylinderObj@@6B@       0048f4e0   calc3dp.obj
 0002:00000520       ??_7RectTorusObj@@6B@      0048f520   calc3dp.obj
 0002:00000560       ??_7SphereObj@@6B@         0048f560   calc3dp.obj
 0002:000005a0       ??_7PyramidObj@@6B@        0048f5a0   calc3dp.obj
 0002:000005e0       ??_7ComplexObj@@6B@        0048f5e0   calc3dp.obj
 0002:00000620       ??_7FacesObj@@6B@          0048f620   calc3dp.obj
 0002:00000660       ??_7VerticesObj@@6B@       0048f660   calc3dp.obj
 0002:000006a0       ??_7PointObj@@6B@          0048f6a0   calc3dp.obj
 0002:000006e0       ??_7LineObj@@6B@           0048f6e0   calc3dp.obj
 0002:00000720       ??_7SystemObj@@6B@         0048f720   calc3dp.obj
 0002:00000758       ??_7Classes_type_KeyObj@@6B@ 0048f758   calc3dp.obj
 0002:0000075c       ??_7Classes_name_KeyObj@@6B@ 0048f75c   calc3dp.obj
 0002:00000760       ??_7Groups_name_KeyObj@@6B@ 0048f760   calc3dp.obj
 0002:00000768       ??_7rvqLiteDb@@6B@         0048f768   calc3dp.obj
 0002:00000770       ??_7equipObj@@6B@          0048f770   calc3dp.obj
 0002:000007a8       ??_7engdocObj@@6B@         0048f7a8   calc3dp.obj
 0002:000007e0       ??_7progressObj@@6B@       0048f7e0   calc3dp.obj
 0002:00000818       ??_7mprocObj@@6B@          0048f818   calc3dp.obj
 0002:00000850       ??_7mhistObj@@6B@          0048f850   calc3dp.obj
 0002:00000888       ??_7mhist_mproc_intObj@@6B@ 0048f888   calc3dp.obj
 0002:000008c0       ??_7partsObj@@6B@          0048f8c0   calc3dp.obj
 0002:000008f8       ??_7eq_parts_intObj@@6B@   0048f8f8   calc3dp.obj
 0002:00000930       ??_7parts_docs_intObj@@6B@ 0048f930   calc3dp.obj
 0002:00000968       ??_7vendorObj@@6B@         0048f968   calc3dp.obj
 0002:000009a0       ??_7commsysObj@@6B@        0048f9a0   calc3dp.obj
 0002:000009d8       ??_7eq_docs_intObj@@6B@    0048f9d8   calc3dp.obj
 0002:00000a10       ??_7eq_mproc_intObj@@6B@   0048fa10   calc3dp.obj
 0002:00000a48       ??_7image_ptrObj@@6B@      0048fa48   calc3dp.obj
 0002:00000a80       ??_7image_equip_boxObj@@6B@ 0048fa80   calc3dp.obj
 0002:00000ab8       ??_7equip_name_KeyObj@@6B@ 0048fab8   calc3dp.obj
 0002:00000abc       ??_7engdoc_docno_KeyObj@@6B@ 0048fabc   calc3dp.obj
 0002:00000ac0       ??_7mproc_name_KeyObj@@6B@ 0048fac0   calc3dp.obj
 0002:00000ac4       ??_7parts_cat_no_KeyObj@@6B@ 0048fac4   calc3dp.obj
 0002:00000ac8       ??_7vendor_vendcode_KeyObj@@6B@ 0048fac8   calc3dp.obj
 0002:00000acc       ??_7commsys_name_KeyObj@@6B@ 0048facc   calc3dp.obj
 0002:00000ad0       ??_7image_ptr_dba_KeyObj@@6B@ 0048fad0   calc3dp.obj
 0002:00000af0       ?messageMap@CFotobrowApp@@1UAFX_MSGMAP@@B 0048faf0   fotobrow.obj
 0002:00000af8       ?_messageEntries@CFotobrowApp@@0PBUAFX_MSGMAP_ENTRY@@B 0048faf8   fotobrow.obj
 0002:00000b98       ?messageMap@CAboutDlg@@1UAFX_MSGMAP@@B 0048fb98   fotobrow.obj
 0002:00000ba0       ?_messageEntries@CAboutDlg@@0PBUAFX_MSGMAP_ENTRY@@B 0048fba0   fotobrow.obj
 0002:00000bf8       ??_7CFotobrowApp@@6B@      0048fbf8   fotobrow.obj
 0002:00000c9c       ??_7TritonTask@@6B@        0048fc9c   fotobrow.obj
 0002:00000ca0       ??_7CAboutDlg@@6B@         0048fca0   fotobrow.obj
 0002:00000d78       ?messageMap@CCoordXformDlg@@1UAFX_MSGMAP@@B 0048fd78   coordxfo.obj
 0002:00000d80       ?_messageEntries@CCoordXformDlg@@0PBUAFX_MSGMAP_ENTRY@@B 0048fd80   coordxfo.obj
 0002:00000de8       ??_7CCoordXformDlg@@6B@    0048fde8   coordxfo.obj
 0002:00000ec0       ?classCFotobrowDoc@CFotobrowDoc@@2UCRuntimeClass@@B 0048fec0   fotobdoc.obj
 0002:00000ed8       ?messageMap@CFotobrowDoc@@1UAFX_MSGMAP@@B 0048fed8   fotobdoc.obj
 0002:00000ee0       ?_messageEntries@CFotobrowDoc@@0PBUAFX_MSGMAP_ENTRY@@B 0048fee0   fotobdoc.obj
 0002:00000ef8       ?dispatchMap@CFotobrowDoc@@1UAFX_DISPMAP@@B 0048fef8   fotobdoc.obj
 0002:00000f08       ?_dispatchEntries@CFotobrowDoc@@0PBUAFX_DISPMAP_ENTRY@@B 0048ff08   fotobdoc.obj
 0002:00000f28       ??_7CFotobrowDoc@@6B@      0048ff28   fotobdoc.obj
 0002:000010a0       ?classCElementListView@CElementListView@@2UCRuntimeClass@@B 004900a0   ElementListView.obj
 0002:000010b8       ?messageMap@CElementListView@@1UAFX_MSGMAP@@B 004900b8   ElementListView.obj
 0002:000010c0       ?_messageEntries@CElementListView@@0PBUAFX_MSGMAP_ENTRY@@B 004900c0   ElementListView.obj
 0002:00001420       ??_7CElementListView@@6B@  00490420   ElementListView.obj
 0002:00001580       ?messageMap@CTransformDlg@@1UAFX_MSGMAP@@B 00490580   transfor.obj
 0002:00001588       ?_messageEntries@CTransformDlg@@0PBUAFX_MSGMAP_ENTRY@@B 00490588   transfor.obj
 0002:000015a8       ??_7CTransformDlg@@6B@     004905a8   transfor.obj
 0002:00001680       ?messageMap@CCircleBy3DPoint@@1UAFX_MSGMAP@@B 00490680   CircleBy3DPoint.obj
 0002:00001688       ?_messageEntries@CCircleBy3DPoint@@0PBUAFX_MSGMAP_ENTRY@@B 00490688   CircleBy3DPoint.obj
 0002:000016c8       ??_7CCircleBy3DPoint@@6B@  004906c8   CircleBy3DPoint.obj
 0002:000017a0       ?classCColumnEditor@CColumnEditor@@2UCRuntimeClass@@B 004907a0   ColumnEditor.obj
 0002:000017b8       ?messageMap@CColumnEditor@@1UAFX_MSGMAP@@B 004907b8   ColumnEditor.obj
 0002:000017c0       ?_messageEntries@CColumnEditor@@0PBUAFX_MSGMAP_ENTRY@@B 004907c0   ColumnEditor.obj
 0002:00001808       ?eventsinkMap@CColumnEditor@@1UAFX_EVENTSINKMAP@@B 00490808   ColumnEditor.obj
 0002:00001818       ?_eventsinkEntries@CColumnEditor@@0PBUAFX_EVENTSINKMAP_ENTRY@@B 00490818   ColumnEditor.obj
 0002:00001898       ??_7CColumnEditor@@6B@     00490898   ColumnEditor.obj
 0002:000019a8       ??_7Ptg3DPyramidObj@@6B@   004909a8   Ptg3DPyramidObj.obj
 0002:000019c0       ?classMaintenance@Maintenance@@2UCRuntimeClass@@B 004909c0   maintena.obj
 0002:000019d8       ?messageMap@Maintenance@@1UAFX_MSGMAP@@B 004909d8   maintena.obj
 0002:000019e0       ?_messageEntries@Maintenance@@0PBUAFX_MSGMAP_ENTRY@@B 004909e0   maintena.obj
 0002:00001a10       ??_7Maintenance@@6B@       00490a10   maintena.obj
 0002:00001b08       ?messageMap@CBundleCalcDlg@@1UAFX_MSGMAP@@B 00490b08   BundleCalcDlg.obj
 0002:00001b10       ?_messageEntries@CBundleCalcDlg@@0PBUAFX_MSGMAP_ENTRY@@B 00490b10   BundleCalcDlg.obj
 0002:00001b40       ?dispatchMap@CBundleCalcDlg@@1UAFX_DISPMAP@@B 00490b40   BundleCalcDlg.obj
 0002:00001b50       ?_dispatchEntries@CBundleCalcDlg@@0PBUAFX_DISPMAP_ENTRY@@B 00490b50   BundleCalcDlg.obj
 0002:00001b80       ?interfaceMap@CBundleCalcDlg@@1UAFX_INTERFACEMAP@@B 00490b80   BundleCalcDlg.obj
 0002:00001b88       ?_interfaceEntries@CBundleCalcDlg@@0PBUAFX_INTERFACEMAP_ENTRY@@B 00490b88   BundleCalcDlg.obj
 0002:00001b98       ??_7CBundleCalcDlg@@6B@    00490b98   BundleCalcDlg.obj
 0002:00001c70       ?messageMap@CCreateQuickCylinderDlg@@1UAFX_MSGMAP@@B 00490c70   CreateQuickCylinderDlg.obj
 0002:00001c78       ?_messageEntries@CCreateQuickCylinderDlg@@0PBUAFX_MSGMAP_ENTRY@@B 00490c78   CreateQuickCylinderDlg.obj
 0002:00001cd8       ??_7CCreateQuickCylinderDlg@@6B@ 00490cd8   CreateQuickCylinderDlg.obj
 0002:00001db0       ??_7Ptg3DPointObj@@6B@     00490db0   Ptg3DPointObj.obj
 0002:00001dc8       ?classCGridBar@CGridBar@@2UCRuntimeClass@@B 00490dc8   gridbar.obj
 0002:00001de0       ?messageMap@CGridBar@@1UAFX_MSGMAP@@B 00490de0   gridbar.obj
 0002:00001de8       ?_messageEntries@CGridBar@@0PBUAFX_MSGMAP_ENTRY@@B 00490de8   gridbar.obj
 0002:00001e58       ?classCFrameMods@CFrameMods@@2UCRuntimeClass@@B 00490e58   mfc_frames.obj
 0002:00001e70       ?messageMap@CFrameMods@@1UAFX_MSGMAP@@B 00490e70   mfc_frames.obj
 0002:00001e78       ?_messageEntries@CFrameMods@@0PBUAFX_MSGMAP_ENTRY@@B 00490e78   mfc_frames.obj
 0002:00001e90       ??_7CFrameMods@@6B@        00490e90   mfc_frames.obj
 0002:00001f98       ?classConstruction@Construction@@2UCRuntimeClass@@B 00490f98   construct.obj
 0002:00001fb0       ?messageMap@Construction@@1UAFX_MSGMAP@@B 00490fb0   construct.obj
 0002:00001fb8       ?_messageEntries@Construction@@0PBUAFX_MSGMAP_ENTRY@@B 00490fb8   construct.obj
 0002:00001fd0       ??_7Construction@@6B@      00490fd0   construct.obj
 0002:000020c8       ?messageMap@CZoneSelectDlg@@1UAFX_MSGMAP@@B 004910c8   zonesele.obj
 0002:000020d0       ?_messageEntries@CZoneSelectDlg@@0PBUAFX_MSGMAP_ENTRY@@B 004910d0   zonesele.obj
 0002:00002100       ??_7CZoneSelectDlg@@6B@    00491100   zonesele.obj
 0002:000021d8       ?messageMap@CSplashWnd@@1UAFX_MSGMAP@@B 004911d8   Splash.obj
 0002:000021e0       ?_messageEntries@CSplashWnd@@0PBUAFX_MSGMAP_ENTRY@@B 004911e0   Splash.obj
 0002:00002240       ??_7CSplashWnd@@6B@        00491240   Splash.obj
 0002:00002300       ?messageMap@PointGridBar@@1UAFX_MSGMAP@@B 00491300   PointGridBar.obj
 0002:00002308       ?_messageEntries@PointGridBar@@0PBUAFX_MSGMAP_ENTRY@@B 00491308   PointGridBar.obj
 0002:00002410       ?eventsinkMap@PointGridBar@@1UAFX_EVENTSINKMAP@@B 00491410   PointGridBar.obj
 0002:00002420       ?_eventsinkEntries@PointGridBar@@0PBUAFX_EVENTSINKMAP_ENTRY@@B 00491420   PointGridBar.obj
 0002:000025f0       ??_7PointGridBar@@6B@      004915f0   PointGridBar.obj
 0002:000026d8       ??_7CColorMenu@@6B@        004916d8   colormenu.obj
 0002:000026f8       ?messageMap@CCylinderData@@1UAFX_MSGMAP@@B 004916f8   CylinderData.obj
 0002:00002700       ?_messageEntries@CCylinderData@@0PBUAFX_MSGMAP_ENTRY@@B 00491700   CylinderData.obj
 0002:00002720       ??_7CCylinderData@@6B@     00491720   CylinderData.obj
 0002:000027f8       ?classCFotogDoc@CFotogDoc@@2UCRuntimeClass@@B 004917f8   fotogdoc.obj
 0002:00002810       ?messageMap@CFotogDoc@@1UAFX_MSGMAP@@B 00491810   fotogdoc.obj
 0002:00002818       ?_messageEntries@CFotogDoc@@0PBUAFX_MSGMAP_ENTRY@@B 00491818   fotogdoc.obj
 0002:00002830       ?dispatchMap@CFotogDoc@@1UAFX_DISPMAP@@B 00491830   fotogdoc.obj
 0002:00002840       ?_dispatchEntries@CFotogDoc@@0PBUAFX_DISPMAP_ENTRY@@B 00491840   fotogdoc.obj
 0002:00002860       ??_7CFotogDoc@@6B@         00491860   fotogdoc.obj
 0002:00002968       ?messageMap@COpenGLSettings@@1UAFX_MSGMAP@@B 00491968   OpenGLSettings.obj
 0002:00002970       ?_messageEntries@COpenGLSettings@@0PBUAFX_MSGMAP_ENTRY@@B 00491970   OpenGLSettings.obj
 0002:00002988       ??_7COpenGLSettings@@6B@   00491988   OpenGLSettings.obj
 0002:00002a60       ??_7rvqLiteTask@@6B@       00491a60   rvqLite.obj
 0002:00002c88       ??_7Ptg3DConeObj@@6B@      00491c88   Ptg3DConeObj.obj
 0002:00002ca0       ??_7Ptg3DFacetVertexObj@@6B@ 00491ca0   Ptg3DFacetObj.obj
 0002:00002cb8       ??_7Ptg3DFacetObj@@6B@     00491cb8   Ptg3DFacetObj.obj
 0002:00002cc8       ??_7?$CList@PAVPtg3DFacetVertexObj@@PAV1@@@6B@ 00491cc8   Ptg3DFacetObj.obj
 0002:00002ce0       ??_7Ptg3DCalcPointObj@@6B@ 00491ce0   Ptg3DCalcPointObj.obj
 0002:00002cf8       ?messageMap@COptionsDlg@@1UAFX_MSGMAP@@B 00491cf8   optionsd.obj
 0002:00002d00       ?_messageEntries@COptionsDlg@@0PBUAFX_MSGMAP_ENTRY@@B 00491d00   optionsd.obj
 0002:00002d18       ??_7COptionsDlg@@6B@       00491d18   optionsd.obj
 0002:00002df0       ??_7Ptg3DCtorObj@@6B@      00491df0   Ptg3DCtorObj.obj
 0002:00002e48       ?messageMap@CSelectImages@@1UAFX_MSGMAP@@B 00491e48   selectim.obj
 0002:00002e50       ?_messageEntries@CSelectImages@@0PBUAFX_MSGMAP_ENTRY@@B 00491e50   selectim.obj
 0002:00002e80       ??_7CSelectImages@@6B@     00491e80   selectim.obj
 0002:00002fa0       ?messageMap@CAssignEquipDlg@@1UAFX_MSGMAP@@B 00491fa0   assigneq.obj
 0002:00002fa8       ?_messageEntries@CAssignEquipDlg@@0PBUAFX_MSGMAP_ENTRY@@B 00491fa8   assigneq.obj
 0002:00002fc0       ??_7CAssignEquipDlg@@6B@   00491fc0   assigneq.obj
 0002:000030d0       ?messageMap@COpenProjectDlg@@1UAFX_MSGMAP@@B 004920d0   OPENPROJ.OBJ
 0002:000030d8       ?_messageEntries@COpenProjectDlg@@0PBUAFX_MSGMAP_ENTRY@@B 004920d8   OPENPROJ.OBJ
 0002:00003108       ??_7COpenProjectDlg@@6B@   00492108   OPENPROJ.OBJ
 0002:000031e0       ?messageMap@CDrawList@@1UAFX_MSGMAP@@B 004921e0   drawlist.obj
 0002:000031e8       ?_messageEntries@CDrawList@@0PBUAFX_MSGMAP_ENTRY@@B 004921e8   drawlist.obj
 0002:00003238       ??_7CDrawList@@6B@         00492238   drawlist.obj
 0002:00003310       ??_7AllElements@@6B@       00492310   tritondraw.obj
 0002:00003348       ?classCZoneEditor@CZoneEditor@@2UCRuntimeClass@@B 00492348   ZoneEditor.obj
 0002:00003360       ?messageMap@CZoneEditor@@1UAFX_MSGMAP@@B 00492360   ZoneEditor.obj
 0002:00003368       ?_messageEntries@CZoneEditor@@0PBUAFX_MSGMAP_ENTRY@@B 00492368   ZoneEditor.obj
 0002:000033b0       ?eventsinkMap@CZoneEditor@@1UAFX_EVENTSINKMAP@@B 004923b0   ZoneEditor.obj
 0002:000033c0       ?_eventsinkEntries@CZoneEditor@@0PBUAFX_EVENTSINKMAP_ENTRY@@B 004923c0   ZoneEditor.obj
 0002:00003440       ??_7CZoneEditor@@6B@       00492440   ZoneEditor.obj
 0002:00003550       ?classCGeneralPageDlg@CGeneralPageDlg@@2UCRuntimeClass@@B 00492550   generalp.obj
 0002:00003568       ?messageMap@CGeneralPageDlg@@1UAFX_MSGMAP@@B 00492568   generalp.obj
 0002:00003570       ?_messageEntries@CGeneralPageDlg@@0PBUAFX_MSGMAP_ENTRY@@B 00492570   generalp.obj
 0002:00003588       ??_7CGeneralPageDlg@@6B@   00492588   generalp.obj
 0002:00003680       ?classCRaimaDatabaseDoc@CRaimaDatabaseDoc@@2UCRuntimeClass@@B 00492680   tritondb.obj
 0002:00003698       ?messageMap@CRaimaDatabaseDoc@@1UAFX_MSGMAP@@B 00492698   tritondb.obj
 0002:000036a0       ?_messageEntries@CRaimaDatabaseDoc@@0PBUAFX_MSGMAP_ENTRY@@B 004926a0   tritondb.obj
 0002:000036b8       ??_7CRaimaDatabaseDoc@@6B@ 004926b8   tritondb.obj
 0002:00003778       ?classCFotobrowView@CFotobrowView@@2UCRuntimeClass@@B 00492778   fotobvw.obj
 0002:00003790       ?messageMap@CFotobrowView@@1UAFX_MSGMAP@@B 00492790   fotobvw.obj
 0002:00003798       ?_messageEntries@CFotobrowView@@0PBUAFX_MSGMAP_ENTRY@@B 00492798   fotobvw.obj
 0002:00003a68       ?dispatchMap@CFotobrowView@@1UAFX_DISPMAP@@B 00492a68   fotobvw.obj
 0002:00003a78       ?_dispatchEntries@CFotobrowView@@0PBUAFX_DISPMAP_ENTRY@@B 00492a78   fotobvw.obj
 0002:00003ad8       ??_7CFotobrowView@@6B@     00492ad8   fotobvw.obj
 0002:00003be8       ??_7?$CList@PAVCPoint@@PAV1@@@6B@ 00492be8   fotobvw.obj
 0002:00003c00       ?classCFotoView@CFotoView@@2UCRuntimeClass@@B 00492c00   fotoview.obj
 0002:00003c18       ?messageMap@CFotoView@@1UAFX_MSGMAP@@B 00492c18   fotoview.obj
 0002:00003c20       ?_messageEntries@CFotoView@@0PBUAFX_MSGMAP_ENTRY@@B 00492c20   fotoview.obj
 0002:00003fb8       ??_7CFotoView@@6B@         00492fb8   fotoview.obj
 0002:000040c8       ??_7Ptg3DRtorObj@@6B@      004930c8   Ptg3DRtorObj.obj
 0002:000040e8       ??_7CDIBPal@@6B@           004930e8   DIBPAL.OBJ
 0002:00004158       ?messageMap@CCircleDataDlg@@1UAFX_MSGMAP@@B 00493158   CircleDataDlg.obj
 0002:00004160       ?_messageEntries@CCircleDataDlg@@0PBUAFX_MSGMAP_ENTRY@@B 00493160   CircleDataDlg.obj
 0002:00004180       ??_7CCircleDataDlg@@6B@    00493180   CircleDataDlg.obj
 0002:00004268       ?messageMap@CCircleByEdge@@1UAFX_MSGMAP@@B 00493268   CircleByEdge.obj
 0002:00004270       ?_messageEntries@CCircleByEdge@@0PBUAFX_MSGMAP_ENTRY@@B 00493270   CircleByEdge.obj
 0002:00004298       ??_7CCircleByEdge@@6B@     00493298   CircleByEdge.obj
 0002:00004370       ??_7?$CList@PAVEdge_2D@@PAV1@@@6B@ 00493370   CircleByEdge.obj
 0002:00004388       ?messageMap@CRadiographyData@@1UAFX_MSGMAP@@B 00493388   RadiographyData.obj
 0002:00004390       ?_messageEntries@CRadiographyData@@0PBUAFX_MSGMAP_ENTRY@@B 00493390   RadiographyData.obj
 0002:000043f0       ??_7CRadiographyData@@6B@  004933f0   RadiographyData.obj
 0002:000044c8       ??_7CBrowserDlg@@6B@       004934c8   RadiographyData.obj
 0002:000045c0       ?messageMap@CSelectEqImageDlg@@1UAFX_MSGMAP@@B 004935c0   selecteq.obj
 0002:000045c8       ?_messageEntries@CSelectEqImageDlg@@0PBUAFX_MSGMAP_ENTRY@@B 004935c8   selecteq.obj
 0002:000046a0       ??_7CSelectEqImageDlg@@6B@ 004936a0   selecteq.obj
 0002:00004778       ??_7Ptg3DLineObj@@6B@      00493778   Ptg3DLineObj.obj
 0002:00004790       ?messageMap@CCreateCylinderByEndpointsDlg@@1UAFX_MSGMAP@@B 00493790   CreateCylinderByEndpointsDlg.obj
 0002:00004798       ?_messageEntries@CCreateCylinderByEndpointsDlg@@0PBUAFX_MSGMAP_ENTRY@@B 00493798   CreateCylinderByEndpointsDlg.obj
 0002:000047b0       ??_7CCreateCylinderByEndpointsDlg@@6B@ 004937b0   CreateCylinderByEndpointsDlg.obj
 0002:00004888       ?messageMap@CCreateCylinderByEdgeDlg@@1UAFX_MSGMAP@@B 00493888   CreateCylinderByEdgeDlg.obj
 0002:00004890       ?_messageEntries@CCreateCylinderByEdgeDlg@@0PBUAFX_MSGMAP_ENTRY@@B 00493890   CreateCylinderByEdgeDlg.obj
 0002:00004920       ??_7CCreateCylinderByEdgeDlg@@6B@ 00493920   CreateCylinderByEdgeDlg.obj
 0002:000049f8       ?classCMainFrame@CMainFrame@@2UCRuntimeClass@@B 004939f8   mainfrm.obj
 0002:00004a10       ?messageMap@CMainFrame@@1UAFX_MSGMAP@@B 00493a10   mainfrm.obj
 0002:00004a18       ?_messageEntries@CMainFrame@@0PBUAFX_MSGMAP_ENTRY@@B 00493a18   mainfrm.obj
 0002:00004fa0       ?eventsinkMap@CMainFrame@@1UAFX_EVENTSINKMAP@@B 00493fa0   mainfrm.obj
 0002:00004fb0       ?_eventsinkEntries@CMainFrame@@0PBUAFX_EVENTSINKMAP_ENTRY@@B 00493fb0   mainfrm.obj
 0002:00005020       ??_7CMainFrame@@6B@        00494020   mainfrm.obj
 0002:00005128       ?classCResultSheetDlg@CResultSheetDlg@@2UCRuntimeClass@@B 00494128   resultsh.obj
 0002:00005140       ?messageMap@CResultSheetDlg@@1UAFX_MSGMAP@@B 00494140   resultsh.obj
 0002:00005148       ?_messageEntries@CResultSheetDlg@@0PBUAFX_MSGMAP_ENTRY@@B 00494148   resultsh.obj
 0002:00005160       ??_7CResultSheetDlg@@6B@   00494160   resultsh.obj
 0002:00005230       ??_7Ptg3DBoxObj@@6B@       00494230   Ptg3DBoxObj.obj
 0002:00005248       ?messageMap@CLightAdjust@@1UAFX_MSGMAP@@B 00494248   LightAdjust.obj
 0002:00005250       ?_messageEntries@CLightAdjust@@0PBUAFX_MSGMAP_ENTRY@@B 00494250   LightAdjust.obj
 0002:000052a8       ??_7CLightAdjust@@6B@      004942a8   LightAdjust.obj
 0002:00005380       ??_7Ptg3DCylinderObj@@6B@  00494380   Ptg3DCylinderObj.obj
 0002:00005398       ?classEngineeringData@EngineeringData@@2UCRuntimeClass@@B 00494398   engineer.obj
 0002:000053b0       ?messageMap@EngineeringData@@1UAFX_MSGMAP@@B 004943b0   engineer.obj
 0002:000053b8       ?_messageEntries@EngineeringData@@0PBUAFX_MSGMAP_ENTRY@@B 004943b8   engineer.obj
 0002:000053d0       ??_7EngineeringData@@6B@   004943d0   engineer.obj
 0002:000054c8       ?messageMap@CMyMdi@@1UAFX_MSGMAP@@B 004944c8   mymdi.obj
 0002:000054d0       ?_messageEntries@CMyMdi@@0PBUAFX_MSGMAP_ENTRY@@B 004944d0   mymdi.obj
 0002:00005518       ??_7CMyMdi@@6B@            00494518   mymdi.obj
 0002:000055d8       ??_7HierElem@@6B@          004945d8   HierElem.obj
 0002:000055e0       ??_7?$CList@PAVHierElem@@PAV1@@@6B@ 004945e0   HierElem.obj
 0002:00005628       ??_7Ptg3DNode@@6B@         00494628   Ptg3DNode.obj
 0002:00005638       ?messageMap@CProjectSettings@@1UAFX_MSGMAP@@B 00494638   projects.obj
 0002:00005640       ?_messageEntries@CProjectSettings@@0PBUAFX_MSGMAP_ENTRY@@B 00494640   projects.obj
 0002:000056d0       ??_7CProjectSettings@@6B@  004946d0   projects.obj
 0002:000057a8       ?classCommisioning@Commisioning@@2UCRuntimeClass@@B 004947a8   comision.obj
 0002:000057c0       ?messageMap@Commisioning@@1UAFX_MSGMAP@@B 004947c0   comision.obj
 0002:000057c8       ?_messageEntries@Commisioning@@0PBUAFX_MSGMAP_ENTRY@@B 004947c8   comision.obj
 0002:000057e0       ??_7Commisioning@@6B@      004947e0   comision.obj
 0002:00005930       ??_7PtgWorld@@6B@          00494930   PtgWorld.obj
 0002:00005988       ??_7CDIB@@6B@              00494988   DIB.OBJ
 0003:00000000       ___xc_a                    004a9000   MSVCRTD:cinitexe.obj
 0003:00000014       ___xc_z                    004a9014   MSVCRTD:cinitexe.obj
 0003:00000018       ___xi_a                    004a9018   MSVCRTD:cinitexe.obj
 0003:0000001c       ___xi_z                    004a901c   MSVCRTD:cinitexe.obj
 0003:00000adc       ?snNumRecs@@3FA            004a9adc   rdm_utils.obj
 0003:00000ae0       ?snNumKeys@@3FA            004a9ae0   rdm_utils.obj
 0003:00000ae4       ?snNumSets@@3FA            004a9ae4   rdm_utils.obj
 0003:00000ae8       ?nRecLockTable@@3PAHA      004a9ae8   rdm_utils.obj
 0003:00000aec       ?nKeyLockTable@@3PAHA      004a9aec   rdm_utils.obj
 0003:00000af0       ?nSetLockTable@@3PAHA      004a9af0   rdm_utils.obj
 0003:00000f18       ?point_increment@@3PAY01HA 004a9f18   calc3dp.obj
 0003:00001170       ??_C@_00A@?$AA@            004aa170   calc3dp.obj
 0003:00001174       ??_C@_01PGHN@o?$AA@        004aa174   calc3dp.obj
 0003:00001178       ??_C@_01LHO@r?$AA@         004aa178   calc3dp.obj
 0003:0000117c       ??_C@_01LLF@w?$AA@         004aa17c   calc3dp.obj
 0003:00001180       ??_C@_01KOI@x?$AA@         004aa180   calc3dp.obj
 0003:00001184       ??_C@_01FMCB@k?$AA@        004aa184   calc3dp.obj
 0003:00001188       ??_C@_06DHDI@triton?$AA@   004aa188   calc3dp.obj
 0003:00001190       ??_C@_09EKPD@Transform?$AA@ 004aa190   calc3dp.obj
 0003:0000119c       ??_C@_07BKKB@Classes?$AA@  004aa19c   calc3dp.obj
 0003:000011a4       ??_C@_06KJIP@Groups?$AA@   004aa1a4   calc3dp.obj
 0003:000011ac       ??_C@_0L@KHEG@Properties?$AA@ 004aa1ac   calc3dp.obj
 0003:000011b8       ??_C@_03IAJJ@Box?$AA@      004aa1b8   calc3dp.obj
 0003:000011bc       ??_C@_08EMIP@CirTorus?$AA@ 004aa1bc   calc3dp.obj
 0003:000011c8       ??_C@_04JIGP@Cone?$AA@     004aa1c8   calc3dp.obj
 0003:000011d0       ??_C@_08CAAC@Cylinder?$AA@ 004aa1d0   calc3dp.obj
 0003:000011dc       ??_C@_09JPOF@RectTorus?$AA@ 004aa1dc   calc3dp.obj
 0003:000011e8       ??_C@_06EFME@Sphere?$AA@   004aa1e8   calc3dp.obj
 0003:000011f0       ??_C@_07KKBL@Pyramid?$AA@  004aa1f0   calc3dp.obj
 0003:000011f8       ??_C@_07OOLH@Complex?$AA@  004aa1f8   calc3dp.obj
 0003:00001200       ??_C@_05LBEE@Faces?$AA@    004aa200   calc3dp.obj
 0003:00001208       ??_C@_08KKJK@Vertices?$AA@ 004aa208   calc3dp.obj
 0003:00001214       ??_C@_05GJGE@Point?$AA@    004aa214   calc3dp.obj
 0003:0000121c       ??_C@_04KEDG@Line?$AA@     004aa21c   calc3dp.obj
 0003:00001224       ??_C@_06NILE@System?$AA@   004aa224   calc3dp.obj
 0003:0000122c       ??_C@_05NNPK@equip?$AA@    004aa22c   calc3dp.obj
 0003:00001234       ??_C@_06PLBF@engdoc?$AA@   004aa234   calc3dp.obj
 0003:0000123c       ??_C@_08IGC@progress?$AA@  004aa23c   calc3dp.obj
 0003:00001248       ??_C@_05GGNF@mproc?$AA@    004aa248   calc3dp.obj
 0003:00001250       ??_C@_05CHEC@mhist?$AA@    004aa250   calc3dp.obj
 0003:00001258       ??_C@_0BA@LHKP@mhist_mproc_int?$AA@ 004aa258   calc3dp.obj
 0003:00001268       ??_C@_05HIBL@parts?$AA@    004aa268   calc3dp.obj
 0003:00001270       ??_C@_0N@KIBH@eq_parts_int?$AA@ 004aa270   calc3dp.obj
 0003:00001280       ??_C@_0P@HFHM@parts_docs_int?$AA@ 004aa280   calc3dp.obj
 0003:00001290       ??_C@_06PCJH@vendor?$AA@   004aa290   calc3dp.obj
 0003:00001298       ??_C@_07NCEA@commsys?$AA@  004aa298   calc3dp.obj
 0003:000012a0       ??_C@_0M@NGMO@eq_docs_int?$AA@ 004aa2a0   calc3dp.obj
 0003:000012ac       ??_C@_0N@NEMN@eq_mproc_int?$AA@ 004aa2ac   calc3dp.obj
 0003:000012cc       ?rvqTask@@3PAVrvqLiteTask@@A 004aa2cc   fotobrow.obj
 0003:000012d0       ?reg_strings@@3PAPADA      004aa2d0   fotobrow.obj
 0003:000013d0       ??_C@_06JNNG@pm3mgt?$AA@   004aa3d0   fotobrow.obj
 0003:00001444       ?_dispatchEntryCount@CFotobrowDoc@@0IA 004aa444   fotobdoc.obj
 0003:00001448       ?_dwStockPropMask@CFotobrowDoc@@0KA 004aa448   fotobdoc.obj
 0003:000014b0       ?color_bmps@@3PAHA         004aa4b0   treemenu.obj
 0003:00001a3c       ?_eventsinkEntryCount@CColumnEditor@@0IA 004aaa3c   ColumnEditor.obj
 0003:00001b2c       ?className@Ptg3DPyramidObj@@2PADA 004aab2c   Ptg3DPyramidObj.obj
 0003:00001bfc       ?_dispatchEntryCount@CBundleCalcDlg@@0IA 004aabfc   BundleCalcDlg.obj
 0003:00001c00       ?_dwStockPropMask@CBundleCalcDlg@@0KA 004aac00   BundleCalcDlg.obj
 0003:00001d24       ?className@Ptg3DPointObj@@2PADA 004aad24   Ptg3DPointObj.obj
 0003:00002548       ?sheetGrids@PointGridBar@@0PAHA 004ab548   PointGridBar.obj
 0003:00002558       ?_eventsinkEntryCount@PointGridBar@@0IA 004ab558   PointGridBar.obj
 0003:00002774       ?_dispatchEntryCount@CFotogDoc@@0IA 004ab774   fotogdoc.obj
 0003:00002778       ?_dwStockPropMask@CFotogDoc@@0KA 004ab778   fotogdoc.obj
 0003:00002788       ?numFields@@3HA            004ab788   feetstat.obj
 0003:0000278c       ?sign@@3HA                 004ab78c   feetstat.obj
 0003:00002790       ?initTable@@3PAUStateTransTable@@A 004ab790   feetstat.obj
 0003:00002a54       ?DbPtr@rvqLiteDb@@2PAVStoreDb@@A 004aba54   rvqLite.obj
 0003:00002b70       ?tsumdx@@3NA               004abb70   photog_math.obj
 0003:00002b78       ?tsumdy@@3NA               004abb78   photog_math.obj
 0003:00002b80       ?tsumxsqr@@3NA             004abb80   photog_math.obj
 0003:00002b88       ?tsumysqr@@3NA             004abb88   photog_math.obj
 0003:00002b90       ?tnum@@3HA                 004abb90   photog_math.obj
 0003:00004514       ?className@Ptg3DConeObj@@2PADA 004ad514   Ptg3DConeObj.obj
 0003:00004544       ?className@Ptg3DFacetObj@@2PADA 004ad544   Ptg3DFacetObj.obj
 0003:00004558       ??_C@_01BJG@?6?$AA@        004ad558   Ptg3DFacetObj.obj
 0003:0000455c       ??_C@_09LOPF@?5elements?$AA@ 004ad55c   Ptg3DFacetObj.obj
 0003:00004568       ??_C@_05KIFI@with?5?$AA@   004ad568   Ptg3DFacetObj.obj
 0003:0000457c       ?className@Ptg3DCalcPointObj@@2PADA 004ad57c   Ptg3DCalcPointObj.obj
 0003:000045dc       ?className@Ptg3DCtorObj@@2PADA 004ad5dc   Ptg3DCtorObj.obj
 0003:00004c80       ?eleHandlers@@3PAUeleCB@@A 004adc80   importreview.obj
 0003:00004d38       ?materialMap@@3PAY02MA     004add38   importreview.obj
 0003:000060a0       ?_eventsinkEntryCount@CZoneEditor@@0IA 004af0a0   ZoneEditor.obj
 0003:00006358       ?m_mode@CFotobrowView@@2HA 004af358   fotobvw.obj
 0003:00006378       ?_dispatchEntryCount@CFotobrowView@@0IA 004af378   fotobvw.obj
 0003:0000637c       ?_dwStockPropMask@CFotobrowView@@0KA 004af37c   fotobvw.obj
 0003:00006824       ?latitude@@3MA             004af824   fotoview.obj
 0003:00006828       ?longitude@@3MA            004af828   fotoview.obj
 0003:0000682c       ?latinc@@3MA               004af82c   fotoview.obj
 0003:00006830       ?longinc@@3MA              004af830   fotoview.obj
 0003:00006834       ?twist@@3MA                004af834   fotoview.obj
 0003:00006838       ?twistinc@@3MA             004af838   fotoview.obj
 0003:00006840       ?m_mode@CFotoView@@2HA     004af840   fotoview.obj
 0003:00006870       ?Points@@3PAY01HA          004af870   fotoview.obj
 0003:000068a0       ?directions@@3PAHA         004af8a0   fotoview.obj
 0003:000069d4       ?className@Ptg3DRtorObj@@2PADA 004af9d4   Ptg3DRtorObj.obj
 0003:000069f4       ?DbPtr@triton@@2PAVStoreDb@@A 004af9f4   triton.obj
 0003:00006f78       ??_C@_0BG@KLJB@Select?5an?5Application?$AA@ 004aff78   RadiographyData.obj
 0003:00007074       ?className@Ptg3DLineObj@@2PADA 004b0074   Ptg3DLineObj.obj
 0003:00007120       ?str@@3PAPADA              004b0120   CreateCylinderByEdgeDlg.obj
 0003:000073a0       ?mode@@3HA                 004b03a0   mainfrm.obj
 0003:0000744c       ?_eventsinkEntryCount@CMainFrame@@0IA 004b044c   mainfrm.obj
 0003:00007b24       ?className@Ptg3DBoxObj@@2PADA 004b0b24   Ptg3DBoxObj.obj
 0003:00007b84       ?className@Ptg3DCylinderObj@@2PADA 004b0b84   Ptg3DCylinderObj.obj
 0003:00007c18       ?pfnSuper@CMyMdi@@2P6GJPAUHWND__@@IIJ@ZA 004b0c18   mymdi.obj
 0003:00007c2c       ?className@HierElem@@2PADA 004b0c2c   HierElem.obj
 0003:00007c9c       ?className@Ptg3DNode@@2PADA 004b0c9c   Ptg3DNode.obj
 0003:00007ca0       ?nUniqID@Ptg3DNode@@0HA    004b0ca0   Ptg3DNode.obj
 0003:00007e44       ?className@PtgWorld@@2PADA 004b0e44   PtgWorld.obj
 0003:00008020       ?n_vect@@3HA               004b1020   mathsubs.obj
 0003:00008024       ?n_mat@@3HA                004b1024   mathsubs.obj
 0003:000082f0       ?classCDIB@CDIB@@2UCRuntimeClass@@A 004b12f0   DIB.OBJ
 0003:00008520       ___win32sflag              004b1520   MSVCRTD:atonexit.obj
 0003:00008530       __dowildcard               004b1530   MSVCRTD:wildcard.obj
 0003:00008534       __newmode                  004b1534   MSVCRTD:_newmode.obj
 0003:00008538       ___defaultmatherr          004b1538   MSVCRTD:merr.obj
 0003:0000853c       __commode                  004b153c   MSVCRTD:xncommod.obj
 0003:00008540       __fmode                    004b1540   MSVCRTD:xtxtmode.obj
 0003:00008558       ?bundle_name@@3PADA        004b1558   calc3dp.obj
 0003:000085f8       ?theApp@@3VCFotobrowApp@@A 004b15f8   fotobrow.obj
 0003:000087d4       ?dbn@@3HA                  004b17d4   fotobrow.obj
 0003:000087d8       ?t@@3PAVTritonTask@@A      004b17d8   fotobrow.obj
 0003:000087dc       ?hMainCursor@@3PAUHICON__@@A 004b17dc   fotobrow.obj
 0003:00008800       ?Mytask@@3UDB_TASK_S@@A    004b1800   fotobrow.obj
 0003:00008840       ?hpal@@3PAUHPALETTE__@@A   004b1840   paletteOGL.obj
 0003:00008844       ?c_bShowSplashWnd@CSplashWnd@@1HA 004b1844   Splash.obj
 0003:00008848       ?c_pSplashWnd@CSplashWnd@@1PAV1@A 004b1848   Splash.obj
 0003:00008850       ?field@@3PADA              004b1850   feetstat.obj
 0003:00009850       ?denominator@@3NA          004b2850   feetstat.obj
 0003:00009858       ?whole_inches@@3NA         004b2858   feetstat.obj
 0003:00009860       ?numerator@@3NA            004b2860   feetstat.obj
 0003:00009868       ?temp@@3PADA               004b2868   feetstat.obj
 0003:000098e8       ?tempField@@3PAY0EAA@DA    004b28e8   feetstat.obj
 0003:0000a0e8       ?feet@@3NA                 004b30e8   feetstat.obj
 0003:0000a0f0       ?debugOutputLevel@@3HA     004b30f0   output.obj
 0003:0000a0f4       ?outputLevel@@3HA          004b30f4   output.obj
 0003:0000a0f8       ?env@@3PAHA                004b30f8   photog_math.obj
 0003:0000a188       ?mode_holder@@3HA          004b3188   fotobvw.obj
 0003:0000a1e0       ?TheLine@@3PAY02NA         004b31e0   fotoview.obj
 0003:0000a228       ?minmaxNames@@3PAY02PADA   004b3228   fotoview.obj
 0003:0000a240       ?radius@@3NA               004b3240   fotoview.obj
 0003:0000a308       ?hDataTable@@3PAUHINSTANCE__@@A 004b3308   mainfrm.obj
 0003:0000a310       ?str@@3PADA                004b3310   mainfrm.obj
 0003:0000a390       __afxForceEXCLUDE          004b3390   mfcs42d:nolib.obj
 0003:0000a394       __afxForceSTDAFX           004b3394   mfcs42d:stdafx.obj
 0003:0000a398       ?_afxTermAppState@@3V_AFX_TERM_APP_STATE@@A 004b3398   mfcs42d:appmodul.obj
 0003:0000a39c       __adjust_fdiv              004b339c   <common>
 0003:0000a3a0       ___onexitend               004b33a0   <common>
 0003:0000a3a4       ___onexitbegin             004b33a4   <common>
 0004:00000000       RDMWIN32_IMPORT_DESCRIPTOR 004b4000   rdmwin32:RDMWIN32.DLL
 0004:00000014       OMRDM_IMPORT_DESCRIPTOR    004b4014   omrdmimp:OMRDM.dll
 0004:00000028       __IMPORT_DESCRIPTOR_GLU32  004b4028   glu32:GLU32.dll
 0004:0000003c       __IMPORT_DESCRIPTOR_OPENGL32 004b403c   opengl32:OPENGL32.dll
 0004:00000050       __IMPORT_DESCRIPTOR_MPR    004b4050   mpr:MPR.dll
 0004:00000064       __IMPORT_DESCRIPTOR_pm3dgnInterface 004b4064   pm3dgnInterface:pm3dgnInterface.dll
 0004:00000078       __IMPORT_DESCRIPTOR_MSVCRTD 004b4078   MSVCRTD:MSVCRTD.dll
 0004:0000008c       __IMPORT_DESCRIPTOR_MFC42D 004b408c   mfc42d:MFC42D.DLL
 0004:000000a0       __IMPORT_DESCRIPTOR_KERNEL32 004b40a0   kernel32:KERNEL32.dll
 0004:000000b4       __IMPORT_DESCRIPTOR_USER32 004b40b4   user32:USER32.dll
 0004:000000c8       __IMPORT_DESCRIPTOR_GDI32  004b40c8   gdi32:GDI32.dll
 0004:000000dc       __IMPORT_DESCRIPTOR_ADVAPI32 004b40dc   advapi32:ADVAPI32.dll
 0004:000000f0       __IMPORT_DESCRIPTOR_COMCTL32 004b40f0   comctl32:COMCTL32.dll
 0004:00000104       __IMPORT_DESCRIPTOR_MFCO42D 004b4104   mfco42d:MFCO42D.DLL
 0004:00000118       __IMPORT_DESCRIPTOR_OLEAUT32 004b4118   oleaut32:OLEAUT32.dll
 0004:0000012c       NULL_IMPORT_DESCRIPTOR     004b412c   rdmwin32:RDMWIN32.DLL
 0004:00000140       __NULL_IMPORT_DESCRIPTOR   004b4140   glu32:GLU32.dll
 0004:00001250       __imp__RegCreateKeyExA@36  004b5250   advapi32:ADVAPI32.dll
 0004:00001254       __imp__RegCloseKey@4       004b5254   advapi32:ADVAPI32.dll
 0004:00001258       __imp__RegSetValueExA@24   004b5258   advapi32:ADVAPI32.dll
 0004:0000125c       __imp__RegQueryValueExA@24 004b525c   advapi32:ADVAPI32.dll
 0004:00001260       __imp__RegOpenKeyExA@20    004b5260   advapi32:ADVAPI32.dll
 0004:00001264       __imp__RegEnumKeyExA@32    004b5264   advapi32:ADVAPI32.dll
 0004:00001268       __imp__RegSetValueA@20     004b5268   advapi32:ADVAPI32.dll
 0004:0000126c       \177ADVAPI32_NULL_THUNK_DATA 004b526c   advapi32:ADVAPI32.dll
 0004:00001270       __imp__ImageList_Create@20 004b5270   comctl32:COMCTL32.dll
 0004:00001274       __imp__ImageList_Add@12    004b5274   comctl32:COMCTL32.dll
 0004:00001278       __imp__ImageList_Destroy@4 004b5278   comctl32:COMCTL32.dll
 0004:0000127c       \177COMCTL32_NULL_THUNK_DATA 004b527c   comctl32:COMCTL32.dll
 0004:00001280       __imp__ChoosePixelFormat@8 004b5280   gdi32:GDI32.dll
 0004:00001284       __imp__GetDeviceCaps@8     004b5284   gdi32:GDI32.dll
 0004:00001288       __imp__SetSystemPaletteUse@8 004b5288   gdi32:GDI32.dll
 0004:0000128c       __imp__GetSystemPaletteEntries@16 004b528c   gdi32:GDI32.dll
 0004:00001290       __imp__UpdateColors@4      004b5290   gdi32:GDI32.dll
 0004:00001294       __imp__SwapBuffers@4       004b5294   gdi32:GDI32.dll
 0004:00001298       __imp__DeleteObject@4      004b5298   gdi32:GDI32.dll
 0004:0000129c       __imp__SetPixelFormat@12   004b529c   gdi32:GDI32.dll
 0004:000012a0       __imp__DescribePixelFormat@16 004b52a0   gdi32:GDI32.dll
 0004:000012a4       __imp__CreatePalette@4     004b52a4   gdi32:GDI32.dll
 0004:000012a8       __imp__SelectPalette@12    004b52a8   gdi32:GDI32.dll
 0004:000012ac       __imp__RealizePalette@4    004b52ac   gdi32:GDI32.dll
 0004:000012b0       __imp__GetTextExtentPoint32A@16 004b52b0   gdi32:GDI32.dll
 0004:000012b4       __imp__CreateCompatibleDC@4 004b52b4   gdi32:GDI32.dll
 0004:000012b8       __imp__SetTextColor@8      004b52b8   gdi32:GDI32.dll
 0004:000012bc       __imp__SetBkColor@8        004b52bc   gdi32:GDI32.dll
 0004:000012c0       __imp__CreateBitmap@20     004b52c0   gdi32:GDI32.dll
 0004:000012c4       __imp__ExtTextOutA@32      004b52c4   gdi32:GDI32.dll
 0004:000012c8       __imp__BitBlt@36           004b52c8   gdi32:GDI32.dll
 0004:000012cc       __imp__DeleteDC@4          004b52cc   gdi32:GDI32.dll
 0004:000012d0       __imp__SetWindowOrgEx@16   004b52d0   gdi32:GDI32.dll
 0004:000012d4       __imp__CreateSolidBrush@4  004b52d4   gdi32:GDI32.dll
 0004:000012d8       __imp__SelectObject@8      004b52d8   gdi32:GDI32.dll
 0004:000012dc       __imp__SetStretchBltMode@8 004b52dc   gdi32:GDI32.dll
 0004:000012e0       __imp__PatBlt@24           004b52e0   gdi32:GDI32.dll
 0004:000012e4       __imp__StretchDIBits@52    004b52e4   gdi32:GDI32.dll
 0004:000012e8       \177GDI32_NULL_THUNK_DATA  004b52e8   gdi32:GDI32.dll
 0004:000012ec       __imp__gluErrorString@4    004b52ec   glu32:GLU32.dll
 0004:000012f0       __imp__gluDeleteNurbsRenderer@4 004b52f0   glu32:GLU32.dll
 0004:000012f4       __imp__gluNewTess@0        004b52f4   glu32:GLU32.dll
 0004:000012f8       __imp__gluTessCallback@12  004b52f8   glu32:GLU32.dll
 0004:000012fc       __imp__gluNurbsSurface@44  004b52fc   glu32:GLU32.dll
 0004:00001300       __imp__gluBeginSurface@4   004b5300   glu32:GLU32.dll
 0004:00001304       __imp__gluEndSurface@4     004b5304   glu32:GLU32.dll
 0004:00001308       __imp__gluNurbsCallback@12 004b5308   glu32:GLU32.dll
 0004:0000130c       __imp__gluNewNurbsRenderer@0 004b530c   glu32:GLU32.dll
 0004:00001310       __imp__gluNurbsProperty@12 004b5310   glu32:GLU32.dll
 0004:00001314       __imp__gluDeleteQuadric@4  004b5314   glu32:GLU32.dll
 0004:00001318       __imp__gluCylinder@36      004b5318   glu32:GLU32.dll
 0004:0000131c       __imp__gluPerspective@32   004b531c   glu32:GLU32.dll
 0004:00001320       __imp__gluNewQuadric@0     004b5320   glu32:GLU32.dll
 0004:00001324       __imp__gluDisk@28          004b5324   glu32:GLU32.dll
 0004:00001328       __imp__gluQuadricDrawStyle@8 004b5328   glu32:GLU32.dll
 0004:0000132c       __imp__gluPickMatrix@36    004b532c   glu32:GLU32.dll
 0004:00001330       __imp__gluDeleteTess@4     004b5330   glu32:GLU32.dll
 0004:00001334       __imp__gluTessVertex@12    004b5334   glu32:GLU32.dll
 0004:00001338       __imp__gluBeginPolygon@4   004b5338   glu32:GLU32.dll
 0004:0000133c       __imp__gluOrtho2D@32       004b533c   glu32:GLU32.dll
 0004:00001340       __imp__gluEndPolygon@4     004b5340   glu32:GLU32.dll
 0004:00001344       \177GLU32_NULL_THUNK_DATA  004b5344   glu32:GLU32.dll
 0004:00001348       __imp__GetCurrentDirectoryA@8 004b5348   kernel32:KERNEL32.dll
 0004:0000134c       __imp__AllocConsole@0      004b534c   kernel32:KERNEL32.dll
 0004:00001350       __imp__FreeConsole@0       004b5350   kernel32:KERNEL32.dll
 0004:00001354       __imp__HeapAlloc@12        004b5354   kernel32:KERNEL32.dll
 0004:00001358       __imp__lstrlenA@4          004b5358   kernel32:KERNEL32.dll
 0004:0000135c       __imp__HeapFree@12         004b535c   kernel32:KERNEL32.dll
 0004:00001360       __imp__CreateProcessA@40   004b5360   kernel32:KERNEL32.dll
 0004:00001364       __imp__GetProcessHeap@0    004b5364   kernel32:KERNEL32.dll
 0004:00001368       __imp__GetLastError@0      004b5368   kernel32:KERNEL32.dll
 0004:0000136c       __imp__CreateEventA@16     004b536c   kernel32:KERNEL32.dll
 0004:00001370       __imp__FreeLibrary@4       004b5370   kernel32:KERNEL32.dll
 0004:00001374       __imp__WaitForSingleObject@8 004b5374   kernel32:KERNEL32.dll
 0004:00001378       __imp__Sleep@4             004b5378   kernel32:KERNEL32.dll
 0004:0000137c       __imp__SetEvent@4          004b537c   kernel32:KERNEL32.dll
 0004:00001380       __imp__OpenEventA@12       004b5380   kernel32:KERNEL32.dll
 0004:00001384       __imp__GetStartupInfoA@4   004b5384   kernel32:KERNEL32.dll
 0004:00001388       __imp__GetVersion@0        004b5388   kernel32:KERNEL32.dll
 0004:0000138c       __imp__GetModuleHandleA@4  004b538c   kernel32:KERNEL32.dll
 0004:00001390       \177KERNEL32_NULL_THUNK_DATA 004b5390   kernel32:KERNEL32.dll
 0004:00001394       __imp_?Dump@CDocument@@UBEXAAVCDumpContext@@@Z 004b5394   mfc42d:MFC42D.DLL
 0004:00001398       __imp_??1CScrollView@@UAE@XZ 004b5398   mfc42d:MFC42D.DLL
 0004:0000139c       __imp_?DDX_Control@@YGXPAVCDataExchange@@HAAVCWnd@@@Z 004b539c   mfc42d:MFC42D.DLL
 0004:000013a0       __imp_?OnDragOver@CView@@UAEKPAVCOleDataObject@@KVCPoint@@@Z 004b53a0   mfc42d:MFC42D.DLL
 0004:000013a4       __imp_?OnDragEnter@CView@@UAEKPAVCOleDataObject@@KVCPoint@@@Z 004b53a4   mfc42d:MFC42D.DLL
 0004:000013a8       __imp_??4CString@@QAEABV0@ABV0@@Z 004b53a8   mfc42d:MFC42D.DLL
 0004:000013ac       __imp_?GetNearestPaletteIndex@CPalette@@QBEIK@Z 004b53ac   mfc42d:MFC42D.DLL
 0004:000013b0       __imp_?GetPaletteEntries@CPalette@@QBEIIIPAUtagPALETTEENTRY@@@Z 004b53b0   mfc42d:MFC42D.DLL
 0004:000013b4       __imp_??0CFile@@QAE@XZ     004b53b4   mfc42d:MFC42D.DLL
 0004:000013b8       __imp_?Open@CFile@@UAEHPBDIPAVCFileException@@@Z 004b53b8   mfc42d:MFC42D.DLL
 0004:000013bc       __imp_?Close@CFile@@UAEXXZ 004b53bc   mfc42d:MFC42D.DLL
 0004:000013c0       __imp_??1CFile@@UAE@XZ     004b53c0   mfc42d:MFC42D.DLL
 0004:000013c4       __imp_?ReadObject@CArchive@@QAEPAVCObject@@PBUCRuntimeClass@@@Z 004b53c4   mfc42d:MFC42D.DLL
 0004:000013c8       __imp_??0AFX_CLASSINIT@@QAE@PAUCRuntimeClass@@@Z 004b53c8   mfc42d:MFC42D.DLL
 0004:000013cc       __imp_?classCObject@CObject@@2UCRuntimeClass@@B 004b53cc   mfc42d:MFC42D.DLL
 0004:000013d0       __imp_?GetWindowTextA@CWnd@@QBEXAAVCString@@@Z 004b53d0   mfc42d:MFC42D.DLL
 0004:000013d4       __imp_?GetLength@CString@@QBEHXZ 004b53d4   mfc42d:MFC42D.DLL
 0004:000013d8       __imp_?GetAt@CString@@QBEDH@Z 004b53d8   mfc42d:MFC42D.DLL
 0004:000013dc       __imp_?FindString@CComboBox@@QBEHHPBD@Z 004b53dc   mfc42d:MFC42D.DLL
 0004:000013e0       __imp_?Fail@CDataExchange@@QAEXXZ 004b53e0   mfc42d:MFC42D.DLL
 0004:000013e4       __imp_?Default@CWnd@@IAEJXZ 004b53e4   mfc42d:MFC42D.DLL
 0004:000013e8       __imp_?RedrawWindow@CWnd@@QAEHPBUtagRECT@@PAVCRgn@@I@Z 004b53e8   mfc42d:MFC42D.DLL
 0004:000013ec       __imp_?SetBrushOrg@CDC@@QAE?AVCPoint@@HH@Z 004b53ec   mfc42d:MFC42D.DLL
 0004:000013f0       __imp_?PatBlt@CDC@@QAEHHHHHK@Z 004b53f0   mfc42d:MFC42D.DLL
 0004:000013f4       __imp_??0CSize@@QAE@HH@Z   004b53f4   mfc42d:MFC42D.DLL
 0004:000013f8       __imp_?GetPos@CSliderCtrl@@QBEHXZ 004b53f8   mfc42d:MFC42D.DLL
 0004:000013fc       __imp_?SetRange@CSliderCtrl@@QAEXHHH@Z 004b53fc   mfc42d:MFC42D.DLL
 0004:00001400       __imp_?SetTicFreq@CSliderCtrl@@QAEXH@Z 004b5400   mfc42d:MFC42D.DLL
 0004:00001404       __imp_?SetPos@CSliderCtrl@@QAEXH@Z 004b5404   mfc42d:MFC42D.DLL
 0004:00001408       __imp_?DDX_Text@@YGXPAVCDataExchange@@HAAM@Z 004b5408   mfc42d:MFC42D.DLL
 0004:0000140c       __imp_??0CSliderCtrl@@QAE@XZ 004b540c   mfc42d:MFC42D.DLL
 0004:00001410       __imp_?messageMap@CPropertySheet@@1UAFX_MSGMAP@@B 004b5410   mfc42d:MFC42D.DLL
 0004:00001414       __imp_??0CPropertySheet@@QAE@IPAVCWnd@@I@Z 004b5414   mfc42d:MFC42D.DLL
 0004:00001418       __imp_??1CPropertySheet@@UAE@XZ 004b5418   mfc42d:MFC42D.DLL
 0004:0000141c       __imp_?AssertValid@CPropertySheet@@UBEXXZ 004b541c   mfc42d:MFC42D.DLL
 0004:00001420       __imp_?Dump@CPropertySheet@@UBEXAAVCDumpContext@@@Z 004b5420   mfc42d:MFC42D.DLL
 0004:00001424       __imp_?OnCmdMsg@CPropertySheet@@UAEHIHPAXPAUAFX_CMDHANDLERINFO@@@Z 004b5424   mfc42d:MFC42D.DLL
 0004:00001428       __imp_?ContinueModal@CPropertySheet@@UAEHXZ 004b5428   mfc42d:MFC42D.DLL
 0004:0000142c       __imp_?OnCommand@CPropertySheet@@UAEHIJ@Z 004b542c   mfc42d:MFC42D.DLL
 0004:00001430       __imp_?PreTranslateMessage@CPropertySheet@@UAEHPAUtagMSG@@@Z 004b5430   mfc42d:MFC42D.DLL
 0004:00001434       __imp_?DoModal@CPropertySheet@@UAEHXZ 004b5434   mfc42d:MFC42D.DLL
 0004:00001438       __imp_?BuildPropPageArray@CPropertySheet@@UAEXXZ 004b5438   mfc42d:MFC42D.DLL
 0004:0000143c       __imp_?OnInitDialog@CPropertySheet@@UAEHXZ 004b543c   mfc42d:MFC42D.DLL
 0004:00001440       __imp_?classCPropertySheet@CPropertySheet@@2UCRuntimeClass@@B 004b5440   mfc42d:MFC42D.DLL
 0004:00001444       __imp_?GetFileName@CFileDialog@@QBE?AVCString@@XZ 004b5444   mfc42d:MFC42D.DLL
 0004:00001448       __imp_?SetAt@CMapPtrToPtr@@QAEXPAX0@Z 004b5448   mfc42d:MFC42D.DLL
 0004:0000144c       __imp_??BCWnd@@QBEPAUHWND__@@XZ 004b544c   mfc42d:MFC42D.DLL
 0004:00001450       __imp_?OnClose@CFrameWnd@@IAEXXZ 004b5450   mfc42d:MFC42D.DLL
 0004:00001454       __imp_?CreateClient@CMDIFrameWnd@@UAEHPAUtagCREATESTRUCTA@@PAVCMenu@@@Z 004b5454   mfc42d:MFC42D.DLL
 0004:00001458       __imp_?SubclassWindow@CWnd@@QAEHPAUHWND__@@@Z 004b5458   mfc42d:MFC42D.DLL
 0004:0000145c       __imp_?Create@CDialog@@QAEHIPAVCWnd@@@Z 004b545c   mfc42d:MFC42D.DLL
 0004:00001460       __imp_?wndTopMost@CWnd@@2V1@B 004b5460   mfc42d:MFC42D.DLL
 0004:00001464       __imp_?GetTextMetricsA@CDC@@QBEHPAUtagTEXTMETRICA@@@Z 004b5464   mfc42d:MFC42D.DLL
 0004:00001468       __imp_?OnEraseBkgnd@CFrameWnd@@IAEHPAVCDC@@@Z 004b5468   mfc42d:MFC42D.DLL
 0004:0000146c       __imp_?GetWindowDC@CWnd@@QAEPAVCDC@@XZ 004b546c   mfc42d:MFC42D.DLL
 0004:00001470       __imp_?KillTimer@CWnd@@QAEHH@Z 004b5470   mfc42d:MFC42D.DLL
 0004:00001474       __imp_?OnSize@CMDIFrameWnd@@IAEXIHH@Z 004b5474   mfc42d:MFC42D.DLL
 0004:00001478       __imp_?OnSetCursor@CFrameWnd@@IAEHPAVCWnd@@II@Z 004b5478   mfc42d:MFC42D.DLL
 0004:0000147c       __imp_?GetActiveView@CFrameWnd@@QBEPAVCView@@XZ 004b547c   mfc42d:MFC42D.DLL
 0004:00001480       __imp_?OnPaletteChanged@CFrameWnd@@IAEXPAVCWnd@@@Z 004b5480   mfc42d:MFC42D.DLL
 0004:00001484       __imp_?SendMessageToDescendants@CWnd@@QAEXIIJHH@Z 004b5484   mfc42d:MFC42D.DLL
 0004:00001488       __imp_?Dump@CMDIFrameWnd@@UBEXAAVCDumpContext@@@Z 004b5488   mfc42d:MFC42D.DLL
 0004:0000148c       __imp_?GetDocTemplate@CDocument@@QBEPAVCDocTemplate@@XZ 004b548c   mfc42d:MFC42D.DLL
 0004:00001490       __imp_??8@YGHABVCString@@0@Z 004b5490   mfc42d:MFC42D.DLL
 0004:00001494       __imp_?MDIGetActive@CMDIFrameWnd@@QBEPAVCMDIChildWnd@@PAH@Z 004b5494   mfc42d:MFC42D.DLL
 0004:00001498       __imp_?RemoveAll@CObList@@QAEXXZ 004b5498   mfc42d:MFC42D.DLL
 0004:0000149c       __imp_?OffsetRect@CRect@@QAEXHH@Z 004b549c   mfc42d:MFC42D.DLL
 0004:000014a0       __imp_?OnCreate@CFrameWnd@@IAEHPAUtagCREATESTRUCTA@@@Z 004b54a0   mfc42d:MFC42D.DLL
 0004:000014a4       __imp_?EnableDocking@CFrameWnd@@QAEXK@Z 004b54a4   mfc42d:MFC42D.DLL
 0004:000014a8       __imp_?DockControlBar@CFrameWnd@@QAEXPAVCControlBar@@IPBUtagRECT@@@Z 004b54a8   mfc42d:MFC42D.DLL
 0004:000014ac       __imp_?Create@CToolBar@@QAEHPAVCWnd@@KI@Z 004b54ac   mfc42d:MFC42D.DLL
 0004:000014b0       __imp_?LoadToolBar@CToolBar@@QAEHI@Z 004b54b0   mfc42d:MFC42D.DLL
 0004:000014b4       __imp_?GetBarStyle@CControlBar@@QAEKXZ 004b54b4   mfc42d:MFC42D.DLL
 0004:000014b8       __imp_?SetBarStyle@CControlBar@@QAEXK@Z 004b54b8   mfc42d:MFC42D.DLL
 0004:000014bc       __imp_?EnableDocking@CControlBar@@QAEXK@Z 004b54bc   mfc42d:MFC42D.DLL
 0004:000014c0       __imp_??0CMDIFrameWnd@@QAE@XZ 004b54c0   mfc42d:MFC42D.DLL
 0004:000014c4       __imp_??0CMapPtrToPtr@@QAE@H@Z 004b54c4   mfc42d:MFC42D.DLL
 0004:000014c8       __imp_??0CToolBar@@QAE@XZ  004b54c8   mfc42d:MFC42D.DLL
 0004:000014cc       __imp_??1CToolBar@@UAE@XZ  004b54cc   mfc42d:MFC42D.DLL
 0004:000014d0       __imp_??1CStatusBar@@UAE@XZ 004b54d0   mfc42d:MFC42D.DLL
 0004:000014d4       __imp_??1CMapPtrToPtr@@UAE@XZ 004b54d4   mfc42d:MFC42D.DLL
 0004:000014d8       __imp_?OnCmdMsg@CMDIFrameWnd@@UAEHIHPAXPAUAFX_CMDHANDLERINFO@@@Z 004b54d8   mfc42d:MFC42D.DLL
 0004:000014dc       __imp_?PreCreateWindow@CMDIFrameWnd@@UAEHAAUtagCREATESTRUCTA@@@Z 004b54dc   mfc42d:MFC42D.DLL
 0004:000014e0       __imp_?OnCommand@CMDIFrameWnd@@MAEHIJ@Z 004b54e0   mfc42d:MFC42D.DLL
 0004:000014e4       __imp_?PreTranslateMessage@CMDIFrameWnd@@UAEHPAUtagMSG@@@Z 004b54e4   mfc42d:MFC42D.DLL
 0004:000014e8       __imp_?DefWindowProcA@CMDIFrameWnd@@MAEJIIJ@Z 004b54e8   mfc42d:MFC42D.DLL
 0004:000014ec       __imp_?LoadFrame@CMDIFrameWnd@@UAEHIKPAVCWnd@@PAUCCreateContext@@@Z 004b54ec   mfc42d:MFC42D.DLL
 0004:000014f0       __imp_?GetActiveFrame@CMDIFrameWnd@@UAEPAVCFrameWnd@@XZ 004b54f0   mfc42d:MFC42D.DLL
 0004:000014f4       __imp_?ActivateFrame@CFrameWnd@@UAEXH@Z 004b54f4   mfc42d:MFC42D.DLL
 0004:000014f8       __imp_?GetMessageBar@CFrameWnd@@UAEPAVCWnd@@XZ 004b54f8   mfc42d:MFC42D.DLL
 0004:000014fc       __imp_?OnCreateClient@CMDIFrameWnd@@UAEHPAUtagCREATESTRUCTA@@PAUCCreateContext@@@Z 004b54fc   mfc42d:MFC42D.DLL
 0004:00001500       __imp_?OnUpdateFrameTitle@CMDIFrameWnd@@UAEXH@Z 004b5500   mfc42d:MFC42D.DLL
 0004:00001504       __imp_?OnUpdateFrameMenu@CMDIFrameWnd@@UAEXPAUHMENU__@@@Z 004b5504   mfc42d:MFC42D.DLL
 0004:00001508       __imp_?DelayUpdateFrameMenu@CMDIFrameWnd@@UAEXPAUHMENU__@@@Z 004b5508   mfc42d:MFC42D.DLL
 0004:0000150c       __imp_?GetWindowMenuPopup@CMDIFrameWnd@@UAEPAUHMENU__@@PAU2@@Z 004b550c   mfc42d:MFC42D.DLL
 0004:00001510       __imp_?messageMap@CMDIFrameWnd@@1UAFX_MSGMAP@@B 004b5510   mfc42d:MFC42D.DLL
 0004:00001514       __imp_?OnHelpIndex@CWnd@@QAEXXZ 004b5514   mfc42d:MFC42D.DLL
 0004:00001518       __imp_?OnHelpUsing@CWnd@@QAEXXZ 004b5518   mfc42d:MFC42D.DLL
 0004:0000151c       __imp_?OnHelp@CFrameWnd@@IAEXXZ 004b551c   mfc42d:MFC42D.DLL
 0004:00001520       __imp_?OnContextHelp@CFrameWnd@@QAEXXZ 004b5520   mfc42d:MFC42D.DLL
 0004:00001524       __imp_?OnDestroy@CWnd@@IAEXXZ 004b5524   mfc42d:MFC42D.DLL
 0004:00001528       __imp_?OnClose@CWnd@@IAEXXZ 004b5528   mfc42d:MFC42D.DLL
 0004:0000152c       __imp_??0CPropertySheet@@QAE@PBDPAVCWnd@@I@Z 004b552c   mfc42d:MFC42D.DLL
 0004:00001530       __imp_?AddPage@CPropertySheet@@QAEXPAVCPropertyPage@@@Z 004b5530   mfc42d:MFC42D.DLL
 0004:00001534       __imp_?Create@CPropertySheet@@QAEHPAVCWnd@@KK@Z 004b5534   mfc42d:MFC42D.DLL
 0004:00001538       __imp_?SetActiveWindow@CWnd@@QAEPAV1@XZ 004b5538   mfc42d:MFC42D.DLL
 0004:0000153c       __imp_?SetFocus@CWnd@@QAEPAV1@XZ 004b553c   mfc42d:MFC42D.DLL
 0004:00001540       __imp_?SetItemText@CTreeCtrl@@QAEHPAU_TREEITEM@@PBD@Z 004b5540   mfc42d:MFC42D.DLL
 0004:00001544       __imp_?GetButtonStyle@CButton@@QBEIXZ 004b5544   mfc42d:MFC42D.DLL
 0004:00001548       __imp_?SetButtonStyle@CButton@@QAEXIH@Z 004b5548   mfc42d:MFC42D.DLL
 0004:0000154c       __imp_??0CButton@@QAE@XZ   004b554c   mfc42d:MFC42D.DLL
 0004:00001550       __imp_??1CButton@@UAE@XZ   004b5550   mfc42d:MFC42D.DLL
 0004:00001554       __imp_??YCString@@QAEABV0@PBD@Z 004b5554   mfc42d:MFC42D.DLL
 0004:00001558       __imp_??YCString@@QAEABV0@ABV0@@Z 004b5558   mfc42d:MFC42D.DLL
 0004:0000155c       __imp_?GetRuntimeClass@CFileDialog@@UBEPAUCRuntimeClass@@XZ 004b555c   mfc42d:MFC42D.DLL
 0004:00001560       __imp_?Dump@CFileDialog@@UBEXAAVCDumpContext@@@Z 004b5560   mfc42d:MFC42D.DLL
 0004:00001564       __imp_?GetMessageMap@CCommonDialog@@MBEPBUAFX_MSGMAP@@XZ 004b5564   mfc42d:MFC42D.DLL
 0004:00001568       __imp_?OnNotify@CFileDialog@@MAEHIJPAJ@Z 004b5568   mfc42d:MFC42D.DLL
 0004:0000156c       __imp_?OnOK@CCommonDialog@@MAEXXZ 004b556c   mfc42d:MFC42D.DLL
 0004:00001570       __imp_?OnCancel@CCommonDialog@@MAEXXZ 004b5570   mfc42d:MFC42D.DLL
 0004:00001574       __imp_?OnShareViolation@CFileDialog@@MAEIPBD@Z 004b5574   mfc42d:MFC42D.DLL
 0004:00001578       __imp_?OnFileNameOK@CFileDialog@@MAEHXZ 004b5578   mfc42d:MFC42D.DLL
 0004:0000157c       __imp_?OnLBSelChangedNotify@CFileDialog@@MAEXIII@Z 004b557c   mfc42d:MFC42D.DLL
 0004:00001580       __imp_?OnInitDone@CFileDialog@@MAEXXZ 004b5580   mfc42d:MFC42D.DLL
 0004:00001584       __imp_?OnFileNameChange@CFileDialog@@MAEXXZ 004b5584   mfc42d:MFC42D.DLL
 0004:00001588       __imp_?OnFolderChange@CFileDialog@@MAEXXZ 004b5588   mfc42d:MFC42D.DLL
 0004:0000158c       __imp_?OnTypeChange@CFileDialog@@MAEXXZ 004b558c   mfc42d:MFC42D.DLL
 0004:00001590       __imp_?DDX_Text@@YGXPAVCDataExchange@@HAAVCString@@@Z 004b5590   mfc42d:MFC42D.DLL
 0004:00001594       __imp_?ResizePalette@CPalette@@QAEHI@Z 004b5594   mfc42d:MFC42D.DLL
 0004:00001598       __imp_?SetPaletteEntries@CPalette@@QAEIIIPAUtagPALETTEENTRY@@@Z 004b5598   mfc42d:MFC42D.DLL
 0004:0000159c       __imp_??1CPalette@@UAE@XZ  004b559c   mfc42d:MFC42D.DLL
 0004:000015a0       __imp_?GetRuntimeClass@CPalette@@UBEPAUCRuntimeClass@@XZ 004b55a0   mfc42d:MFC42D.DLL
 0004:000015a4       __imp_?AssertValid@CGdiObject@@UBEXXZ 004b55a4   mfc42d:MFC42D.DLL
 0004:000015a8       __imp_?Dump@CGdiObject@@UBEXAAVCDumpContext@@@Z 004b55a8   mfc42d:MFC42D.DLL
 0004:000015ac       __imp_??1CSliderCtrl@@UAE@XZ 004b55ac   mfc42d:MFC42D.DLL
 0004:000015b0       __imp_?GetWindowRect@CWnd@@QBEXPAUtagRECT@@@Z 004b55b0   mfc42d:MFC42D.DLL
 0004:000015b4       __imp_?OnLButtonDblClk@CWnd@@IAEXIVCPoint@@@Z 004b55b4   mfc42d:MFC42D.DLL
 0004:000015b8       __imp_?TopLeft@CRect@@QAEAAVCPoint@@XZ 004b55b8   mfc42d:MFC42D.DLL
 0004:000015bc       __imp_?Rectangle@CDC@@QAEHPBUtagRECT@@@Z 004b55bc   mfc42d:MFC42D.DLL
 0004:000015c0       __imp_?OnTimer@CWnd@@IAEXI@Z 004b55c0   mfc42d:MFC42D.DLL
 0004:000015c4       __imp_??0CRect@@QAE@PBUtagRECT@@@Z 004b55c4   mfc42d:MFC42D.DLL
 0004:000015c8       __imp_?GetScrollPos@CWnd@@QBEHH@Z 004b55c8   mfc42d:MFC42D.DLL
 0004:000015cc       __imp_??0CRect@@QAE@ABUtagRECT@@@Z 004b55cc   mfc42d:MFC42D.DLL
 0004:000015d0       __imp_?OnMouseMove@CWnd@@IAEXIVCPoint@@@Z 004b55d0   mfc42d:MFC42D.DLL
 0004:000015d4       __imp_?OnRButtonUp@CWnd@@IAEXIVCPoint@@@Z 004b55d4   mfc42d:MFC42D.DLL
 0004:000015d8       __imp_?SetScrollPos@CWnd@@QAEHHHH@Z 004b55d8   mfc42d:MFC42D.DLL
 0004:000015dc       __imp_?GetDC@CWnd@@QAEPAVCDC@@XZ 004b55dc   mfc42d:MFC42D.DLL
 0004:000015e0       __imp_?CreateSolidBrush@CBrush@@QAEHK@Z 004b55e0   mfc42d:MFC42D.DLL
 0004:000015e4       __imp_??0CRect@@QAE@HHHH@Z 004b55e4   mfc42d:MFC42D.DLL
 0004:000015e8       __imp_?SetRect@CRect@@QAEXHHHH@Z 004b55e8   mfc42d:MFC42D.DLL
 0004:000015ec       __imp_??BCRect@@QAEPAUtagRECT@@XZ 004b55ec   mfc42d:MFC42D.DLL
 0004:000015f0       __imp_?Rectangle@CDC@@QAEHHHHH@Z 004b55f0   mfc42d:MFC42D.DLL
 0004:000015f4       __imp_?ReleaseDC@CWnd@@QAEHPAVCDC@@@Z 004b55f4   mfc42d:MFC42D.DLL
 0004:000015f8       __imp_?OnCreate@CView@@IAEHPAUtagCREATESTRUCTA@@@Z 004b55f8   mfc42d:MFC42D.DLL
 0004:000015fc       __imp_??0CStatusBar@@QAE@XZ 004b55fc   mfc42d:MFC42D.DLL
 0004:00001600       __imp_?Create@CStatusBar@@QAEHPAVCWnd@@KI@Z 004b5600   mfc42d:MFC42D.DLL
 0004:00001604       __imp_?SetIndicators@CStatusBar@@QAEHPBIH@Z 004b5604   mfc42d:MFC42D.DLL
 0004:00001608       __imp_?SetPaneInfo@CStatusBar@@QAEXHIIH@Z 004b5608   mfc42d:MFC42D.DLL
 0004:0000160c       __imp_?SetPaneText@CStatusBar@@QAEHHPBDH@Z 004b560c   mfc42d:MFC42D.DLL
 0004:00001610       __imp_?SetScrollRange@CWnd@@QAEXHHHH@Z 004b5610   mfc42d:MFC42D.DLL
 0004:00001614       __imp_?OnInitialUpdate@CView@@UAEXXZ 004b5614   mfc42d:MFC42D.DLL
 0004:00001618       __imp_??0CString@@QAE@PBD@Z 004b5618   mfc42d:MFC42D.DLL
 0004:0000161c       __imp_?MakeLower@CString@@QAEXXZ 004b561c   mfc42d:MFC42D.DLL
 0004:00001620       __imp_?OnScrollBy@CView@@UAEHVCSize@@H@Z 004b5620   mfc42d:MFC42D.DLL
 0004:00001624       __imp_?OnScroll@CView@@UAEHIIH@Z 004b5624   mfc42d:MFC42D.DLL
 0004:00001628       __imp_?OnHScroll@CWnd@@IAEXIIPAVCScrollBar@@@Z 004b5628   mfc42d:MFC42D.DLL
 0004:0000162c       __imp_??0CPoint@@QAE@HH@Z  004b562c   mfc42d:MFC42D.DLL
 0004:00001630       __imp_?OnVScroll@CWnd@@IAEXIIPAVCScrollBar@@@Z 004b5630   mfc42d:MFC42D.DLL
 0004:00001634       __imp_?OnLButtonUp@CWnd@@IAEXIVCPoint@@@Z 004b5634   mfc42d:MFC42D.DLL
 0004:00001638       __imp_?Dump@CView@@UBEXAAVCDumpContext@@@Z 004b5638   mfc42d:MFC42D.DLL
 0004:0000163c       __imp_?AssertValid@CView@@UBEXXZ 004b563c   mfc42d:MFC42D.DLL
 0004:00001640       __imp_?RealizePalette@CDC@@QAEIXZ 004b5640   mfc42d:MFC42D.DLL
 0004:00001644       __imp_??0CBrush@@QAE@XZ    004b5644   mfc42d:MFC42D.DLL
 0004:00001648       __imp_?CreateHatchBrush@CBrush@@QAEHHK@Z 004b5648   mfc42d:MFC42D.DLL
 0004:0000164c       __imp_?SelectObject@CDC@@QAEPAVCBrush@@PAV2@@Z 004b564c   mfc42d:MFC42D.DLL
 0004:00001650       __imp_?GetSafeHdc@CDC@@QBEPAUHDC__@@XZ 004b5650   mfc42d:MFC42D.DLL
 0004:00001654       __imp_?SelectPalette@CDC@@QAEPAVCPalette@@PAV2@H@Z 004b5654   mfc42d:MFC42D.DLL
 0004:00001658       __imp_?AfxGetModuleState@@YGPAVAFX_MODULE_STATE@@XZ 004b5658   mfc42d:MFC42D.DLL
 0004:0000165c       __imp_?AfxWinMain@@YGHPAUHINSTANCE__@@0PADH@Z 004b565c   mfc42d:MFC42D.DLL
 0004:00001660       __imp_?messageMap@CView@@1UAFX_MSGMAP@@B 004b5660   mfc42d:MFC42D.DLL
 0004:00001664       __imp_??0CView@@IAE@XZ     004b5664   mfc42d:MFC42D.DLL
 0004:00001668       __imp_??1CView@@UAE@XZ     004b5668   mfc42d:MFC42D.DLL
 0004:0000166c       __imp_?CalcWindowRect@CView@@UAEXPAUtagRECT@@I@Z 004b566c   mfc42d:MFC42D.DLL
 0004:00001670       __imp_?OnPrepareDC@CView@@UAEXPAVCDC@@PAUCPrintInfo@@@Z 004b5670   mfc42d:MFC42D.DLL
 0004:00001674       __imp_?OnActivateFrame@CView@@MAEXIPAVCFrameWnd@@@Z 004b5674   mfc42d:MFC42D.DLL
 0004:00001678       __imp_?classCView@CView@@2UCRuntimeClass@@B 004b5678   mfc42d:MFC42D.DLL
 0004:0000167c       __imp_?SetCurSel@CComboBox@@QAEHH@Z 004b567c   mfc42d:MFC42D.DLL
 0004:00001680       __imp_??0CPaintDC@@QAE@PAVCWnd@@@Z 004b5680   mfc42d:MFC42D.DLL
 0004:00001684       __imp_?AddHead@CObList@@QAEPAU__POSITION@@PAVCObject@@@Z 004b5684   mfc42d:MFC42D.DLL
 0004:00001688       __imp_?GetRuntimeClass@CWnd@@UBEPAUCRuntimeClass@@XZ 004b5688   mfc42d:MFC42D.DLL
 0004:0000168c       __imp_?DDX_CBIndex@@YGXPAVCDataExchange@@HAAH@Z 004b568c   mfc42d:MFC42D.DLL
 0004:00001690       __imp_?GetCount@CListBox@@QBEHXZ 004b5690   mfc42d:MFC42D.DLL
 0004:00001694       __imp_?AddString@CComboBox@@QAEHPBD@Z 004b5694   mfc42d:MFC42D.DLL
 0004:00001698       __imp_?DDX_CBString@@YGXPAVCDataExchange@@HAAVCString@@@Z 004b5698   mfc42d:MFC42D.DLL
 0004:0000169c       __imp_??0CComboBox@@QAE@XZ 004b569c   mfc42d:MFC42D.DLL
 0004:000016a0       __imp_??1CComboBox@@UAE@XZ 004b56a0   mfc42d:MFC42D.DLL
 0004:000016a4       __imp_?GetSelItems@CListBox@@QBEHHPAH@Z 004b56a4   mfc42d:MFC42D.DLL
 0004:000016a8       __imp_?GetText@CListBox@@QBEHHPAD@Z 004b56a8   mfc42d:MFC42D.DLL
 0004:000016ac       __imp_??0CStringList@@QAE@H@Z 004b56ac   mfc42d:MFC42D.DLL
 0004:000016b0       __imp_??1CStringList@@UAE@XZ 004b56b0   mfc42d:MFC42D.DLL
 0004:000016b4       __imp_?Create@CPlex@@SGPAU1@AAPAU1@II@Z 004b56b4   mfc42d:MFC42D.DLL
 0004:000016b8       __imp_?Write@CArchive@@QAEXPBXI@Z 004b56b8   mfc42d:MFC42D.DLL
 0004:000016bc       __imp_?Read@CArchive@@QAEIPAXI@Z 004b56bc   mfc42d:MFC42D.DLL
 0004:000016c0       __imp_?AssertValid@CObject@@UBEXXZ 004b56c0   mfc42d:MFC42D.DLL
 0004:000016c4       __imp_?Dump@CObject@@UBEXAAVCDumpContext@@@Z 004b56c4   mfc42d:MFC42D.DLL
 0004:000016c8       __imp_??6CDumpContext@@QAEAAV0@H@Z 004b56c8   mfc42d:MFC42D.DLL
 0004:000016cc       __imp_?GetDepth@CDumpContext@@QBEHXZ 004b56cc   mfc42d:MFC42D.DLL
 0004:000016d0       __imp_??6CDumpContext@@QAEAAV0@PBD@Z 004b56d0   mfc42d:MFC42D.DLL
 0004:000016d4       __imp_?WriteCount@CArchive@@QAEXK@Z 004b56d4   mfc42d:MFC42D.DLL
 0004:000016d8       __imp_?ReadCount@CArchive@@QAEKXZ 004b56d8   mfc42d:MFC42D.DLL
 0004:000016dc       __imp_??0CObject@@IAE@XZ   004b56dc   mfc42d:MFC42D.DLL
 0004:000016e0       __imp_??1CObject@@UAE@XZ   004b56e0   mfc42d:MFC42D.DLL
 0004:000016e4       __imp_?GetRuntimeClass@CObject@@UBEPAUCRuntimeClass@@XZ 004b56e4   mfc42d:MFC42D.DLL
 0004:000016e8       __imp_?DDX_Check@@YGXPAVCDataExchange@@HAAH@Z 004b56e8   mfc42d:MFC42D.DLL
 0004:000016ec       __imp_??0CPalette@@QAE@XZ  004b56ec   mfc42d:MFC42D.DLL
 0004:000016f0       __imp_?CreatePalette@CPalette@@QAEHPAUtagLOGPALETTE@@@Z 004b56f0   mfc42d:MFC42D.DLL
 0004:000016f4       __imp_?AppendMenuA@CMenu@@QAEHIIPBD@Z 004b56f4   mfc42d:MFC42D.DLL
 0004:000016f8       __imp_?FromHandle@CDC@@SGPAV1@PAUHDC__@@@Z 004b56f8   mfc42d:MFC42D.DLL
 0004:000016fc       __imp_?FillRect@CDC@@QAEXPBUtagRECT@@PAVCBrush@@@Z 004b56fc   mfc42d:MFC42D.DLL
 0004:00001700       __imp_??0CBrush@@QAE@K@Z   004b5700   mfc42d:MFC42D.DLL
 0004:00001704       __imp_?FrameRect@CDC@@QAEXPBUtagRECT@@PAVCBrush@@@Z 004b5704   mfc42d:MFC42D.DLL
 0004:00001708       __imp_??1CBrush@@UAE@XZ    004b5708   mfc42d:MFC42D.DLL
 0004:0000170c       __imp_?Detach@CMenu@@QAEPAUHMENU__@@XZ 004b570c   mfc42d:MFC42D.DLL
 0004:00001710       __imp_?CreateMenu@CMenu@@QAEHXZ 004b5710   mfc42d:MFC42D.DLL
 0004:00001714       __imp_?GetRuntimeClass@CMenu@@UBEPAUCRuntimeClass@@XZ 004b5714   mfc42d:MFC42D.DLL
 0004:00001718       __imp_?AssertValid@CMenu@@UBEXXZ 004b5718   mfc42d:MFC42D.DLL
 0004:0000171c       __imp_?Dump@CMenu@@UBEXAAVCDumpContext@@@Z 004b571c   mfc42d:MFC42D.DLL
 0004:00001720       __imp_?BeginWaitCursor@CCmdTarget@@QAEXXZ 004b5720   mfc42d:MFC42D.DLL
 0004:00001724       __imp_?EndWaitCursor@CCmdTarget@@QAEXXZ 004b5724   mfc42d:MFC42D.DLL
 0004:00001728       __imp_?Create@CDialogBar@@QAEHPAVCWnd@@III@Z 004b5728   mfc42d:MFC42D.DLL
 0004:0000172c       __imp_?InsertItem@CTabCtrl@@QAEHHPAUtagTCITEMA@@@Z 004b572c   mfc42d:MFC42D.DLL
 0004:00001730       __imp_?SetCurSel@CTabCtrl@@QAEHH@Z 004b5730   mfc42d:MFC42D.DLL
 0004:00001734       __imp_?GetFocus@CWnd@@SGPAV1@XZ 004b5734   mfc42d:MFC42D.DLL
 0004:00001738       __imp_?OnSize@CWnd@@IAEXIHH@Z 004b5738   mfc42d:MFC42D.DLL
 0004:0000173c       __imp_?BringWindowToTop@CWnd@@QAEXXZ 004b573c   mfc42d:MFC42D.DLL
 0004:00001740       __imp_??0CDialogBar@@QAE@XZ 004b5740   mfc42d:MFC42D.DLL
 0004:00001744       __imp_??1CDialogBar@@UAE@XZ 004b5744   mfc42d:MFC42D.DLL
 0004:00001748       __imp_?GetRuntimeClass@CDialogBar@@UBEPAUCRuntimeClass@@XZ 004b5748   mfc42d:MFC42D.DLL
 0004:0000174c       __imp_?DestroyWindow@CControlBar@@UAEHXZ 004b574c   mfc42d:MFC42D.DLL
 0004:00001750       __imp_?PreCreateWindow@CControlBar@@UAEHAAUtagCREATESTRUCTA@@@Z 004b5750   mfc42d:MFC42D.DLL
 0004:00001754       __imp_?PreTranslateMessage@CControlBar@@UAEHPAUtagMSG@@@Z 004b5754   mfc42d:MFC42D.DLL
 0004:00001758       __imp_?WindowProc@CControlBar@@UAEJIIJ@Z 004b5758   mfc42d:MFC42D.DLL
 0004:0000175c       __imp_?PostNcDestroy@CControlBar@@UAEXXZ 004b575c   mfc42d:MFC42D.DLL
 0004:00001760       __imp_?SetOccDialogInfo@CDialogBar@@MAEHPAU_AFX_OCC_DIALOG_INFO@@@Z 004b5760   mfc42d:MFC42D.DLL
 0004:00001764       __imp_?CalcFixedLayout@CDialogBar@@UAE?AVCSize@@HH@Z 004b5764   mfc42d:MFC42D.DLL
 0004:00001768       __imp_?CalcDynamicLayout@CControlBar@@UAE?AVCSize@@HK@Z 004b5768   mfc42d:MFC42D.DLL
 0004:0000176c       __imp_?OnUpdateCmdUI@CDialogBar@@UAEXPAVCFrameWnd@@H@Z 004b576c   mfc42d:MFC42D.DLL
 0004:00001770       __imp_?DelayShow@CControlBar@@UAEXH@Z 004b5770   mfc42d:MFC42D.DLL
 0004:00001774       __imp_?IsVisible@CControlBar@@UBEHXZ 004b5774   mfc42d:MFC42D.DLL
 0004:00001778       __imp_?RecalcDelayShow@CControlBar@@UAEKPAUAFX_SIZEPARENTPARAMS@@@Z 004b5778   mfc42d:MFC42D.DLL
 0004:0000177c       __imp_?IsDockBar@CControlBar@@UBEHXZ 004b577c   mfc42d:MFC42D.DLL
 0004:00001780       __imp_?OnBarStyleChange@CControlBar@@UAEXKK@Z 004b5780   mfc42d:MFC42D.DLL
 0004:00001784       __imp_?DoPaint@CControlBar@@UAEXPAVCDC@@@Z 004b5784   mfc42d:MFC42D.DLL
 0004:00001788       __imp_?SetStatusText@CControlBar@@UAEHH@Z 004b5788   mfc42d:MFC42D.DLL
 0004:0000178c       __imp_?BitBlt@CDC@@QAEHHHHHPAV1@HHK@Z 004b578c   mfc42d:MFC42D.DLL
 0004:00001790       __imp_?OnCreate@CWnd@@IAEHPAUtagCREATESTRUCTA@@@Z 004b5790   mfc42d:MFC42D.DLL
 0004:00001794       __imp_?CenterWindow@CWnd@@QAEXPAV1@@Z 004b5794   mfc42d:MFC42D.DLL
 0004:00001798       __imp_?SetTimer@CWnd@@QAEIIIP6GXPAUHWND__@@IIK@Z@Z 004b5798   mfc42d:MFC42D.DLL
 0004:0000179c       __imp_?AfxGetMainWnd@@YGPAVCWnd@@XZ 004b579c   mfc42d:MFC42D.DLL
 0004:000017a0       __imp_??3CObject@@SGXPAX@Z 004b57a0   mfc42d:MFC42D.DLL
 0004:000017a4       __imp_??2CObject@@SGPAXI@Z 004b57a4   mfc42d:MFC42D.DLL
 0004:000017a8       __imp_?SetOccDialogInfo@CWnd@@MAEHPAU_AFX_OCC_DIALOG_INFO@@@Z 004b57a8   mfc42d:MFC42D.DLL
 0004:000017ac       __imp_?IsFrameWnd@CWnd@@UBEHXZ 004b57ac   mfc42d:MFC42D.DLL
 0004:000017b0       __imp_?CheckAutoCenter@CWnd@@UAEHXZ 004b57b0   mfc42d:MFC42D.DLL
 0004:000017b4       __imp_?OnChildNotify@CWnd@@MAEHIIJPAJ@Z 004b57b4   mfc42d:MFC42D.DLL
 0004:000017b8       __imp_?PostNcDestroy@CWnd@@MAEXXZ 004b57b8   mfc42d:MFC42D.DLL
 0004:000017bc       __imp_?DefWindowProcA@CWnd@@MAEJIIJ@Z 004b57bc   mfc42d:MFC42D.DLL
 0004:000017c0       __imp_?OnWndMsg@CWnd@@MAEHIIJPAJ@Z 004b57c0   mfc42d:MFC42D.DLL
 0004:000017c4       __imp_?WindowProc@CWnd@@MAEJIIJ@Z 004b57c4   mfc42d:MFC42D.DLL
 0004:000017c8       __imp_?OnAmbientProperty@CWnd@@UAEHPAVCOleControlSite@@JPAUtagVARIANT@@@Z 004b57c8   mfc42d:MFC42D.DLL
 0004:000017cc       __imp_?PreTranslateMessage@CWnd@@UAEHPAUtagMSG@@@Z 004b57cc   mfc42d:MFC42D.DLL
 0004:000017d0       __imp_?EndModalState@CWnd@@UAEXXZ 004b57d0   mfc42d:MFC42D.DLL
 0004:000017d4       __imp_?BeginModalState@CWnd@@UAEXXZ 004b57d4   mfc42d:MFC42D.DLL
 0004:000017d8       __imp_?DoDataExchange@CWnd@@MAEXPAVCDataExchange@@@Z 004b57d8   mfc42d:MFC42D.DLL
 0004:000017dc       __imp_?GetSuperWndProcAddr@CWnd@@MAEPAP6GJPAUHWND__@@IIJ@ZXZ 004b57dc   mfc42d:MFC42D.DLL
 0004:000017e0       __imp_?OnNotify@CWnd@@MAEHIJPAJ@Z 004b57e0   mfc42d:MFC42D.DLL
 0004:000017e4       __imp_?OnCommand@CWnd@@MAEHIJ@Z 004b57e4   mfc42d:MFC42D.DLL
 0004:000017e8       __imp_?EndModalLoop@CWnd@@UAEXH@Z 004b57e8   mfc42d:MFC42D.DLL
 0004:000017ec       __imp_?ContinueModal@CWnd@@UAEHXZ 004b57ec   mfc42d:MFC42D.DLL
 0004:000017f0       __imp_?WinHelpA@CWnd@@UAEXKI@Z 004b57f0   mfc42d:MFC42D.DLL
 0004:000017f4       __imp_?GetScrollBarCtrl@CWnd@@UBEPAVCScrollBar@@H@Z 004b57f4   mfc42d:MFC42D.DLL
 0004:000017f8       __imp_?OnToolHitTest@CWnd@@UBEHVCPoint@@PAUtagTOOLINFOA@@@Z 004b57f8   mfc42d:MFC42D.DLL
 0004:000017fc       __imp_?CalcWindowRect@CWnd@@UAEXPAUtagRECT@@I@Z 004b57fc   mfc42d:MFC42D.DLL
 0004:00001800       __imp_?PreCreateWindow@CWnd@@UAEHAAUtagCREATESTRUCTA@@@Z 004b5800   mfc42d:MFC42D.DLL
 0004:00001804       __imp_?DestroyWindow@CWnd@@UAEHXZ 004b5804   mfc42d:MFC42D.DLL
 0004:00001808       __imp_?PreSubclassWindow@CWnd@@UAEXXZ 004b5808   mfc42d:MFC42D.DLL
 0004:0000180c       __imp_?GetConnectionHook@CCmdTarget@@MAEPAUIConnectionPoint@@ABU_GUID@@@Z 004b580c   mfc42d:MFC42D.DLL
 0004:00001810       __imp_?GetExtraConnectionPoints@CCmdTarget@@MAEHPAVCPtrArray@@@Z 004b5810   mfc42d:MFC42D.DLL
 0004:00001814       __imp_?GetInterfaceHook@CCmdTarget@@UAEPAUIUnknown@@PBX@Z 004b5814   mfc42d:MFC42D.DLL
 0004:00001818       __imp_?OnCreateAggregates@CCmdTarget@@UAEHXZ 004b5818   mfc42d:MFC42D.DLL
 0004:0000181c       __imp_?GetEventSinkMap@CCmdTarget@@MBEPBUAFX_EVENTSINKMAP@@XZ 004b581c   mfc42d:MFC42D.DLL
 0004:00001820       __imp_?GetInterfaceMap@CCmdTarget@@MBEPBUAFX_INTERFACEMAP@@XZ 004b5820   mfc42d:MFC42D.DLL
 0004:00001824       __imp_?GetConnectionMap@CCmdTarget@@MBEPBUAFX_CONNECTIONMAP@@XZ 004b5824   mfc42d:MFC42D.DLL
 0004:00001828       __imp_?GetDispatchMap@CCmdTarget@@MBEPBUAFX_DISPMAP@@XZ 004b5828   mfc42d:MFC42D.DLL
 0004:0000182c       __imp_?GetCommandMap@CCmdTarget@@MBEPBUAFX_OLECMDMAP@@XZ 004b582c   mfc42d:MFC42D.DLL
 0004:00001830       __imp_?GetMessageMap@CWnd@@MBEPBUAFX_MSGMAP@@XZ 004b5830   mfc42d:MFC42D.DLL
 0004:00001834       __imp_?GetTypeLib@CCmdTarget@@UAEJKPAPAUITypeLib@@@Z 004b5834   mfc42d:MFC42D.DLL
 0004:00001838       __imp_?GetTypeLibCache@CCmdTarget@@UAEPAVCTypeLibCache@@XZ 004b5838   mfc42d:MFC42D.DLL
 0004:0000183c       __imp_?GetTypeInfoCount@CCmdTarget@@UAEIXZ 004b583c   mfc42d:MFC42D.DLL
 0004:00001840       __imp_?GetDispatchIID@CCmdTarget@@UAEHPAU_GUID@@@Z 004b5840   mfc42d:MFC42D.DLL
 0004:00001844       __imp_?IsInvokeAllowed@CCmdTarget@@UAEHJ@Z 004b5844   mfc42d:MFC42D.DLL
 0004:00001848       __imp_?OnFinalRelease@CWnd@@UAEXXZ 004b5848   mfc42d:MFC42D.DLL
 0004:0000184c       __imp_?OnCmdMsg@CCmdTarget@@UAEHIHPAXPAUAFX_CMDHANDLERINFO@@@Z 004b584c   mfc42d:MFC42D.DLL
 0004:00001850       __imp_?Dump@CWnd@@UBEXAAVCDumpContext@@@Z 004b5850   mfc42d:MFC42D.DLL
 0004:00001854       __imp_?AssertValid@CWnd@@UBEXXZ 004b5854   mfc42d:MFC42D.DLL
 0004:00001858       __imp_?Serialize@CObject@@UAEXAAVCArchive@@@Z 004b5858   mfc42d:MFC42D.DLL
 0004:0000185c       __imp_??1CWnd@@UAE@XZ      004b585c   mfc42d:MFC42D.DLL
 0004:00001860       __imp_??0CWnd@@QAE@XZ      004b5860   mfc42d:MFC42D.DLL
 0004:00001864       __imp_?classCWnd@CWnd@@2UCRuntimeClass@@B 004b5864   mfc42d:MFC42D.DLL
 0004:00001868       __imp_?GetProperty@CWnd@@QBEXJGPAX@Z 004b5868   mfc42d:MFC42D.DLL
 0004:0000186c       __imp_?SetProperty@CWnd@@QAAXJGZZ 004b586c   mfc42d:MFC42D.DLL
 0004:00001870       __imp_?InvokeHelper@CWnd@@QAAXJGGPAXPBEZZ 004b5870   mfc42d:MFC42D.DLL
 0004:00001874       __imp_??1CObList@@UAE@XZ   004b5874   mfc42d:MFC42D.DLL
 0004:00001878       __imp_??1CString@@QAE@XZ   004b5878   mfc42d:MFC42D.DLL
 0004:0000187c       __imp_??1CStdioFile@@UAE@XZ 004b587c   mfc42d:MFC42D.DLL
 0004:00001880       __imp_?WriteString@CStdioFile@@UAEXPBD@Z 004b5880   mfc42d:MFC42D.DLL
 0004:00001884       __imp_??0CStdioFile@@QAE@PBDI@Z 004b5884   mfc42d:MFC42D.DLL
 0004:00001888       __imp_?UpdateAllViews@CDocument@@QAEXPAVCView@@JPAVCObject@@@Z 004b5888   mfc42d:MFC42D.DLL
 0004:0000188c       __imp_?AfxGetApp@@YGPAVCWinApp@@XZ 004b588c   mfc42d:MFC42D.DLL
 0004:00001890       __imp_??BCString@@QBEPBDXZ 004b5890   mfc42d:MFC42D.DLL
 0004:00001894       __imp_?CreateEx@CWnd@@QAEHKPBD0KHHHHPAUHWND__@@PAUHMENU__@@PAX@Z 004b5894   mfc42d:MFC42D.DLL
 0004:00001898       __imp_??0CString@@QAE@XZ   004b5898   mfc42d:MFC42D.DLL
 0004:0000189c       __imp_?IsKindOf@CObject@@QBEHPBUCRuntimeClass@@@Z 004b589c   mfc42d:MFC42D.DLL
 0004:000018a0       __imp_?GetNext@CObList@@QAEAAPAVCObject@@AAPAU__POSITION@@@Z 004b58a0   mfc42d:MFC42D.DLL
 0004:000018a4       __imp_?GetHeadPosition@CObList@@QBEPAU__POSITION@@XZ 004b58a4   mfc42d:MFC42D.DLL
 0004:000018a8       __imp_??0CObList@@QAE@H@Z  004b58a8   mfc42d:MFC42D.DLL
 0004:000018ac       __imp_?GetPathName@CDocument@@QBEABVCString@@XZ 004b58ac   mfc42d:MFC42D.DLL
 0004:000018b0       __imp_?GetNext@CPtrList@@QAEAAPAXAAPAU__POSITION@@@Z 004b58b0   mfc42d:MFC42D.DLL
 0004:000018b4       __imp_?GetHeadPosition@CPtrList@@QBEPAU__POSITION@@XZ 004b58b4   mfc42d:MFC42D.DLL
 0004:000018b8       __imp_??1CPtrList@@UAE@XZ  004b58b8   mfc42d:MFC42D.DLL
 0004:000018bc       __imp_?AfxMessageBox@@YGHPBDII@Z 004b58bc   mfc42d:MFC42D.DLL
 0004:000018c0       __imp_?AddTail@CPtrList@@QAEPAU__POSITION@@PAX@Z 004b58c0   mfc42d:MFC42D.DLL
 0004:000018c4       __imp_??0CPtrList@@QAE@H@Z 004b58c4   mfc42d:MFC42D.DLL
 0004:000018c8       __imp_?OnFilePrintSetup@CWinApp@@IAEXXZ 004b58c8   mfc42d:MFC42D.DLL
 0004:000018cc       __imp_?OnFileOpen@CWinApp@@IAEXXZ 004b58cc   mfc42d:MFC42D.DLL
 0004:000018d0       __imp_?OnFileNew@CWinApp@@IAEXXZ 004b58d0   mfc42d:MFC42D.DLL
 0004:000018d4       __imp_?messageMap@CWinApp@@1UAFX_MSGMAP@@B 004b58d4   mfc42d:MFC42D.DLL
 0004:000018d8       __imp_?WinHelpA@CWinApp@@UAEXKI@Z 004b58d8   mfc42d:MFC42D.DLL
 0004:000018dc       __imp_?OnDDECommand@CWinApp@@UAEHPAD@Z 004b58dc   mfc42d:MFC42D.DLL
 0004:000018e0       __imp_?DoWaitCursor@CWinApp@@UAEXH@Z 004b58e0   mfc42d:MFC42D.DLL
 0004:000018e4       __imp_?DoMessageBox@CWinApp@@UAEHPBDII@Z 004b58e4   mfc42d:MFC42D.DLL
 0004:000018e8       __imp_?SaveAllModified@CWinApp@@UAEHXZ 004b58e8   mfc42d:MFC42D.DLL
 0004:000018ec       __imp_?InitApplication@CWinApp@@UAEHXZ 004b58ec   mfc42d:MFC42D.DLL
 0004:000018f0       __imp_?AddToRecentFileList@CWinApp@@UAEXPBD@Z 004b58f0   mfc42d:MFC42D.DLL
 0004:000018f4       __imp_?OpenDocumentFile@CWinApp@@UAEPAVCDocument@@PBD@Z 004b58f4   mfc42d:MFC42D.DLL
 0004:000018f8       __imp_?Delete@CWinThread@@UAEXXZ 004b58f8   mfc42d:MFC42D.DLL
 0004:000018fc       __imp_?GetMainWnd@CWinThread@@UAEPAVCWnd@@XZ 004b58fc   mfc42d:MFC42D.DLL
 0004:00001900       __imp_?ProcessMessageFilter@CWinThread@@UAEHHPAUtagMSG@@@Z 004b5900   mfc42d:MFC42D.DLL
 0004:00001904       __imp_?ProcessWndProcException@CWinApp@@UAEJPAVCException@@PBUtagMSG@@@Z 004b5904   mfc42d:MFC42D.DLL
 0004:00001908       __imp_?IsIdleMessage@CWinThread@@UAEHPAUtagMSG@@@Z 004b5908   mfc42d:MFC42D.DLL
 0004:0000190c       __imp_?OnIdle@CWinApp@@UAEHJ@Z 004b590c   mfc42d:MFC42D.DLL
 0004:00001910       __imp_?PumpMessage@CWinThread@@UAEHXZ 004b5910   mfc42d:MFC42D.DLL
 0004:00001914       __imp_?PreTranslateMessage@CWinThread@@UAEHPAUtagMSG@@@Z 004b5914   mfc42d:MFC42D.DLL
 0004:00001918       __imp_?Run@CWinApp@@UAEHXZ 004b5918   mfc42d:MFC42D.DLL
 0004:0000191c       __imp_?OnFinalRelease@CCmdTarget@@UAEXXZ 004b591c   mfc42d:MFC42D.DLL
 0004:00001920       __imp_?Dump@CWinApp@@UBEXAAVCDumpContext@@@Z 004b5920   mfc42d:MFC42D.DLL
 0004:00001924       __imp_?AssertValid@CWinApp@@UBEXXZ 004b5924   mfc42d:MFC42D.DLL
 0004:00001928       __imp_?GetRuntimeClass@CWinApp@@UBEPAUCRuntimeClass@@XZ 004b5928   mfc42d:MFC42D.DLL
 0004:0000192c       __imp_??1CWinApp@@UAE@XZ   004b592c   mfc42d:MFC42D.DLL
 0004:00001930       __imp_??0CWinApp@@QAE@PBD@Z 004b5930   mfc42d:MFC42D.DLL
 0004:00001934       __imp_??1CCommandLineInfo@@UAE@XZ 004b5934   mfc42d:MFC42D.DLL
 0004:00001938       __imp_?UpdateWindow@CWnd@@QAEXXZ 004b5938   mfc42d:MFC42D.DLL
 0004:0000193c       __imp_?ShowWindow@CWnd@@QAEHH@Z 004b593c   mfc42d:MFC42D.DLL
 0004:00001940       __imp_?DragAcceptFiles@CWnd@@QAEXH@Z 004b5940   mfc42d:MFC42D.DLL
 0004:00001944       __imp_??H@YG?AVCString@@ABV0@PBD@Z 004b5944   mfc42d:MFC42D.DLL
 0004:00001948       __imp_?RegisterShellFileTypes@CWinApp@@IAEXH@Z 004b5948   mfc42d:MFC42D.DLL
 0004:0000194c       __imp_?EnableShellOpen@CWinApp@@IAEXXZ 004b594c   mfc42d:MFC42D.DLL
 0004:00001950       __imp_?SetIcon@CWnd@@QAEPAUHICON__@@PAU2@H@Z 004b5950   mfc42d:MFC42D.DLL
 0004:00001954       __imp_?LoadIconA@CWinApp@@QBEPAUHICON__@@I@Z 004b5954   mfc42d:MFC42D.DLL
 0004:00001958       __imp_?SendMessageA@CWnd@@QAEJIIJ@Z 004b5958   mfc42d:MFC42D.DLL
 0004:0000195c       __imp_?AddDocTemplate@CWinApp@@QAEXPAVCDocTemplate@@@Z 004b595c   mfc42d:MFC42D.DLL
 0004:00001960       __imp_??0CMultiDocTemplate@@QAE@IPAUCRuntimeClass@@00@Z 004b5960   mfc42d:MFC42D.DLL
 0004:00001964       __imp_?classCMDIChildWnd@CMDIChildWnd@@2UCRuntimeClass@@B 004b5964   mfc42d:MFC42D.DLL
 0004:00001968       __imp_?LoadStdProfileSettings@CWinApp@@IAEXI@Z 004b5968   mfc42d:MFC42D.DLL
 0004:0000196c       __imp_?Enable3dControls@CWinApp@@IAEHXZ 004b596c   mfc42d:MFC42D.DLL
 0004:00001970       __imp_?AfxMessageBox@@YGHIII@Z 004b5970   mfc42d:MFC42D.DLL
 0004:00001974       __imp_?ParseCommandLine@CWinApp@@QAEXAAVCCommandLineInfo@@@Z 004b5974   mfc42d:MFC42D.DLL
 0004:00001978       __imp_??0CCommandLineInfo@@QAE@XZ 004b5978   mfc42d:MFC42D.DLL
 0004:0000197c       __imp_?PreInitDialog@CDialog@@MAEXXZ 004b597c   mfc42d:MFC42D.DLL
 0004:00001980       __imp_?OnCancel@CDialog@@MAEXXZ 004b5980   mfc42d:MFC42D.DLL
 0004:00001984       __imp_?OnOK@CDialog@@MAEXXZ 004b5984   mfc42d:MFC42D.DLL
 0004:00001988       __imp_?OnSetFont@CDialog@@UAEXPAVCFont@@@Z 004b5988   mfc42d:MFC42D.DLL
 0004:0000198c       __imp_?DoModal@CDialog@@UAEHXZ 004b598c   mfc42d:MFC42D.DLL
 0004:00001990       __imp_?SetOccDialogInfo@CDialog@@MAEHPAU_AFX_OCC_DIALOG_INFO@@@Z 004b5990   mfc42d:MFC42D.DLL
 0004:00001994       __imp_?CheckAutoCenter@CDialog@@UAEHXZ 004b5994   mfc42d:MFC42D.DLL
 0004:00001998       __imp_?PreTranslateMessage@CDialog@@UAEHPAUtagMSG@@@Z 004b5998   mfc42d:MFC42D.DLL
 0004:0000199c       __imp_?Create@CWnd@@UAEHPBD0KABUtagRECT@@PAV1@IPAUCCreateContext@@@Z 004b599c   mfc42d:MFC42D.DLL
 0004:000019a0       __imp_?OnCmdMsg@CDialog@@UAEHIHPAXPAUAFX_CMDHANDLERINFO@@@Z 004b59a0   mfc42d:MFC42D.DLL
 0004:000019a4       __imp_?Dump@CDialog@@UBEXAAVCDumpContext@@@Z 004b59a4   mfc42d:MFC42D.DLL
 0004:000019a8       __imp_?AssertValid@CDialog@@UBEXXZ 004b59a8   mfc42d:MFC42D.DLL
 0004:000019ac       __imp_?GetRuntimeClass@CDialog@@UBEPAUCRuntimeClass@@XZ 004b59ac   mfc42d:MFC42D.DLL
 0004:000019b0       __imp_??1CDialog@@UAE@XZ   004b59b0   mfc42d:MFC42D.DLL
 0004:000019b4       __imp_??1CDC@@UAE@XZ       004b59b4   mfc42d:MFC42D.DLL
 0004:000019b8       __imp_??1CBitmap@@UAE@XZ   004b59b8   mfc42d:MFC42D.DLL
 0004:000019bc       __imp_??0CSize@@QAE@XZ     004b59bc   mfc42d:MFC42D.DLL
 0004:000019c0       __imp_??0CPoint@@QAE@XZ    004b59c0   mfc42d:MFC42D.DLL
 0004:000019c4       __imp_??0CBitmap@@QAE@XZ   004b59c4   mfc42d:MFC42D.DLL
 0004:000019c8       __imp_??0CDC@@QAE@XZ       004b59c8   mfc42d:MFC42D.DLL
 0004:000019cc       __imp_??0CDialog@@QAE@IPAVCWnd@@@Z 004b59cc   mfc42d:MFC42D.DLL
 0004:000019d0       __imp_?messageMap@CDialog@@1UAFX_MSGMAP@@B 004b59d0   mfc42d:MFC42D.DLL
 0004:000019d4       __imp_??1CClientDC@@UAE@XZ 004b59d4   mfc42d:MFC42D.DLL
 0004:000019d8       __imp_?AfxAssertFailedLine@@YGHPBDH@Z 004b59d8   mfc42d:MFC42D.DLL
 0004:000019dc       __imp_?GetSafeHandle@CGdiObject@@QBEPAXXZ 004b59dc   mfc42d:MFC42D.DLL
 0004:000019e0       __imp_?SelectObject@CDC@@QAEPAVCBitmap@@PAV2@@Z 004b59e0   mfc42d:MFC42D.DLL
 0004:000019e4       __imp_?CreateCompatibleDC@CDC@@QAEHPAV1@@Z 004b59e4   mfc42d:MFC42D.DLL
 0004:000019e8       __imp_??0CClientDC@@QAE@PAVCWnd@@@Z 004b59e8   mfc42d:MFC42D.DLL
 0004:000019ec       __imp_?GetObjectA@CGdiObject@@QBEHHPAX@Z 004b59ec   mfc42d:MFC42D.DLL
 0004:000019f0       __imp_?LoadBitmapA@CBitmap@@QAEHI@Z 004b59f0   mfc42d:MFC42D.DLL
 0004:000019f4       __imp_?OnInitDialog@CDialog@@UAEHXZ 004b59f4   mfc42d:MFC42D.DLL
 0004:000019f8       __imp_??1CPaintDC@@UAE@XZ  004b59f8   mfc42d:MFC42D.DLL
 0004:000019fc       __imp_?StretchBlt@CDC@@QAEHHHHHPAV1@HHHHK@Z 004b59fc   mfc42d:MFC42D.DLL
 0004:00001a00       __imp_?PostMessageA@CWnd@@QAEHIIJ@Z 004b5a00   mfc42d:MFC42D.DLL
 0004:00001a04       __imp_?messageMap@CWnd@@1UAFX_MSGMAP@@B 004b5a04   mfc42d:MFC42D.DLL
 0004:00001a08       __imp_?GetNextDocTemplate@CWinApp@@QBEPAVCDocTemplate@@AAPAU__POSITION@@@Z 004b5a08   mfc42d:MFC42D.DLL
 0004:00001a0c       __imp_?GetFirstDocTemplatePosition@CWinApp@@QBEPAU__POSITION@@XZ 004b5a0c   mfc42d:MFC42D.DLL
 0004:00001a10       __imp_?IsEmpty@CObList@@QBEHXZ 004b5a10   mfc42d:MFC42D.DLL
 0004:00001a14       __imp_?Close@CStdioFile@@UAEXXZ 004b5a14   mfc42d:MFC42D.DLL
 0004:00001a18       __imp_?Open@CStdioFile@@UAEHPBDIPAVCFileException@@@Z 004b5a18   mfc42d:MFC42D.DLL
 0004:00001a1c       __imp_??0CStdioFile@@QAE@XZ 004b5a1c   mfc42d:MFC42D.DLL
 0004:00001a20       __imp_??1CListBox@@UAE@XZ  004b5a20   mfc42d:MFC42D.DLL
 0004:00001a24       __imp_??4CString@@QAEABV0@PBD@Z 004b5a24   mfc42d:MFC42D.DLL
 0004:00001a28       __imp_?DDX_Text@@YGXPAVCDataExchange@@HAAN@Z 004b5a28   mfc42d:MFC42D.DLL
 0004:00001a2c       __imp_?DDX_Radio@@YGXPAVCDataExchange@@HAAH@Z 004b5a2c   mfc42d:MFC42D.DLL
 0004:00001a30       __imp_?UpdateData@CWnd@@QAEHH@Z 004b5a30   mfc42d:MFC42D.DLL
 0004:00001a34       __imp_?classCDocument@CDocument@@2UCRuntimeClass@@B 004b5a34   mfc42d:MFC42D.DLL
 0004:00001a38       __imp_?messageMap@CDocument@@1UAFX_MSGMAP@@B 004b5a38   mfc42d:MFC42D.DLL
 0004:00001a3c       __imp_?dispatchMap@CCmdTarget@@1UAFX_DISPMAP@@B 004b5a3c   mfc42d:MFC42D.DLL
 0004:00001a40       __imp_?OnIdle@CDocument@@UAEXXZ 004b5a40   mfc42d:MFC42D.DLL
 0004:00001a44       __imp_?GetDefaultAccelerator@CDocument@@UAEPAUHACCEL__@@XZ 004b5a44   mfc42d:MFC42D.DLL
 0004:00001a48       __imp_?GetDefaultMenu@CDocument@@UAEPAUHMENU__@@XZ 004b5a48   mfc42d:MFC42D.DLL
 0004:00001a4c       __imp_?UpdateFrameCounts@CDocument@@UAEXXZ 004b5a4c   mfc42d:MFC42D.DLL
 0004:00001a50       __imp_?DoFileSave@CDocument@@UAEHXZ 004b5a50   mfc42d:MFC42D.DLL
 0004:00001a54       __imp_?DoSave@CDocument@@UAEHPBDH@Z 004b5a54   mfc42d:MFC42D.DLL
 0004:00001a58       __imp_?PreCloseFrame@CDocument@@UAEXPAVCFrameWnd@@@Z 004b5a58   mfc42d:MFC42D.DLL
 0004:00001a5c       __imp_?SaveModified@CDocument@@UAEHXZ 004b5a5c   mfc42d:MFC42D.DLL
 0004:00001a60       __imp_?CanCloseFrame@CDocument@@UAEHPAVCFrameWnd@@@Z 004b5a60   mfc42d:MFC42D.DLL
 0004:00001a64       __imp_?ReleaseFile@CDocument@@UAEXPAVCFile@@H@Z 004b5a64   mfc42d:MFC42D.DLL
 0004:00001a68       __imp_?GetFile@CDocument@@UAEPAVCFile@@PBDIPAVCFileException@@@Z 004b5a68   mfc42d:MFC42D.DLL
 0004:00001a6c       __imp_?ReportSaveLoadException@CDocument@@UAEXPBDPAVCException@@HI@Z 004b5a6c   mfc42d:MFC42D.DLL
 0004:00001a70       __imp_?OnCloseDocument@CDocument@@UAEXXZ 004b5a70   mfc42d:MFC42D.DLL
 0004:00001a74       __imp_?OnSaveDocument@CDocument@@UAEHPBD@Z 004b5a74   mfc42d:MFC42D.DLL
 0004:00001a78       __imp_?OnOpenDocument@CDocument@@UAEHPBD@Z 004b5a78   mfc42d:MFC42D.DLL
 0004:00001a7c       __imp_?DeleteContents@CDocument@@UAEXXZ 004b5a7c   mfc42d:MFC42D.DLL
 0004:00001a80       __imp_?OnChangedViewList@CDocument@@UAEXXZ 004b5a80   mfc42d:MFC42D.DLL
 0004:00001a84       __imp_?GetNextView@CDocument@@UBEPAVCView@@AAPAU__POSITION@@@Z 004b5a84   mfc42d:MFC42D.DLL
 0004:00001a88       __imp_?GetFirstViewPosition@CDocument@@UBEPAU__POSITION@@XZ 004b5a88   mfc42d:MFC42D.DLL
 0004:00001a8c       __imp_?SetModifiedFlag@CDocument@@UAEXH@Z 004b5a8c   mfc42d:MFC42D.DLL
 0004:00001a90       __imp_?IsModified@CDocument@@UAEHXZ 004b5a90   mfc42d:MFC42D.DLL
 0004:00001a94       __imp_?SetPathName@CDocument@@UAEXPBDH@Z 004b5a94   mfc42d:MFC42D.DLL
 0004:00001a98       __imp_?SetTitle@CDocument@@UAEXPBD@Z 004b5a98   mfc42d:MFC42D.DLL
 0004:00001a9c       __imp_?OnFinalRelease@CDocument@@UAEXXZ 004b5a9c   mfc42d:MFC42D.DLL
 0004:00001aa0       __imp_?OnCmdMsg@CDocument@@UAEHIHPAXPAUAFX_CMDHANDLERINFO@@@Z 004b5aa0   mfc42d:MFC42D.DLL
 0004:00001aa4       __imp_??1CDocument@@UAE@XZ 004b5aa4   mfc42d:MFC42D.DLL
 0004:00001aa8       __imp_?AfxOleLockApp@@YGXXZ 004b5aa8   mfc42d:MFC42D.DLL
 0004:00001aac       __imp_??0CDocument@@QAE@XZ 004b5aac   mfc42d:MFC42D.DLL
 0004:00001ab0       __imp_?AfxOleUnlockApp@@YGXXZ 004b5ab0   mfc42d:MFC42D.DLL
 0004:00001ab4       __imp_?OnNewDocument@CDocument@@UAEHXZ 004b5ab4   mfc42d:MFC42D.DLL
 0004:00001ab8       __imp_?Flush@CArchive@@QAEXXZ 004b5ab8   mfc42d:MFC42D.DLL
 0004:00001abc       __imp_?GetFile@CArchive@@QBEPAVCFile@@XZ 004b5abc   mfc42d:MFC42D.DLL
 0004:00001ac0       __imp_?IsStoring@CArchive@@QBEHXZ 004b5ac0   mfc42d:MFC42D.DLL
 0004:00001ac4       __imp_?AssertValid@CDocument@@UBEXXZ 004b5ac4   mfc42d:MFC42D.DLL
 0004:00001ac8       __imp_?GetBitmap@CBitmap@@QAEHPAUtagBITMAP@@@Z 004b5ac8   mfc42d:MFC42D.DLL
 0004:00001acc       __imp_??1CMenu@@UAE@XZ     004b5acc   mfc42d:MFC42D.DLL
 0004:00001ad0       __imp_?DestroyMenu@CMenu@@QAEHXZ 004b5ad0   mfc42d:MFC42D.DLL
 0004:00001ad4       __imp_?TrackPopupMenu@CMenu@@QAEHIHHPAVCWnd@@PBUtagRECT@@@Z 004b5ad4   mfc42d:MFC42D.DLL
 0004:00001ad8       __imp_?ModifyMenuA@CMenu@@QAEHIIIPBD@Z 004b5ad8   mfc42d:MFC42D.DLL
 0004:00001adc       __imp_?GetMenuStringA@CMenu@@QBEHIPADHI@Z 004b5adc   mfc42d:MFC42D.DLL
 0004:00001ae0       __imp_?GetSubMenu@CMenu@@QBEPAV1@H@Z 004b5ae0   mfc42d:MFC42D.DLL
 0004:00001ae4       __imp_?LoadMenuA@CMenu@@QAEHI@Z 004b5ae4   mfc42d:MFC42D.DLL
 0004:00001ae8       __imp_??0CMenu@@QAE@XZ     004b5ae8   mfc42d:MFC42D.DLL
 0004:00001aec       __imp_??2CObject@@SGPAXIPBDH@Z 004b5aec   mfc42d:MFC42D.DLL
 0004:00001af0       __imp_?classCFormView@CFormView@@2UCRuntimeClass@@B 004b5af0   mfc42d:MFC42D.DLL
 0004:00001af4       __imp_?OnEndPrintPreview@CView@@MAEXPAVCDC@@PAUCPrintInfo@@UtagPOINT@@PAVCPreviewView@@@Z 004b5af4   mfc42d:MFC42D.DLL
 0004:00001af8       __imp_?OnEndPrinting@CView@@MAEXPAVCDC@@PAUCPrintInfo@@@Z 004b5af8   mfc42d:MFC42D.DLL
 0004:00001afc       __imp_?OnPrint@CView@@MAEXPAVCDC@@PAUCPrintInfo@@@Z 004b5afc   mfc42d:MFC42D.DLL
 0004:00001b00       __imp_?OnBeginPrinting@CView@@MAEXPAVCDC@@PAUCPrintInfo@@@Z 004b5b00   mfc42d:MFC42D.DLL
 0004:00001b04       __imp_?OnPreparePrinting@CView@@MAEHPAUCPrintInfo@@@Z 004b5b04   mfc42d:MFC42D.DLL
 0004:00001b08       __imp_?OnDraw@CFormView@@MAEXPAVCDC@@@Z 004b5b08   mfc42d:MFC42D.DLL
 0004:00001b0c       __imp_?OnUpdate@CView@@MAEXPAV1@JPAVCObject@@@Z 004b5b0c   mfc42d:MFC42D.DLL
 0004:00001b10       __imp_?OnActivateFrame@CFormView@@MAEXIPAVCFrameWnd@@@Z 004b5b10   mfc42d:MFC42D.DLL
 0004:00001b14       __imp_?OnActivateView@CFormView@@MAEXHPAVCView@@0@Z 004b5b14   mfc42d:MFC42D.DLL
 0004:00001b18       __imp_?OnPrepareDC@CScrollView@@UAEXPAVCDC@@PAUCPrintInfo@@@Z 004b5b18   mfc42d:MFC42D.DLL
 0004:00001b1c       __imp_?OnDragScroll@CView@@UAEKKVCPoint@@@Z 004b5b1c   mfc42d:MFC42D.DLL
 0004:00001b20       __imp_?OnDropEx@CView@@UAEKPAVCOleDataObject@@KKVCPoint@@@Z 004b5b20   mfc42d:MFC42D.DLL
 0004:00001b24       __imp_?OnDrop@CView@@UAEHPAVCOleDataObject@@KVCPoint@@@Z 004b5b24   mfc42d:MFC42D.DLL
 0004:00001b28       __imp_?OnDragLeave@CView@@UAEXXZ 004b5b28   mfc42d:MFC42D.DLL
 0004:00001b2c       __imp_??0CString@@QAE@PBG@Z 004b5b2c   mfc42d:MFC42D.DLL
 0004:00001b30       __imp_?classCPropertyPage@CPropertyPage@@2UCRuntimeClass@@B 004b5b30   mfc42d:MFC42D.DLL
 0004:00001b34       __imp_?OnScrollBy@CScrollView@@UAEHVCSize@@H@Z 004b5b34   mfc42d:MFC42D.DLL
 0004:00001b38       __imp_?OnScroll@CScrollView@@UAEHIIH@Z 004b5b38   mfc42d:MFC42D.DLL
 0004:00001b3c       __imp_?IsSelected@CView@@UBEHPBVCObject@@@Z 004b5b3c   mfc42d:MFC42D.DLL
 0004:00001b40       __imp_?SetOccDialogInfo@CFormView@@MAEHPAU_AFX_OCC_DIALOG_INFO@@@Z 004b5b40   mfc42d:MFC42D.DLL
 0004:00001b44       __imp_?PostNcDestroy@CView@@MAEXXZ 004b5b44   mfc42d:MFC42D.DLL
 0004:00001b48       __imp_?PreTranslateMessage@CFormView@@MAEHPAUtagMSG@@@Z 004b5b48   mfc42d:MFC42D.DLL
 0004:00001b4c       __imp_?GetScrollBarCtrl@CView@@UBEPAVCScrollBar@@H@Z 004b5b4c   mfc42d:MFC42D.DLL
 0004:00001b50       __imp_?CalcWindowRect@CScrollView@@UAEXPAUtagRECT@@I@Z 004b5b50   mfc42d:MFC42D.DLL
 0004:00001b54       __imp_?PreCreateWindow@CView@@MAEHAAUtagCREATESTRUCTA@@@Z 004b5b54   mfc42d:MFC42D.DLL
 0004:00001b58       __imp_?Create@CFormView@@MAEHPBD0KABUtagRECT@@PAVCWnd@@IPAUCCreateContext@@@Z 004b5b58   mfc42d:MFC42D.DLL
 0004:00001b5c       __imp_?OnCmdMsg@CView@@MAEHIHPAXPAUAFX_CMDHANDLERINFO@@@Z 004b5b5c   mfc42d:MFC42D.DLL
 0004:00001b60       __imp_??1CTreeCtrl@@UAE@XZ 004b5b60   mfc42d:MFC42D.DLL
 0004:00001b64       __imp_??0CTreeCtrl@@QAE@XZ 004b5b64   mfc42d:MFC42D.DLL
 0004:00001b68       __imp_??0CFormView@@IAE@I@Z 004b5b68   mfc42d:MFC42D.DLL
 0004:00001b6c       __imp_?LoadStandardCursor@CWinApp@@QBEPAUHICON__@@PBD@Z 004b5b6c   mfc42d:MFC42D.DLL
 0004:00001b70       __imp_?AfxRegisterWndClass@@YGPBDIPAUHICON__@@PAUHBRUSH__@@0@Z 004b5b70   mfc42d:MFC42D.DLL
 0004:00001b74       __imp_?messageMap@CFormView@@1UAFX_MSGMAP@@B 004b5b74   mfc42d:MFC42D.DLL
 0004:00001b78       __imp_?AssertValid@CFormView@@UBEXXZ 004b5b78   mfc42d:MFC42D.DLL
 0004:00001b7c       __imp_?Dump@CFormView@@UBEXAAVCDumpContext@@@Z 004b5b7c   mfc42d:MFC42D.DLL
 0004:00001b80       __imp_?OnCreate@CFormView@@IAEHPAUtagCREATESTRUCTA@@@Z 004b5b80   mfc42d:MFC42D.DLL
 0004:00001b84       __imp_?Height@CRect@@QBEHXZ 004b5b84   mfc42d:MFC42D.DLL
 0004:00001b88       __imp_?Width@CRect@@QBEHXZ 004b5b88   mfc42d:MFC42D.DLL
 0004:00001b8c       __imp_?GetClientRect@CWnd@@QBEXPAUtagRECT@@@Z 004b5b8c   mfc42d:MFC42D.DLL
 0004:00001b90       __imp_??0CRect@@QAE@XZ     004b5b90   mfc42d:MFC42D.DLL
 0004:00001b94       __imp_?SelectItem@CTreeCtrl@@QAEHPAU_TREEITEM@@@Z 004b5b94   mfc42d:MFC42D.DLL
 0004:00001b98       __imp_??ACMapPtrToPtr@@QAEAAPAXPAX@Z 004b5b98   mfc42d:MFC42D.DLL
 0004:00001b9c       __imp_?Expand@CTreeCtrl@@QAEHPAU_TREEITEM@@I@Z 004b5b9c   mfc42d:MFC42D.DLL
 0004:00001ba0       __imp_?GetRootItem@CTreeCtrl@@QBEPAU_TREEITEM@@XZ 004b5ba0   mfc42d:MFC42D.DLL
 0004:00001ba4       __imp_?DeleteAllItems@CTreeCtrl@@QAEHXZ 004b5ba4   mfc42d:MFC42D.DLL
 0004:00001ba8       __imp_?SetImageList@CTreeCtrl@@QAEPAVCImageList@@PAV2@H@Z 004b5ba8   mfc42d:MFC42D.DLL
 0004:00001bac       __imp_?Attach@CImageList@@QAEHPAU_IMAGELIST@@@Z 004b5bac   mfc42d:MFC42D.DLL
 0004:00001bb0       __imp_??0CImageList@@QAE@XZ 004b5bb0   mfc42d:MFC42D.DLL
 0004:00001bb4       __imp_?SetWindowTextA@CWnd@@QAEXPBD@Z 004b5bb4   mfc42d:MFC42D.DLL
 0004:00001bb8       __imp_?GetParent@CWnd@@QBEPAV1@XZ 004b5bb8   mfc42d:MFC42D.DLL
 0004:00001bbc       __imp_?OnInitialUpdate@CFormView@@UAEXXZ 004b5bbc   mfc42d:MFC42D.DLL
 0004:00001bc0       __imp_?GetSafeHwnd@CWnd@@QBEPAUHWND__@@XZ 004b5bc0   mfc42d:MFC42D.DLL
 0004:00001bc4       __imp_?GetDlgItem@CWnd@@QBEPAV1@H@Z 004b5bc4   mfc42d:MFC42D.DLL
 0004:00001bc8       __imp_?OnSize@CScrollView@@QAEXIHH@Z 004b5bc8   mfc42d:MFC42D.DLL
 0004:00001bcc       __imp_?AfxTrace@@YAXPBDZZ  004b5bcc   mfc42d:MFC42D.DLL
 0004:00001bd0       __imp_?InsertItem@CTreeCtrl@@QAEPAU_TREEITEM@@PAUtagTVINSERTSTRUCTA@@@Z 004b5bd0   mfc42d:MFC42D.DLL
 0004:00001bd4       __imp_??2@YAPAXIPBDH@Z     004b5bd4   mfc42d:MFC42D.DLL
 0004:00001bd8       __imp_?GetNextSiblingItem@CTreeCtrl@@QBEPAU_TREEITEM@@PAU2@@Z 004b5bd8   mfc42d:MFC42D.DLL
 0004:00001bdc       __imp_?GetItem@CTreeCtrl@@QBEHPAUtagTVITEMA@@@Z 004b5bdc   mfc42d:MFC42D.DLL
 0004:00001be0       __imp_?GetChildItem@CTreeCtrl@@QBEPAU_TREEITEM@@PAU2@@Z 004b5be0   mfc42d:MFC42D.DLL
 0004:00001be4       __imp_?DeleteItem@CTreeCtrl@@QAEHPAU_TREEITEM@@@Z 004b5be4   mfc42d:MFC42D.DLL
 0004:00001be8       __imp_?GetParentItem@CTreeCtrl@@QBEPAU_TREEITEM@@PAU2@@Z 004b5be8   mfc42d:MFC42D.DLL
 0004:00001bec       __imp_?GetSelectedItem@CTreeCtrl@@QBEPAU_TREEITEM@@XZ 004b5bec   mfc42d:MFC42D.DLL
 0004:00001bf0       __imp_?HitTest@CTreeCtrl@@QBEPAU_TREEITEM@@VCPoint@@PAI@Z 004b5bf0   mfc42d:MFC42D.DLL
 0004:00001bf4       __imp_?ScreenToClient@CWnd@@QBEXPAUtagPOINT@@@Z 004b5bf4   mfc42d:MFC42D.DLL
 0004:00001bf8       __imp_?SetItem@CTreeCtrl@@QAEHPAU_TREEITEM@@IPBDHHIIJ@Z 004b5bf8   mfc42d:MFC42D.DLL
 0004:00001bfc       __imp_?GetImageList@CTreeCtrl@@QBEPAVCImageList@@I@Z 004b5bfc   mfc42d:MFC42D.DLL
 0004:00001c00       __imp_?OnDestroy@CView@@IAEXXZ 004b5c00   mfc42d:MFC42D.DLL
 0004:00001c04       __imp_?Invalidate@CWnd@@QAEXH@Z 004b5c04   mfc42d:MFC42D.DLL
 0004:00001c08       __imp_?RemoveKey@CMapPtrToPtr@@QAEHPAX@Z 004b5c08   mfc42d:MFC42D.DLL
 0004:00001c0c       __imp_?GetPathName@CFileDialog@@QBE?AVCString@@XZ 004b5c0c   mfc42d:MFC42D.DLL
 0004:00001c10       __imp_?DoModal@CFileDialog@@UAEHXZ 004b5c10   mfc42d:MFC42D.DLL
 0004:00001c14       __imp_??0CFileDialog@@QAE@HPBD0K0PAVCWnd@@@Z 004b5c14   mfc42d:MFC42D.DLL
 0004:00001c18       __imp_?AfxIsValidAddress@@YGHPBXIH@Z 004b5c18   mfc42d:MFC42D.DLL
 0004:00001c1c       __imp_?AfxAssertValidObject@@YGXPBVCObject@@PBDH@Z 004b5c1c   mfc42d:MFC42D.DLL
 0004:00001c20       __imp_?FreeDataChain@CPlex@@QAEXXZ 004b5c20   mfc42d:MFC42D.DLL
 0004:00001c24       __imp_?DDX_Text@@YGXPAVCDataExchange@@HAAH@Z 004b5c24   mfc42d:MFC42D.DLL
 0004:00001c28       __imp_?EnableWindow@CWnd@@QAEHH@Z 004b5c28   mfc42d:MFC42D.DLL
 0004:00001c2c       __imp_?MessageBoxA@CWnd@@QAEHPBD0I@Z 004b5c2c   mfc42d:MFC42D.DLL
 0004:00001c30       __imp_?eventsinkMap@CCmdTarget@@1UAFX_EVENTSINKMAP@@B 004b5c30   mfc42d:MFC42D.DLL
 0004:00001c34       __imp_?GetTitle@CDocument@@QBEABVCString@@XZ 004b5c34   mfc42d:MFC42D.DLL
 0004:00001c38       __imp_?GetDocument@CView@@QBEPAVCDocument@@XZ 004b5c38   mfc42d:MFC42D.DLL
 0004:00001c3c       __imp_?ShowScrollBar@CWnd@@QAEXIH@Z 004b5c3c   mfc42d:MFC42D.DLL
 0004:00001c40       __imp_?InvalidateRect@CWnd@@QAEXPBUtagRECT@@H@Z 004b5c40   mfc42d:MFC42D.DLL
 0004:00001c44       __imp_?SetWindowPos@CWnd@@QAEHPBV1@HHHHI@Z 004b5c44   mfc42d:MFC42D.DLL
 0004:00001c48       __imp_?wndTop@CWnd@@2V1@B  004b5c48   mfc42d:MFC42D.DLL
 0004:00001c4c       __imp_?GetBuffer@CString@@QAEPADH@Z 004b5c4c   mfc42d:MFC42D.DLL
 0004:00001c50       __imp_?GetDefaultAccelerator@CFrameWnd@@UAEPAUHACCEL__@@XZ 004b5c50   mfc42d:MFC42D.DLL
 0004:00001c54       __imp_?DelayUpdateFrameMenu@CFrameWnd@@UAEXPAUHMENU__@@@Z 004b5c54   mfc42d:MFC42D.DLL
 0004:00001c58       __imp_?OnWizardFinish@CPropertyPage@@UAEHXZ 004b5c58   mfc42d:MFC42D.DLL
 0004:00001c5c       __imp_?OnWizardNext@CPropertyPage@@UAEJXZ 004b5c5c   mfc42d:MFC42D.DLL
 0004:00001c60       __imp_?OnWizardBack@CPropertyPage@@UAEJXZ 004b5c60   mfc42d:MFC42D.DLL
 0004:00001c64       __imp_?OnQueryCancel@CPropertyPage@@UAEHXZ 004b5c64   mfc42d:MFC42D.DLL
 0004:00001c68       __imp_?OnKillActive@CPropertyPage@@UAEHXZ 004b5c68   mfc42d:MFC42D.DLL
 0004:00001c6c       __imp_?OnSetActive@CPropertyPage@@UAEHXZ 004b5c6c   mfc42d:MFC42D.DLL
 0004:00001c70       __imp_?OnReset@CPropertyPage@@UAEXXZ 004b5c70   mfc42d:MFC42D.DLL
 0004:00001c74       __imp_?OnApply@CPropertyPage@@UAEHXZ 004b5c74   mfc42d:MFC42D.DLL
 0004:00001c78       __imp_?OnCancel@CPropertyPage@@UAEXXZ 004b5c78   mfc42d:MFC42D.DLL
 0004:00001c7c       __imp_?OnOK@CPropertyPage@@UAEXXZ 004b5c7c   mfc42d:MFC42D.DLL
 0004:00001c80       __imp_?PreTranslateMessage@CPropertyPage@@MAEHPAUtagMSG@@@Z 004b5c80   mfc42d:MFC42D.DLL
 0004:00001c84       __imp_?OnNotify@CPropertyPage@@MAEHIJPAJ@Z 004b5c84   mfc42d:MFC42D.DLL
 0004:00001c88       __imp_?Dump@CPropertyPage@@UBEXAAVCDumpContext@@@Z 004b5c88   mfc42d:MFC42D.DLL
 0004:00001c8c       __imp_?AssertValid@CPropertyPage@@UBEXXZ 004b5c8c   mfc42d:MFC42D.DLL
 0004:00001c90       __imp_??1CPropertyPage@@UAE@XZ 004b5c90   mfc42d:MFC42D.DLL
 0004:00001c94       __imp_??0CListBox@@QAE@XZ  004b5c94   mfc42d:MFC42D.DLL
 0004:00001c98       __imp_??0CPropertyPage@@QAE@II@Z 004b5c98   mfc42d:MFC42D.DLL
 0004:00001c9c       __imp_?DDX_LBString@@YGXPAVCDataExchange@@HAAVCString@@@Z 004b5c9c   mfc42d:MFC42D.DLL
 0004:00001ca0       __imp_?messageMap@CPropertyPage@@1UAFX_MSGMAP@@B 004b5ca0   mfc42d:MFC42D.DLL
 0004:00001ca4       __imp_?AddString@CListBox@@QAEHPBD@Z 004b5ca4   mfc42d:MFC42D.DLL
 0004:00001ca8       __imp_?SetTabStops@CListBox@@QAEHHPAH@Z 004b5ca8   mfc42d:MFC42D.DLL
 0004:00001cac       __imp_?interfaceMap@CCmdTarget@@1UAFX_INTERFACEMAP@@B 004b5cac   mfc42d:MFC42D.DLL
 0004:00001cb0       __imp_?GetState@CButton@@QBEIXZ 004b5cb0   mfc42d:MFC42D.DLL
 0004:00001cb4       __imp_?GetText@CListBox@@QBEXHAAVCString@@@Z 004b5cb4   mfc42d:MFC42D.DLL
 0004:00001cb8       __imp_?GetCurSel@CListBox@@QBEHXZ 004b5cb8   mfc42d:MFC42D.DLL
 0004:00001cbc       __imp_?SetDlgItemTextA@CWnd@@QAEXHPBD@Z 004b5cbc   mfc42d:MFC42D.DLL
 0004:00001cc0       __imp_??0CString@@QAE@ABV0@@Z 004b5cc0   mfc42d:MFC42D.DLL
 0004:00001cc4       __imp_?classCDialogBar@CDialogBar@@2UCRuntimeClass@@B 004b5cc4   mfc42d:MFC42D.DLL
 0004:00001cc8       __imp_?messageMap@CDialogBar@@1UAFX_MSGMAP@@B 004b5cc8   mfc42d:MFC42D.DLL
 0004:00001ccc       __imp_?AssertValid@CControlBar@@UBEXXZ 004b5ccc   mfc42d:MFC42D.DLL
 0004:00001cd0       __imp_?Dump@CControlBar@@UBEXAAVCDumpContext@@@Z 004b5cd0   mfc42d:MFC42D.DLL
 0004:00001cd4       __imp_?OnUpdateFrameMenu@CMDIChildWnd@@UAEXHPAVCWnd@@PAUHMENU__@@@Z 004b5cd4   mfc42d:MFC42D.DLL
 0004:00001cd8       __imp_?Create@CMDIChildWnd@@UAEHPBD0KABUtagRECT@@PAVCMDIFrameWnd@@PAUCCreateContext@@@Z 004b5cd8   mfc42d:MFC42D.DLL
 0004:00001cdc       __imp_?ExitHelpMode@CFrameWnd@@UAEXXZ 004b5cdc   mfc42d:MFC42D.DLL
 0004:00001ce0       __imp_?RemoveTail@CObList@@QAEPAVCObject@@XZ 004b5ce0   mfc42d:MFC42D.DLL
 0004:00001ce4       __imp_?GetCount@CObList@@QBEHXZ 004b5ce4   mfc42d:MFC42D.DLL
 0004:00001ce8       __imp_?OnUpdateFrameMenu@CFrameWnd@@UAEXPAUHMENU__@@@Z 004b5ce8   mfc42d:MFC42D.DLL
 0004:00001cec       __imp_?OnUpdateFrameTitle@CMDIChildWnd@@MAEXH@Z 004b5cec   mfc42d:MFC42D.DLL
 0004:00001cf0       __imp_?OnCreateClient@CFrameWnd@@MAEHPAUtagCREATESTRUCTA@@PAUCCreateContext@@@Z 004b5cf0   mfc42d:MFC42D.DLL
 0004:00001cf4       __imp_?NegotiateBorderSpace@CFrameWnd@@UAEHIPAUtagRECT@@@Z 004b5cf4   mfc42d:MFC42D.DLL
 0004:00001cf8       __imp_?GetMessageBar@CMDIChildWnd@@MAEPAVCWnd@@XZ 004b5cf8   mfc42d:MFC42D.DLL
 0004:00001cfc       __imp_?OnSetPreviewMode@CFrameWnd@@UAEXHPAUCPrintPreviewState@@@Z 004b5cfc   mfc42d:MFC42D.DLL
 0004:00001d00       __imp_?ActivateFrame@CMDIChildWnd@@UAEXH@Z 004b5d00   mfc42d:MFC42D.DLL
 0004:00001d04       __imp_?RecalcLayout@CFrameWnd@@UAEXH@Z 004b5d04   mfc42d:MFC42D.DLL
 0004:00001d08       __imp_?GetMessageString@CFrameWnd@@UBEXIAAVCString@@@Z 004b5d08   mfc42d:MFC42D.DLL
 0004:00001d0c       __imp_?GetActiveFrame@CFrameWnd@@UAEPAV1@XZ 004b5d0c   mfc42d:MFC42D.DLL
 0004:00001d10       __imp_?GetActiveDocument@CFrameWnd@@UAEPAVCDocument@@XZ 004b5d10   mfc42d:MFC42D.DLL
 0004:00001d14       __imp_?IsFrameWnd@CFrameWnd@@UBEHXZ 004b5d14   mfc42d:MFC42D.DLL
 0004:00001d18       __imp_?PostNcDestroy@CFrameWnd@@MAEXXZ 004b5d18   mfc42d:MFC42D.DLL
 0004:00001d1c       __imp_?DefWindowProcA@CMDIChildWnd@@MAEJIIJ@Z 004b5d1c   mfc42d:MFC42D.DLL
 0004:00001d20       __imp_?PreTranslateMessage@CMDIChildWnd@@UAEHPAUtagMSG@@@Z 004b5d20   mfc42d:MFC42D.DLL
 0004:00001d24       __imp_?EndModalState@CFrameWnd@@UAEXXZ 004b5d24   mfc42d:MFC42D.DLL
 0004:00001d28       __imp_?BeginModalState@CFrameWnd@@UAEXXZ 004b5d28   mfc42d:MFC42D.DLL
 0004:00001d2c       __imp_?OnCommand@CFrameWnd@@MAEHIJ@Z 004b5d2c   mfc42d:MFC42D.DLL
 0004:00001d30       __imp_?DestroyWindow@CMDIChildWnd@@UAEHXZ 004b5d30   mfc42d:MFC42D.DLL
 0004:00001d34       __imp_?OnCmdMsg@CFrameWnd@@UAEHIHPAXPAUAFX_CMDHANDLERINFO@@@Z 004b5d34   mfc42d:MFC42D.DLL
 0004:00001d38       __imp_?Dump@CMDIChildWnd@@UBEXAAVCDumpContext@@@Z 004b5d38   mfc42d:MFC42D.DLL
 0004:00001d3c       __imp_?AssertValid@CMDIChildWnd@@UBEXXZ 004b5d3c   mfc42d:MFC42D.DLL
 0004:00001d40       __imp_??0CMDIChildWnd@@QAE@XZ 004b5d40   mfc42d:MFC42D.DLL
 0004:00001d44       __imp_??1CFrameWnd@@UAE@XZ 004b5d44   mfc42d:MFC42D.DLL
 0004:00001d48       __imp_?messageMap@CMDIChildWnd@@1UAFX_MSGMAP@@B 004b5d48   mfc42d:MFC42D.DLL
 0004:00001d4c       __imp_?GetIconWndClass@CFrameWnd@@IAEPBDKI@Z 004b5d4c   mfc42d:MFC42D.DLL
 0004:00001d50       __imp_?rectDefault@CFrameWnd@@2VCRect@@B 004b5d50   mfc42d:MFC42D.DLL
 0004:00001d54       __imp_?AfxExtractSubString@@YGHAAVCString@@PBDHD@Z 004b5d54   mfc42d:MFC42D.DLL
 0004:00001d58       __imp_?LoadStringA@CString@@QAEHI@Z 004b5d58   mfc42d:MFC42D.DLL
 0004:00001d5c       __imp_?classCMultiDocTemplate@CMultiDocTemplate@@2UCRuntimeClass@@B 004b5d5c   mfc42d:MFC42D.DLL
 0004:00001d60       __imp_?classCMDIFrameWnd@CMDIFrameWnd@@2UCRuntimeClass@@B 004b5d60   mfc42d:MFC42D.DLL
 0004:00001d64       __imp_?PreCreateWindow@CMDIChildWnd@@UAEHAAUtagCREATESTRUCTA@@@Z 004b5d64   mfc42d:MFC42D.DLL
 0004:00001d68       __imp_?GetItemData@CListBox@@QBEKH@Z 004b5d68   mfc42d:MFC42D.DLL
 0004:00001d6c       __imp_?SetItemData@CListBox@@QAEHHK@Z 004b5d6c   mfc42d:MFC42D.DLL
 0004:00001d70       \177MFC42D_NULL_THUNK_DATA 004b5d70   mfc42d:MFC42D.DLL
 0004:00001d74       __imp_??0COleTemplateServer@@QAE@XZ 004b5d74   mfco42d:MFCO42D.DLL
 0004:00001d78       __imp_??0COleDispatchDriver@@QAE@PAUIDispatch@@H@Z 004b5d78   mfco42d:MFCO42D.DLL
 0004:00001d7c       __imp_?InvokeHelper@COleDispatchDriver@@QAAXJGGPAXPBEZZ 004b5d7c   mfco42d:MFCO42D.DLL
 0004:00001d80       __imp_??0COleVariant@@QAE@ABV0@@Z 004b5d80   mfco42d:MFCO42D.DLL
 0004:00001d84       __imp_??1COleObjectFactory@@UAE@XZ 004b5d84   mfco42d:MFCO42D.DLL
 0004:00001d88       __imp_?ChangeType@COleVariant@@QAEXGPAUtagVARIANT@@@Z 004b5d88   mfco42d:MFCO42D.DLL
 0004:00001d8c       __imp_??1COleDispatchDriver@@QAE@XZ 004b5d8c   mfco42d:MFCO42D.DLL
 0004:00001d90       __imp_?CreateControl@CWnd@@QAEHABU_GUID@@PBDKABUtagRECT@@PAV1@IPAVCFile@@HPAG@Z 004b5d90   mfco42d:MFCO42D.DLL
 0004:00001d94       __imp_??BCOleVariant@@QAEPAUtagVARIANT@@XZ 004b5d94   mfco42d:MFCO42D.DLL
 0004:00001d98       __imp_??0COleVariant@@QAE@ABUtagVARIANT@@@Z 004b5d98   mfco42d:MFCO42D.DLL
 0004:00001d9c       __imp_??0COleVariant@@QAE@XZ 004b5d9c   mfco42d:MFCO42D.DLL
 0004:00001da0       __imp_??1COleVariant@@QAE@XZ 004b5da0   mfco42d:MFCO42D.DLL
 0004:00001da4       __imp_?EnableAutomation@CCmdTarget@@QAEXXZ 004b5da4   mfco42d:MFCO42D.DLL
 0004:00001da8       __imp_?AfxEnableControlContainer@@YAXPAVCOccManager@@@Z 004b5da8   mfco42d:MFCO42D.DLL
 0004:00001dac       __imp_?AfxOleInit@@YGHXZ   004b5dac   mfco42d:MFCO42D.DLL
 0004:00001db0       __imp_?ConnectTemplate@COleTemplateServer@@QAEXABU_GUID@@PAVCDocTemplate@@H@Z 004b5db0   mfco42d:MFCO42D.DLL
 0004:00001db4       __imp_?RegisterAll@COleObjectFactory@@SGHXZ 004b5db4   mfco42d:MFCO42D.DLL
 0004:00001db8       __imp_?RunEmbedded@CWinApp@@QAEHXZ 004b5db8   mfco42d:MFCO42D.DLL
 0004:00001dbc       __imp_?RunAutomated@CWinApp@@QAEHXZ 004b5dbc   mfco42d:MFCO42D.DLL
 0004:00001dc0       __imp_?UpdateRegistry@COleTemplateServer@@QAEXW4OLE_APPTYPE@@PAPBD1@Z 004b5dc0   mfco42d:MFCO42D.DLL
 0004:00001dc4       __imp_?UpdateRegistryAll@COleObjectFactory@@SGHH@Z 004b5dc4   mfco42d:MFCO42D.DLL
 0004:00001dc8       __imp_??4COleVariant@@QAEABV0@QBD@Z 004b5dc8   mfco42d:MFCO42D.DLL
 0004:00001dcc       __imp_??4COleVariant@@QAEABV0@J@Z 004b5dcc   mfco42d:MFCO42D.DLL
 0004:00001dd0       __imp_??4COleVariant@@QAEABV0@N@Z 004b5dd0   mfco42d:MFCO42D.DLL
 0004:00001dd4       __imp_?GetProperty@COleDispatchDriver@@QBEXJGPAX@Z 004b5dd4   mfco42d:MFCO42D.DLL
 0004:00001dd8       __imp_?SetProperty@COleDispatchDriver@@QAAXJGZZ 004b5dd8   mfco42d:MFCO42D.DLL
 0004:00001ddc       __imp_?Clear@COleVariant@@QAEXXZ 004b5ddc   mfco42d:MFCO42D.DLL
 0004:00001de0       \177MFCO42D_NULL_THUNK_DATA 004b5de0   mfco42d:MFCO42D.DLL
 0004:00001de4       __imp__WNetGetUserA@12     004b5de4   mpr:MPR.dll
 0004:00001de8       \177MPR_NULL_THUNK_DATA    004b5de8   mpr:MPR.dll
 0004:00001dec       __imp__strrchr             004b5dec   MSVCRTD:MSVCRTD.dll
 0004:00001df0       __imp__strdup              004b5df0   MSVCRTD:MSVCRTD.dll
 0004:00001df0       __imp___strdup             004b5df0   MSVCRTD:MSVCRTD.dll
 0004:00001df4       __imp__strchr              004b5df4   MSVCRTD:MSVCRTD.dll
 0004:00001df8       __imp__isspace             004b5df8   MSVCRTD:MSVCRTD.dll
 0004:00001dfc       __imp__abs                 004b5dfc   MSVCRTD:MSVCRTD.dll
 0004:00001e00       __imp__ispunct             004b5e00   MSVCRTD:MSVCRTD.dll
 0004:00001e04       __imp__isdigit             004b5e04   MSVCRTD:MSVCRTD.dll
 0004:00001e08       __imp___assert             004b5e08   MSVCRTD:MSVCRTD.dll
 0004:00001e0c       __imp__realloc             004b5e0c   MSVCRTD:MSVCRTD.dll
 0004:00001e10       __imp__exit                004b5e10   MSVCRTD:MSVCRTD.dll
 0004:00001e14       __imp__strncpy             004b5e14   MSVCRTD:MSVCRTD.dll
 0004:00001e18       __imp__atoi                004b5e18   MSVCRTD:MSVCRTD.dll
 0004:00001e1c       __imp__fgets               004b5e1c   MSVCRTD:MSVCRTD.dll
 0004:00001e20       __imp__strlen              004b5e20   MSVCRTD:MSVCRTD.dll
 0004:00001e24       __imp__atan                004b5e24   MSVCRTD:MSVCRTD.dll
 0004:00001e28       __imp__getchar             004b5e28   MSVCRTD:MSVCRTD.dll
 0004:00001e2c       __imp__vprintf             004b5e2c   MSVCRTD:MSVCRTD.dll
 0004:00001e30       __imp__vsprintf            004b5e30   MSVCRTD:MSVCRTD.dll
 0004:00001e34       __imp__vfprintf            004b5e34   MSVCRTD:MSVCRTD.dll
 0004:00001e38       __imp__strcat              004b5e38   MSVCRTD:MSVCRTD.dll
 0004:00001e3c       __imp__strcmp              004b5e3c   MSVCRTD:MSVCRTD.dll
 0004:00001e40       __imp__time                004b5e40   MSVCRTD:MSVCRTD.dll
 0004:00001e44       __imp__localtime           004b5e44   MSVCRTD:MSVCRTD.dll
 0004:00001e48       __imp__floor               004b5e48   MSVCRTD:MSVCRTD.dll
 0004:00001e4c       __imp__sin                 004b5e4c   MSVCRTD:MSVCRTD.dll
 0004:00001e50       __imp____dllonexit         004b5e50   MSVCRTD:MSVCRTD.dll
 0004:00001e54       __imp__ceil                004b5e54   MSVCRTD:MSVCRTD.dll
 0004:00001e58       __imp__fmod                004b5e58   MSVCRTD:MSVCRTD.dll
 0004:00001e5c       __imp__atof                004b5e5c   MSVCRTD:MSVCRTD.dll
 0004:00001e60       __imp__remove              004b5e60   MSVCRTD:MSVCRTD.dll
 0004:00001e64       __imp___ftol               004b5e64   MSVCRTD:MSVCRTD.dll
 0004:00001e68       __imp__freopen             004b5e68   MSVCRTD:MSVCRTD.dll
 0004:00001e6c       __imp_??2@YAPAXI@Z         004b5e6c   MSVCRTD:MSVCRTD.dll
 0004:00001e70       __imp__strcpy              004b5e70   MSVCRTD:MSVCRTD.dll
 0004:00001e74       __imp__sprintf             004b5e74   MSVCRTD:MSVCRTD.dll
 0004:00001e78       __imp_??3@YAXPAX@Z         004b5e78   MSVCRTD:MSVCRTD.dll
 0004:00001e7c       __imp___purecall           004b5e7c   MSVCRTD:MSVCRTD.dll
 0004:00001e80       __imp__malloc              004b5e80   MSVCRTD:MSVCRTD.dll
 0004:00001e84       __imp__memcpy              004b5e84   MSVCRTD:MSVCRTD.dll
 0004:00001e88       __imp__free                004b5e88   MSVCRTD:MSVCRTD.dll
 0004:00001e8c       __imp____CxxFrameHandler   004b5e8c   MSVCRTD:MSVCRTD.dll
 0004:00001e90       __imp____p__iob            004b5e90   MSVCRTD:MSVCRTD.dll
 0004:00001e94       __imp__fprintf             004b5e94   MSVCRTD:MSVCRTD.dll
 0004:00001e98       __imp__memset              004b5e98   MSVCRTD:MSVCRTD.dll
 0004:00001e9c       __imp__fabs                004b5e9c   MSVCRTD:MSVCRTD.dll
 0004:00001ea0       __imp___setjmp3            004b5ea0   MSVCRTD:MSVCRTD.dll
 0004:00001ea4       __imp__sqrt                004b5ea4   MSVCRTD:MSVCRTD.dll
 0004:00001ea8       __imp__printf              004b5ea8   MSVCRTD:MSVCRTD.dll
 0004:00001eac       __imp___beginthread        004b5eac   MSVCRTD:MSVCRTD.dll
 0004:00001eb0       __imp__longjmp             004b5eb0   MSVCRTD:MSVCRTD.dll
 0004:00001eb4       __imp___except_handler3    004b5eb4   MSVCRTD:MSVCRTD.dll
 0004:00001eb8       __imp_?terminate@@YAXXZ    004b5eb8   MSVCRTD:MSVCRTD.dll
 0004:00001ebc       __imp__stricmp             004b5ebc   MSVCRTD:MSVCRTD.dll
 0004:00001ebc       __imp___stricmp            004b5ebc   MSVCRTD:MSVCRTD.dll
 0004:00001ec0       __imp___gcvt               004b5ec0   MSVCRTD:MSVCRTD.dll
 0004:00001ec0       __imp__gcvt                004b5ec0   MSVCRTD:MSVCRTD.dll
 0004:00001ec4       __imp___itoa               004b5ec4   MSVCRTD:MSVCRTD.dll
 0004:00001ec4       __imp__itoa                004b5ec4   MSVCRTD:MSVCRTD.dll
 0004:00001ec8       __imp___setmbcp            004b5ec8   MSVCRTD:MSVCRTD.dll
 0004:00001ecc       __imp___onexit             004b5ecc   MSVCRTD:MSVCRTD.dll
 0004:00001ed0       __imp___exit               004b5ed0   MSVCRTD:MSVCRTD.dll
 0004:00001ed4       __imp___XcptFilter         004b5ed4   MSVCRTD:MSVCRTD.dll
 0004:00001ed8       __imp____p__acmdln         004b5ed8   MSVCRTD:MSVCRTD.dll
 0004:00001edc       __imp___initterm           004b5edc   MSVCRTD:MSVCRTD.dll
 0004:00001ee0       __imp____getmainargs       004b5ee0   MSVCRTD:MSVCRTD.dll
 0004:00001ee4       __imp____setusermatherr    004b5ee4   MSVCRTD:MSVCRTD.dll
 0004:00001ee8       __imp___adjust_fdiv        004b5ee8   MSVCRTD:MSVCRTD.dll
 0004:00001eec       __imp____p__commode        004b5eec   MSVCRTD:MSVCRTD.dll
 0004:00001ef0       __imp____p__fmode          004b5ef0   MSVCRTD:MSVCRTD.dll
 0004:00001ef4       __imp____set_app_type      004b5ef4   MSVCRTD:MSVCRTD.dll
 0004:00001ef8       __imp___controlfp          004b5ef8   MSVCRTD:MSVCRTD.dll
 0004:00001efc       __imp__fclose              004b5efc   MSVCRTD:MSVCRTD.dll
 0004:00001f00       __imp__asctime             004b5f00   MSVCRTD:MSVCRTD.dll
 0004:00001f04       __imp__fopen               004b5f04   MSVCRTD:MSVCRTD.dll
 0004:00001f08       __imp__cos                 004b5f08   MSVCRTD:MSVCRTD.dll
 0004:00001f0c       \177MSVCRTD_NULL_THUNK_DATA 004b5f0c   MSVCRTD:MSVCRTD.dll
 0004:00001f10       __imp__SafeArrayPutElement@12 004b5f10   oleaut32:OLEAUT32.dll
 0004:00001f14       __imp__SafeArrayGetElement@12 004b5f14   oleaut32:OLEAUT32.dll
 0004:00001f18       __imp__SafeArrayCreate@12  004b5f18   oleaut32:OLEAUT32.dll
 0004:00001f1c       \177OLEAUT32_NULL_THUNK_DATA 004b5f1c   oleaut32:OLEAUT32.dll
 0004:00001f20       __imp_?SetName@StoreDb@@QAEXPAD@Z 004b5f20   omrdmimp:OMRDM.dll
 0004:00001f24       __imp_?Clone@StoreObj@@UAEPAV1@XZ 004b5f24   omrdmimp:OMRDM.dll
 0004:00001f28       __imp_??0VistaTask@@QAE@PADAAVActivateTask@@@Z 004b5f28   omrdmimp:OMRDM.dll
 0004:00001f2c       __imp_?NewObj@StoreObj@@UAEXXZ 004b5f2c   omrdmimp:OMRDM.dll
 0004:00001f30       __imp_?Find@StoreObj@@QAEAAV1@AAVKeyObj@@@Z 004b5f30   omrdmimp:OMRDM.dll
 0004:00001f34       __imp_??4StoreObj@@QAEAAV0@AAV0@@Z 004b5f34   omrdmimp:OMRDM.dll
 0004:00001f38       __imp_??1Polymorph@@UAE@XZ 004b5f38   omrdmimp:OMRDM.dll
 0004:00001f3c       __imp_??0StoreObj@@QAE@AAV0@@Z 004b5f3c   omrdmimp:OMRDM.dll
 0004:00001f40       __imp_?Open@VistaDb@@QAE?AW4T_F@@XZ 004b5f40   omrdmimp:OMRDM.dll
 0004:00001f44       __imp_?Read@StoreObj@@MAEXXZ 004b5f44   omrdmimp:OMRDM.dll
 0004:00001f48       __imp_??0StoreDb@@IAE@PADPAPAV0@@Z 004b5f48   omrdmimp:OMRDM.dll
 0004:00001f4c       __imp_??EStoreObj@@QAEAAV0@XZ 004b5f4c   omrdmimp:OMRDM.dll
 0004:00001f50       __imp_??FStoreObj@@QAEAAV0@XZ 004b5f50   omrdmimp:OMRDM.dll
 0004:00001f54       __imp_??AStoreObj@@QAEAAV0@W4NavCtrl@@@Z 004b5f54   omrdmimp:OMRDM.dll
 0004:00001f58       __imp_?MemCount@StoreObj@@IAEJAAV1@H@Z 004b5f58   omrdmimp:OMRDM.dll
 0004:00001f5c       __imp_??0StoreObj@@IAE@AAVSetObj@@PAVVistaDb@@@Z 004b5f5c   omrdmimp:OMRDM.dll
 0004:00001f60       __imp_?FromOwner@StoreObj@@QAEAAV1@PAV1@H@Z 004b5f60   omrdmimp:OMRDM.dll
 0004:00001f64       __imp_?ConnectTo@StoreObj@@QAE?AW4T_F@@AAV1@H@Z 004b5f64   omrdmimp:OMRDM.dll
 0004:00001f68       __imp_?GotoMember@StoreObj@@QAEAAV1@AAV1@HW4NavCtrl@@@Z 004b5f68   omrdmimp:OMRDM.dll
 0004:00001f6c       __imp_??0StoreObj@@IAE@AAVKeyObj@@PAVVistaDb@@@Z 004b5f6c   omrdmimp:OMRDM.dll
 0004:00001f70       __imp_?FromMember@StoreObj@@QAEAAV1@PAV1@H@Z 004b5f70   omrdmimp:OMRDM.dll
 0004:00001f74       __imp_??0StoreDb@@IAE@PAPAV0@@Z 004b5f74   omrdmimp:OMRDM.dll
 0004:00001f78       __imp_?DisConFrom@StoreObj@@QAE?AW4T_F@@AAV1@H@Z 004b5f78   omrdmimp:OMRDM.dll
 0004:00001f7c       __imp_??1TransAction@@QAE@XZ 004b5f7c   omrdmimp:OMRDM.dll
 0004:00001f80       __imp_?End@TransAction@@QAEXXZ 004b5f80   omrdmimp:OMRDM.dll
 0004:00001f84       __imp_??0TransAction@@QAE@PAVVistaTask@@@Z 004b5f84   omrdmimp:OMRDM.dll
 0004:00001f88       __imp_?SetPaths@RDXTask@@QAEXPAD0000@Z 004b5f88   omrdmimp:OMRDM.dll
 0004:00001f8c       __imp_?FreeLock@StoreObj@@QAE?AW4T_F@@XZ 004b5f8c   omrdmimp:OMRDM.dll
 0004:00001f90       __imp_?Begin@TransAction@@QAEHQAD@Z 004b5f90   omrdmimp:OMRDM.dll
 0004:00001f94       __imp_?Close@VistaDb@@QAE?AW4T_F@@XZ 004b5f94   omrdmimp:OMRDM.dll
 0004:00001f98       __imp_?Register@Polymorph@@QAE?AW4T_F@@AAVStoreObj@@@Z 004b5f98   omrdmimp:OMRDM.dll
 0004:00001f9c       __imp_?Write@StoreObj@@UAEXXZ 004b5f9c   omrdmimp:OMRDM.dll
 0004:00001fa0       __imp_?IsMember@StoreObj@@QAE?AW4T_F@@H@Z 004b5fa0   omrdmimp:OMRDM.dll
 0004:00001fa4       __imp_?IsOwner@StoreObj@@QAE?AW4T_F@@H@Z 004b5fa4   omrdmimp:OMRDM.dll
 0004:00001fa8       __imp_?Read@VistaObj@@UAEXXZ 004b5fa8   omrdmimp:OMRDM.dll
 0004:00001fac       __imp_?SetDefaultValues@VistaObj@@UAEXXZ 004b5fac   omrdmimp:OMRDM.dll
 0004:00001fb0       __imp_?TotalSize@VistaObj@@UAEJXZ 004b5fb0   omrdmimp:OMRDM.dll
 0004:00001fb4       __imp_?RecData@VistaObj@@UAEPAXXZ 004b5fb4   omrdmimp:OMRDM.dll
 0004:00001fb8       __imp_?RecType@VistaObj@@UAEHXZ 004b5fb8   omrdmimp:OMRDM.dll
 0004:00001fbc       __imp_?_GetDb@VistaObj@@UAEPAVVistaDb@@XZ 004b5fbc   omrdmimp:OMRDM.dll
 0004:00001fc0       __imp_??1RDXTask@@QAE@XZ   004b5fc0   omrdmimp:OMRDM.dll
 0004:00001fc4       __imp_?MakeCurrent@VistaTask@@UAEXXZ 004b5fc4   omrdmimp:OMRDM.dll
 0004:00001fc8       __imp_??1VistaTask@@QAE@XZ 004b5fc8   omrdmimp:OMRDM.dll
 0004:00001fcc       __imp_??1RDXDb@@UAE@XZ     004b5fcc   omrdmimp:OMRDM.dll
 0004:00001fd0       __imp_??1VistaDb@@UAE@XZ   004b5fd0   omrdmimp:OMRDM.dll
 0004:00001fd4       __imp_??0VistaTask@@QAE@PAD@Z 004b5fd4   omrdmimp:OMRDM.dll
 0004:00001fd8       __imp_??1StoreObj@@UAE@XZ  004b5fd8   omrdmimp:OMRDM.dll
 0004:00001fdc       __imp_??0Polymorph@@IAE@HHPAVVistaDb@@@Z 004b5fdc   omrdmimp:OMRDM.dll
 0004:00001fe0       __imp_?GotoDirect@StoreObj@@QAEAAV1@AAVDbAddr@@@Z 004b5fe0   omrdmimp:OMRDM.dll
 0004:00001fe4       __imp_?Goto@StoreObj@@QAEAAV1@W4NavCtrl@@@Z 004b5fe4   omrdmimp:OMRDM.dll
 0004:00001fe8       __imp_?Goto@StoreObj@@QAEAAV1@AAVKeyObj@@W4NavCtrl@@@Z 004b5fe8   omrdmimp:OMRDM.dll
 0004:00001fec       __imp_?Lock@StoreObj@@QAE?AW4T_F@@PAD@Z 004b5fec   omrdmimp:OMRDM.dll
 0004:00001ff0       __imp_??0StoreObj@@IAE@PAVVistaDb@@@Z 004b5ff0   omrdmimp:OMRDM.dll
 0004:00001ff4       __imp_?Read@Polymorph@@MAEXXZ 004b5ff4   omrdmimp:OMRDM.dll
 0004:00001ff8       __imp_?RecData@StoreObj@@MAEPAXXZ 004b5ff8   omrdmimp:OMRDM.dll
 0004:00001ffc       __imp_?Delete@StoreObj@@UAEXXZ 004b5ffc   omrdmimp:OMRDM.dll
 0004:00002000       __imp_?Select@Polymorph@@IAE?AW4T_F@@H@Z 004b6000   omrdmimp:OMRDM.dll
 0004:00002004       __imp_?Abort@TransAction@@QAEXXZ 004b6004   omrdmimp:OMRDM.dll
 0004:00002008       \177OMRDM_NULL_THUNK_DATA  004b6008   omrdmimp:OMRDM.dll
 0004:0000200c       __imp__glEnd@0             004b600c   opengl32:OPENGL32.dll
 0004:00002010       __imp__glPointSize@4       004b6010   opengl32:OPENGL32.dll
 0004:00002014       __imp__glVertex3d@24       004b6014   opengl32:OPENGL32.dll
 0004:00002018       __imp__glBegin@4           004b6018   opengl32:OPENGL32.dll
 0004:0000201c       __imp__glRotated@32        004b601c   opengl32:OPENGL32.dll
 0004:00002020       __imp__glEnable@4          004b6020   opengl32:OPENGL32.dll
 0004:00002024       __imp__glTranslated@24     004b6024   opengl32:OPENGL32.dll
 0004:00002028       __imp__glMultMatrixd@4     004b6028   opengl32:OPENGL32.dll
 0004:0000202c       __imp__glMatrixMode@4      004b602c   opengl32:OPENGL32.dll
 0004:00002030       __imp__glOrtho@48          004b6030   opengl32:OPENGL32.dll
 0004:00002034       __imp__glPushMatrix@0      004b6034   opengl32:OPENGL32.dll
 0004:00002038       __imp__glPopMatrix@0       004b6038   opengl32:OPENGL32.dll
 0004:0000203c       __imp__glTranslatef@12     004b603c   opengl32:OPENGL32.dll
 0004:00002040       __imp__wglMakeCurrent@8    004b6040   opengl32:OPENGL32.dll
 0004:00002044       __imp__glRotatef@16        004b6044   opengl32:OPENGL32.dll
 0004:00002048       __imp__glLoadIdentity@0    004b6048   opengl32:OPENGL32.dll
 0004:0000204c       __imp__glClearColor@16     004b604c   opengl32:OPENGL32.dll
 0004:00002050       __imp__glGetIntegerv@8     004b6050   opengl32:OPENGL32.dll
 0004:00002054       __imp__glClear@4           004b6054   opengl32:OPENGL32.dll
 0004:00002058       __imp__glLightModelfv@8    004b6058   opengl32:OPENGL32.dll
 0004:0000205c       __imp__glGetError@0        004b605c   opengl32:OPENGL32.dll
 0004:00002060       __imp__glViewport@16       004b6060   opengl32:OPENGL32.dll
 0004:00002064       __imp__glDrawPixels@20     004b6064   opengl32:OPENGL32.dll
 0004:00002068       __imp__glShadeModel@4      004b6068   opengl32:OPENGL32.dll
 0004:0000206c       __imp__wglCreateContext@4  004b606c   opengl32:OPENGL32.dll
 0004:00002070       __imp__glReadPixels@28     004b6070   opengl32:OPENGL32.dll
 0004:00002074       __imp__glPixelStorei@8     004b6074   opengl32:OPENGL32.dll
 0004:00002078       __imp__glRasterPos2i@8     004b6078   opengl32:OPENGL32.dll
 0004:0000207c       __imp__glEndList@0         004b607c   opengl32:OPENGL32.dll
 0004:00002080       __imp__glFlush@0           004b6080   opengl32:OPENGL32.dll
 0004:00002084       __imp__glCallList@4        004b6084   opengl32:OPENGL32.dll
 0004:00002088       __imp__glNormal3d@24       004b6088   opengl32:OPENGL32.dll
 0004:0000208c       __imp__glPushAttrib@4      004b608c   opengl32:OPENGL32.dll
 0004:00002090       __imp__glColor4fv@4        004b6090   opengl32:OPENGL32.dll
 0004:00002094       __imp__glPopAttrib@0       004b6094   opengl32:OPENGL32.dll
 0004:00002098       __imp__glNewList@8         004b6098   opengl32:OPENGL32.dll
 0004:0000209c       __imp__glNormal3dv@4       004b609c   opengl32:OPENGL32.dll
 0004:000020a0       __imp__glVertex3dv@4       004b60a0   opengl32:OPENGL32.dll
 0004:000020a4       __imp__glPopName@0         004b60a4   opengl32:OPENGL32.dll
 0004:000020a8       __imp__glDeleteLists@8     004b60a8   opengl32:OPENGL32.dll
 0004:000020ac       __imp__glSelectBuffer@8    004b60ac   opengl32:OPENGL32.dll
 0004:000020b0       __imp__glDisable@4         004b60b0   opengl32:OPENGL32.dll
 0004:000020b4       __imp__glPushName@4        004b60b4   opengl32:OPENGL32.dll
 0004:000020b8       __imp__glRenderMode@4      004b60b8   opengl32:OPENGL32.dll
 0004:000020bc       __imp__glInitNames@0       004b60bc   opengl32:OPENGL32.dll
 0004:000020c0       __imp__glColorMaterial@8   004b60c0   opengl32:OPENGL32.dll
 0004:000020c4       __imp__glBlendFunc@8       004b60c4   opengl32:OPENGL32.dll
 0004:000020c8       __imp__glLightModeli@8     004b60c8   opengl32:OPENGL32.dll
 0004:000020cc       __imp__glColor4d@32        004b60cc   opengl32:OPENGL32.dll
 0004:000020d0       __imp__glClipPlane@8       004b60d0   opengl32:OPENGL32.dll
 0004:000020d4       __imp__glColor3d@24        004b60d4   opengl32:OPENGL32.dll
 0004:000020d8       __imp__glGenLists@4        004b60d8   opengl32:OPENGL32.dll
 0004:000020dc       \177OPENGL32_NULL_THUNK_DATA 004b60dc   opengl32:OPENGL32.dll
 0004:000020e0       __imp__dt_delete@8         004b60e0   rdmwin32:RDMWIN32.DLL
 0004:000020e4       __imp__dt_curkey@8         004b60e4   rdmwin32:RDMWIN32.DLL
 0004:000020e8       __imp__dt_ctscr@12         004b60e8   rdmwin32:RDMWIN32.DLL
 0004:000020ec       __imp__dt_disdel@8         004b60ec   rdmwin32:RDMWIN32.DLL
 0004:000020f0       __imp__dt_recprev@8        004b60f0   rdmwin32:RDMWIN32.DLL
 0004:000020f4       __imp__dt_rdcurr@16        004b60f4   rdmwin32:RDMWIN32.DLL
 0004:000020f8       __imp__dt_wrcurr@20        004b60f8   rdmwin32:RDMWIN32.DLL
 0004:000020fc       __imp__dt_close@4          004b60fc   rdmwin32:RDMWIN32.DLL
 0004:00002100       __imp__dt_opentask@4       004b6100   rdmwin32:RDMWIN32.DLL
 0004:00002104       __imp__dt_open@12          004b6104   rdmwin32:RDMWIN32.DLL
 0004:00002108       __imp__dt_closetask@4      004b6108   rdmwin32:RDMWIN32.DLL
 0004:0000210c       __imp__dt_utscs@16         004b610c   rdmwin32:RDMWIN32.DLL
 0004:00002110       __imp__dt_utscr@12         004b6110   rdmwin32:RDMWIN32.DLL
 0004:00002114       __imp__dt_utsco@16         004b6114   rdmwin32:RDMWIN32.DLL
 0004:00002118       __imp__dt_utscm@16         004b6118   rdmwin32:RDMWIN32.DLL
 0004:0000211c       __imp__dt_stscs@16         004b611c   rdmwin32:RDMWIN32.DLL
 0004:00002120       __imp__dt_stscr@12         004b6120   rdmwin32:RDMWIN32.DLL
 0004:00002124       __imp__dt_stsco@16         004b6124   rdmwin32:RDMWIN32.DLL
 0004:00002128       __imp__dt_stscm@16         004b6128   rdmwin32:RDMWIN32.DLL
 0004:0000212c       __imp__dt_setro@12         004b612c   rdmwin32:RDMWIN32.DLL
 0004:00002130       __imp__dt_setrm@12         004b6130   rdmwin32:RDMWIN32.DLL
 0004:00002134       __imp__dt_setor@12         004b6134   rdmwin32:RDMWIN32.DLL
 0004:00002138       __imp__dt_setoo@16         004b6138   rdmwin32:RDMWIN32.DLL
 0004:0000213c       __imp__dt_setom@16         004b613c   rdmwin32:RDMWIN32.DLL
 0004:00002140       __imp__dt_setmr@12         004b6140   rdmwin32:RDMWIN32.DLL
 0004:00002144       __imp__dt_setmo@16         004b6144   rdmwin32:RDMWIN32.DLL
 0004:00002148       __imp__dt_setmm@16         004b6148   rdmwin32:RDMWIN32.DLL
 0004:0000214c       __imp__dt_discon@12        004b614c   rdmwin32:RDMWIN32.DLL
 0004:00002150       __imp__dt_recnext@8        004b6150   rdmwin32:RDMWIN32.DLL
 0004:00002154       __imp__dt_recread@12       004b6154   rdmwin32:RDMWIN32.DLL
 0004:00002158       __imp__dt_reclast@12       004b6158   rdmwin32:RDMWIN32.DLL
 0004:0000215c       __imp__dt_recfrst@12       004b615c   rdmwin32:RDMWIN32.DLL
 0004:00002160       __imp__dt_members@16       004b6160   rdmwin32:RDMWIN32.DLL
 0004:00002164       __imp__dt_makenew@12       004b6164   rdmwin32:RDMWIN32.DLL
 0004:00002168       __imp__dt_keystore@12      004b6168   rdmwin32:RDMWIN32.DLL
 0004:0000216c       __imp__dt_keyread@8        004b616c   rdmwin32:RDMWIN32.DLL
 0004:00002170       __imp__dt_keyprev@12       004b6170   rdmwin32:RDMWIN32.DLL
 0004:00002174       __imp__dt_keynext@12       004b6174   rdmwin32:RDMWIN32.DLL
 0004:00002178       __imp__dt_keylstat@16      004b6178   rdmwin32:RDMWIN32.DLL
 0004:0000217c       __imp__dt_ctsco@16         004b617c   rdmwin32:RDMWIN32.DLL
 0004:00002180       __imp__dt_ctscm@16         004b6180   rdmwin32:RDMWIN32.DLL
 0004:00002184       __imp__dt_ctbpath@8        004b6184   rdmwin32:RDMWIN32.DLL
 0004:00002188       __imp__dt_csstat@12        004b6188   rdmwin32:RDMWIN32.DLL
 0004:0000218c       __imp__dt_csowrite@20      004b618c   rdmwin32:RDMWIN32.DLL
 0004:00002190       __imp__dt_csoset@16        004b6190   rdmwin32:RDMWIN32.DLL
 0004:00002194       __imp__dt_csoread@20       004b6194   rdmwin32:RDMWIN32.DLL
 0004:00002198       __imp__dt_csoget@16        004b6198   rdmwin32:RDMWIN32.DLL
 0004:0000219c       __imp__dt_csmwrite@20      004b619c   rdmwin32:RDMWIN32.DLL
 0004:000021a0       __imp__dt_csmset@16        004b61a0   rdmwin32:RDMWIN32.DLL
 0004:000021a4       __imp__dt_csmread@20       004b61a4   rdmwin32:RDMWIN32.DLL
 0004:000021a8       __imp__dt_csmget@16        004b61a8   rdmwin32:RDMWIN32.DLL
 0004:000021ac       __imp__dt_crwrite@16       004b61ac   rdmwin32:RDMWIN32.DLL
 0004:000021b0       __imp__dt_crtype@12        004b61b0   rdmwin32:RDMWIN32.DLL
 0004:000021b4       __imp__dt_crstat@8         004b61b4   rdmwin32:RDMWIN32.DLL
 0004:000021b8       __imp__dt_crset@12         004b61b8   rdmwin32:RDMWIN32.DLL
 0004:000021bc       __imp__dt_crread@16        004b61bc   rdmwin32:RDMWIN32.DLL
 0004:000021c0       __imp__dt_cotype@16        004b61c0   rdmwin32:RDMWIN32.DLL
 0004:000021c4       __imp__dt_costat@12        004b61c4   rdmwin32:RDMWIN32.DLL
 0004:000021c8       __imp__dt_findlm@12        004b61c8   rdmwin32:RDMWIN32.DLL
 0004:000021cc       __imp__dt_findco@12        004b61cc   rdmwin32:RDMWIN32.DLL
 0004:000021d0       __imp__dt_findfm@12        004b61d0   rdmwin32:RDMWIN32.DLL
 0004:000021d4       __imp__dt_gtscm@16         004b61d4   rdmwin32:RDMWIN32.DLL
 0004:000021d8       __imp__dt_findnm@12        004b61d8   rdmwin32:RDMWIN32.DLL
 0004:000021dc       __imp__dt_findpm@12        004b61dc   rdmwin32:RDMWIN32.DLL
 0004:000021e0       __imp__dt_gtscs@16         004b61e0   rdmwin32:RDMWIN32.DLL
 0004:000021e4       __imp__dt_gtsco@16         004b61e4   rdmwin32:RDMWIN32.DLL
 0004:000021e8       __imp__dt_gtscr@12         004b61e8   rdmwin32:RDMWIN32.DLL
 0004:000021ec       __imp__dt_ismember@12      004b61ec   rdmwin32:RDMWIN32.DLL
 0004:000021f0       __imp__dt_initialize@8     004b61f0   rdmwin32:RDMWIN32.DLL
 0004:000021f4       __imp__dt_initfile@12      004b61f4   rdmwin32:RDMWIN32.DLL
 0004:000021f8       __imp__dt_keybuild@8       004b61f8   rdmwin32:RDMWIN32.DLL
 0004:000021fc       __imp__dt_isowner@12       004b61fc   rdmwin32:RDMWIN32.DLL
 0004:00002200       __imp__dt_keydel@12        004b6200   rdmwin32:RDMWIN32.DLL
 0004:00002204       __imp__dt_keyexist@12      004b6204   rdmwin32:RDMWIN32.DLL
 0004:00002208       __imp__dt_keyfrst@12       004b6208   rdmwin32:RDMWIN32.DLL
 0004:0000220c       __imp__dt_setkey@16        004b620c   rdmwin32:RDMWIN32.DLL
 0004:00002210       __imp__dt_recset@12        004b6210   rdmwin32:RDMWIN32.DLL
 0004:00002214       __imp__dt_connect@12       004b6214   rdmwin32:RDMWIN32.DLL
 0004:00002218       __imp__dt_cmtype@16        004b6218   rdmwin32:RDMWIN32.DLL
 0004:0000221c       __imp__dt_cmstat@12        004b621c   rdmwin32:RDMWIN32.DLL
 0004:00002220       __imp__dt_rlbtst@8         004b6220   rdmwin32:RDMWIN32.DLL
 0004:00002224       __imp__dt_rlbset@8         004b6224   rdmwin32:RDMWIN32.DLL
 0004:00002228       __imp__dt_rlbclr@8         004b6228   rdmwin32:RDMWIN32.DLL
 0004:0000222c       __imp__dt_recstat@16       004b622c   rdmwin32:RDMWIN32.DLL
 0004:00002230       __imp__dt_timeout@8        004b6230   rdmwin32:RDMWIN32.DLL
 0004:00002234       __imp__dt_set_dberr@8      004b6234   rdmwin32:RDMWIN32.DLL
 0004:00002238       __imp__dt_setfiles@8       004b6238   rdmwin32:RDMWIN32.DLL
 0004:0000223c       __imp__dt_setpages@12      004b623c   rdmwin32:RDMWIN32.DLL
 0004:00002240       __imp__dt_renclean@4       004b6240   rdmwin32:RDMWIN32.DLL
 0004:00002244       __imp__dt_renfile@16       004b6244   rdmwin32:RDMWIN32.DLL
 0004:00002248       __imp__dt_recover@8        004b6248   rdmwin32:RDMWIN32.DLL
 0004:0000224c       __imp__dt_on_opt@8         004b624c   rdmwin32:RDMWIN32.DLL
 0004:00002250       __imp__dt_off_opt@8        004b6250   rdmwin32:RDMWIN32.DLL
 0004:00002254       __imp__dt_lockmgr@8        004b6254   rdmwin32:RDMWIN32.DLL
 0004:00002258       __imp__dt_lockcomm@8       004b6258   rdmwin32:RDMWIN32.DLL
 0004:0000225c       __imp__dt_freeall@4        004b625c   rdmwin32:RDMWIN32.DLL
 0004:00002260       __imp__dt_destroy@8        004b6260   rdmwin32:RDMWIN32.DLL
 0004:00002264       __imp__dt_checkid@8        004b6264   rdmwin32:RDMWIN32.DLL
 0004:00002268       __imp__dt_dbuserid@8       004b6268   rdmwin32:RDMWIN32.DLL
 0004:0000226c       __imp__dt_dbtaf@8          004b626c   rdmwin32:RDMWIN32.DLL
 0004:00002270       __imp__dt_dblog@8          004b6270   rdmwin32:RDMWIN32.DLL
 0004:00002274       __imp__dt_dbfpath@8        004b6274   rdmwin32:RDMWIN32.DLL
 0004:00002278       __imp__dt_dbdpath@8        004b6278   rdmwin32:RDMWIN32.DLL
 0004:0000227c       __imp__dt_fillnew@16       004b627c   rdmwin32:RDMWIN32.DLL
 0004:00002280       __imp__dt_crget@12         004b6280   rdmwin32:RDMWIN32.DLL
 0004:00002284       __imp__dt_recwrite@12      004b6284   rdmwin32:RDMWIN32.DLL
 0004:00002288       __imp__dt_setlock@16       004b6288   rdmwin32:RDMWIN32.DLL
 0004:0000228c       __imp__dt_setlstat@16      004b628c   rdmwin32:RDMWIN32.DLL
 0004:00002290       __imp__dt_setfree@12       004b6290   rdmwin32:RDMWIN32.DLL
 0004:00002294       __imp__dt_internals@24     004b6294   rdmwin32:RDMWIN32.DLL
 0004:00002298       __imp__dt_trabort@4        004b6298   rdmwin32:RDMWIN32.DLL
 0004:0000229c       __imp__dt_trend@4          004b629c   rdmwin32:RDMWIN32.DLL
 0004:000022a0       __imp__dt_trbegin@8        004b62a0   rdmwin32:RDMWIN32.DLL
 0004:000022a4       __imp__dt_recfree@12       004b62a4   rdmwin32:RDMWIN32.DLL
 0004:000022a8       __imp__dt_reclock@16       004b62a8   rdmwin32:RDMWIN32.DLL
 0004:000022ac       __imp__dt_reclstat@16      004b62ac   rdmwin32:RDMWIN32.DLL
 0004:000022b0       __imp__dt_lock@16          004b62b0   rdmwin32:RDMWIN32.DLL
 0004:000022b4       __imp__dt_keyfind@16       004b62b4   rdmwin32:RDMWIN32.DLL
 0004:000022b8       __imp__dt_keylock@16       004b62b8   rdmwin32:RDMWIN32.DLL
 0004:000022bc       __imp__dt_keylast@12       004b62bc   rdmwin32:RDMWIN32.DLL
 0004:000022c0       __imp__dt_keyfree@12       004b62c0   rdmwin32:RDMWIN32.DLL
 0004:000022c4       \177RDMWIN32_NULL_THUNK_DATA 004b62c4   rdmwin32:RDMWIN32.DLL
 0004:000022c8       __imp__GetCursorPos@4      004b62c8   user32:USER32.dll
 0004:000022cc       __imp__PostMessageA@16     004b62cc   user32:USER32.dll
 0004:000022d0       __imp__SetCursor@4         004b62d0   user32:USER32.dll
 0004:000022d4       __imp__MessageBeep@4       004b62d4   user32:USER32.dll
 0004:000022d8       __imp__GetActiveWindow@0   004b62d8   user32:USER32.dll
 0004:000022dc       __imp__InvalidateRect@12   004b62dc   user32:USER32.dll
 0004:000022e0       __imp__GetClientRect@8     004b62e0   user32:USER32.dll
 0004:000022e4       __imp__MessageBoxA@16      004b62e4   user32:USER32.dll
 0004:000022e8       __imp__IsRectEmpty@4       004b62e8   user32:USER32.dll
 0004:000022ec       __imp__wsprintfA           004b62ec   user32:USER32.dll
 0004:000022f0       __imp__WaitMessage@0       004b62f0   user32:USER32.dll
 0004:000022f4       __imp__PeekMessageA@20     004b62f4   user32:USER32.dll
 0004:000022f8       __imp__GetDC@4             004b62f8   user32:USER32.dll
 0004:000022fc       __imp__ReleaseDC@8         004b62fc   user32:USER32.dll
 0004:00002300       __imp__GetMenuCheckMarkDimensions@0 004b6300   user32:USER32.dll
 0004:00002304       __imp__SendMessageA@16     004b6304   user32:USER32.dll
 0004:00002308       __imp__SetWindowPos@28     004b6308   user32:USER32.dll
 0004:0000230c       __imp__LoadBitmapA@8       004b630c   user32:USER32.dll
 0004:00002310       __imp__PostQuitMessage@4   004b6310   user32:USER32.dll
 0004:00002314       \177USER32_NULL_THUNK_DATA 004b6314   user32:USER32.dll
 0004:00002318       __imp_?dgnCreateCircTorus@@YAXPAXNNN@Z 004b6318   pm3dgnInterface:pm3dgnInterface.dll
 0004:0000231c       __imp_?dgnSetCurrentCoordSystemRel@@YAXPAXPAN111@Z 004b631c   pm3dgnInterface:pm3dgnInterface.dll
 0004:00002320       __imp_?dgnCreateBox@@YAXPAXNNN@Z 004b6320   pm3dgnInterface:pm3dgnInterface.dll
 0004:00002324       __imp_?dgnCreateCylinder@@YAXPAXNN@Z 004b6324   pm3dgnInterface:pm3dgnInterface.dll
 0004:00002328       __imp_?dgnCreatePyramid@@YAXPAXNNNNNNN@Z 004b6328   pm3dgnInterface:pm3dgnInterface.dll
 0004:0000232c       __imp_?dgnCreateRectTorus@@YAXPAXNNNN@Z 004b632c   pm3dgnInterface:pm3dgnInterface.dll
 0004:00002330       __imp_?dgnCreateOffSetCone@@YAXPAXNNNNN@Z 004b6330   pm3dgnInterface:pm3dgnInterface.dll
 0004:00002334       __imp_?openDgnFile@@YAPAXPAD@Z 004b6334   pm3dgnInterface:pm3dgnInterface.dll
 0004:00002338       __imp_?setUORConversion@@YAXPAXNPAD@Z 004b6338   pm3dgnInterface:pm3dgnInterface.dll
 0004:0000233c       __imp_?dgnPushCurrentTransform@@YAXPAX@Z 004b633c   pm3dgnInterface:pm3dgnInterface.dll
 0004:00002340       __imp_?dgnPopCurrentTransform@@YAXPAX@Z 004b6340   pm3dgnInterface:pm3dgnInterface.dll
 0004:00002344       __imp_?closeDgnFile@@YAXPAX@Z 004b6344   pm3dgnInterface:pm3dgnInterface.dll
 0004:00002348       \177pm3dgnInterface_NULL_THUNK_DATA 004b6348   pm3dgnInterface:pm3dgnInterface.dll

 entry point at        0001:0008bb90

 Static symbols

 0001:00089cb8       _$E192                     0048acb8 f DIB.OBJ
 0001:00089ccd       _$E191                     0048accd f DIB.OBJ
 0001:0008a172       ?NumDIBColorEntries@@YAHPAUtagBITMAPINFO@@@Z 0048b172 f DIB.OBJ
 0001:0008a271       ?IsWinDIB@@YAHPAUtagBITMAPINFOHEADER@@@Z 0048b271 f DIB.OBJ
 0001:0006b500       _$E281                     0046c500 f fotoview.obj
 0001:0006b51a       _$E278                     0046c51a f fotoview.obj
 0001:0006b534       _$E280                     0046c534 f fotoview.obj
 0001:0006b551       _$E279                     0046c551 f fotoview.obj
 0001:0002cb05       _$E314                     0042db05 f fotobrow.obj
 0001:0002cb1f       _$E311                     0042db1f f fotobrow.obj
 0001:0002cb39       _$E313                     0042db39 f fotobrow.obj
 0001:0002cb56       _$E312                     0042db56 f fotobrow.obj
 0001:0008ba20       _$$$00001                  0048ca20 f MSVCRTD:chkstk.obj
 0001:0008b860       ?ArrayUnwindFilter@@YAHPAU_EXCEPTION_POINTERS@@@Z 0048c860 f MSVCRTD:ehvecdtr.obj
 0001:0008ce10       _$E352                     0048de10 f mfcs42d:appmodul.obj
 0001:0008ce30       _$E351                     0048de30 f mfcs42d:appmodul.obj

FIXUPS: 8ce11 fffffe01 20 f 39 e6 39 fffffdca fffffe03 35 fffffe14 7d 53
FIXUPS: 8dd57 23 25 55 23 25 fff88cdf 55 11 1d 10 10 11 1d 12 101 17 11
FIXUPS: 16d38 11 11 17 17 112 aa b6 242 10 10 109 12 12 12 12 18 18 18
FIXUPS: 17405 fffff255 15 57 1f 24 14 10 31 10 47 e 17 11 11 11 17 17 ea
FIXUPS: 16945 36 7e 1e 12 12 12 12 18 18 18 3e f 1b ffffe7ed 4b 20 18 64
FIXUPS: 15407 1d 13 11 13 fe 42 90 10 43 17 11 1f6 261 4b4 19 3e2 1b 103
FIXUPS: 16501 1d c 81 25 3f 23 18 ffffd7d6 e6 88 5b9 c4 1c1 20 18 64 24
FIXUPS: 148a9 13 11 13 75 51 1c 24 14 10 2e 12 10 3b 17 11 f2 88 5b 13
FIXUPS: 14cb6 3a7 ffffe6df 32 27 1a 24 15 54 1f 24 14 10 49 10 28 13 35
FIXUPS: 139b1 49 11 13 13 10 21 1dd 10 10 12b 23 18 10 23 17 ffffee7b 13
FIXUPS: 12dba 21 e 25 10 12 16 14 16 119 21 e 13 13 10 17 35 5b 2f 19 11
FIXUPS: 13102 18 ce 424 91 3a 10 10 2c ffffeed4 10 10 10 21 47 14 f 49
FIXUPS: 1270c 13 13 10 1d0 10 10 f6 22 24 44 14 23 3f 1d 26 10 19 2d 23
FIXUPS: 12bfc 10 55 fffff314 21 21 10 10 c e1 57 e 11 13 54 e 16 13 54
FIXUPS: 1223a 13 10 11 13 10 10 13 e 1df 10 10 f6 10 10 10 fffff1ef 41
FIXUPS: 11834 30 23 18 10 36 1f 38 12 6b 5f 25 1d 10 5f 28 20 13 c b3 112
FIXUPS: 11d13 21 21 21 10 10 96 10a 1e fffff0f7 7a 23 3d 20 33 12 35 f
FIXUPS: 111e3 f 12 f 12 5b 23 18 10 65 2f 1f 7a 10 10 13 10 15 16 30d 12
FIXUPS: 11797 18 ffffea0b 17 17 93 12 17 17 17 71 43 76 3b 26 53 13 2a
FIXUPS: 10500 e 1a 11 a3 18 13 16 13 66d 19 331 15 f 12 13 ffffe012 91
FIXUPS: f119 10 10 11 70 13 b0 17 6f 13 2e4 b6 688 193 23 17 64 56 80 12
FIXUPS: 10069 25 2c 25 2d 23 18 10 3a 12 ffffe708 10 33 3b 3a 25 22 1c
FIXUPS: e9e5 86 48 45 11 13 13 10 1b6 14 14 10 10 10 fa 17 11 15 15 99
FIXUPS: ef46 f 74 4d ffffe760 14 1a 13 1db 11 13 10 14 1e 1e 6d 17 11 1fa
FIXUPS: e499 18 1c3 20 12 53 7d 12 18 16 10 10 14 25 31 30 23 ffffe6f5
FIXUPS: cf98 17 1c 1c 67 25 26 4d 48 45 11 13 13 10 183 10 10 10 91 14
FIXUPS: d435 3f 2c 15 1f 13 15 45 11 1b 1f6 ffffd522 35 18 50 20 26 aa
FIXUPS: ae29 24 25 2b 29 17 11 a95 20 18 29 9c 6e 12 68 45 30 17 11 1077
FIXUPS: cc9c 18 29 27c 1d ffffd5ef 13 10 14 18 10 16 1c 4e 29 51 18 26
FIXUPS: a712 bd 13 c f a2 24 22 3b 1b 40 89 14 24 25 69 43 47 12 fffff0a5
FIXUPS: 9c30 29 17b 27 29 15 15 f f f 3a 89 14 2a 10 1d 10 16 f 20 10 1d
FIXUPS: a03b 2ef 10 16 f 23 10 20 13 ffffe1ba 195 48c 5f4 20 18 64 2f 12
FIXUPS: 92c2 15 5a 23 18 26 10 19 26 17 11 6f 31 fb 72 3ca 20 18 189 12
FIXUPS: 9bd0 12 14 ffffd342 42 29 17 11 b9 31 147 ab 5a 19 8b6 20 18 1e9
FIXUPS: 7e15 1d 64 2b c7 14 23 42 2c 15 2b 16 16 eb 5d 17 11 ffffce02 17
FIXUPS: 5033 1d4 1e8 58c 1c 1f 28 1fe 113 26 2a 17 18 2a 193 57 23 57 17
FIXUPS: 6024 25 39 11f 19b b13 20 18 5e 24 17 ffffd015 13 17 10 9c e4 1f2
FIXUPS: 42f3 13 3a 9e 11 17 a2 124 140 f1 97 4cf 20 18 7f 27 17 18 16 10
FIXUPS: 4ed5 50 51 26 12 ffffe14f 20 18 23 4d 17 12 18 10 10 10 7c 13 29
FIXUPS: 32dc a5 27 11 17 147 14 f3 113 17 fc c6 505 20 18 23 94 22 ffffde44
FIXUPS: 1d7f 1d 10 10 36 17 14a 23 32 17 11 1f5 20 18 5e 24 17 18 8d 13
FIXUPS: 2377 e a5 4b 11 17 102 82 208 32e 16 ffffee91 1b 1d 10 10 66 1e
FIXUPS: 1af8 1e 14 13 18 10 10 13 10 13 e 13 10 10 10 20 16 19 18 3e 28
FIXUPS: 1ce8 1b 1d 25 fffff8be 19 18 18 13 34 42 4d 17 35 13 17 1c 26 1b
FIXUPS: 1812 1d 42 13 11 13 10 20 16 19 18 1c 28 1f 1b 1d 25 fffff7e1 11
FIXUPS: 11e4 10 2a 1b 10 11 13 10 22 13 87 35 10 14 96 57 17 1b 14 1b 10
FIXUPS: 1500 2a 1b 12 2d 1a 19 18 10 16d3e 3e 23 b 59 b 3e 23 b 59 b 3e
FIXUPS: 1851e b 59 b 3e 23 b 59 b 3e 23 b 59 b fffe88e1 a5 10 5c 6c 20
FIXUPS: 17dac 2e 2b 2a 2b 2f 2b 2f 2b 2a 2b 2a 2b 2a 2b 2a 2b 2a 2b 2a
FIXUPS: 1810f 33 2e 2f 36 2c b 3e 9 4d 13 5f fffff611 1e b 31 2e 2d 2e
FIXUPS: 17a33 2b 2a 2b 2a 2b 2a 47 c 1e b 2e 47 c 1e b 2e 47 c 1e b 2e
FIXUPS: 17d77 c 1e 15be 11 25 ffffe0ac 1c 2d b 5b 2a 2b 2a 2b 2a 2b 2a
FIXUPS: 17644 2a 2b 2a 2b 2a 2b 2a 2b 2a 2b 2a 2e 2d 2e 2d 4a 134b 27 17
FIXUPS: 18cb9 34 49 1f 19 14 19 22 14 19 1b9 39 6c 53 74 53 2c 2c 2d 1d
FIXUPS: 19253 2f 17 19 1a e 20 17 19 143bd fffeb0b1 17 22 2f e 25 26 2a
FIXUPS: 1889a 32 45 2f 38 19 6c 2f 38 19 65 37 17 19 1a e 20 17 19 20 29
FIXUPS: 18c1e 3b 14688 11 d 7 41 1d 15 27 15 a 24 1c 1c f 19 42 20 18 23
FIXUPS: 2d4f9 61 c 3a 9 49 9 b 25 25 64 7 25 fffff801 19 21 10 16 16 16
FIXUPS: 2cf78 1d 15 2d 15 a 24 1c 1c 12 22 51 26 18 2f 19 6b 1e c 3b 11
FIXUPS: 2d28d 9 9 b fffff3a1 17 18 17 212 30 2d a9 87 57 1a 27 cb 25 59
FIXUPS: 2cc39 69 32 44 41 c 9 b 20 19 24 7f 11 d 7 16 15 fffff300 13 23
FIXUPS: 2c214 15 17 b 19 b 39 15 17 15 17 1a 31 18 7 5 ce 61 76 7a 13 10
FIXUPS: 2c5cb b 10 11 b 7 1b fffff271 13 37 121 13 46 c 10 13 f4 90 182
FIXUPS: 2be04 145 10 7 11 22 24 13 2e 37 13 19 15 40 19 19 39 2d 17 22
FIXUPS: 2b030 13 46 c 10 13 37 141 13 46 c 10 13 37 151 13 46 c 10 13 37
FIXUPS: 2b620 13 46 c 10 13 37 141 13 46 c ffffefcb 20 20 20 28 34 2c 51
FIXUPS: 2a9b8 30 34 2c 51 2f 41 6a b 36 6c 13 46 c 10 13 34 144 13 46 c
FIXUPS: 2ae95 13 37 fffff395 30 2c 20 20 20 29 2f 30 41 56 b 2a 5c 13 46
FIXUPS: 2a545 10 13 3f 2c b 4d 2c b 69 b 81 29 44 30 30 fffff47c 20 20
FIXUPS: 29d08 34 2c 51 2f 30 34 2c 51 2f 41 2c b 34 2c 13 46 c 10 13 4b
FIXUPS: 2a0ac 2c b 68 b 81 29 44 fffff505 2f 41 2c b 34 2c 13 46 c 10 13
FIXUPS: 29917 2c b 4d 2c b 4a 9 2c b 50 9 2c b 6f b 8e 30 30 2c fffff4d8
FIXUPS: 29197 2c b 4d 2c b 4a 9 2c b 50 9 2c b 6f b 8e 30 30 2c 20 20 20
FIXUPS: 29588 34 2c 51 2f 30 34 2c fffff49b 49 c 10 13 58 9 2c b 68 b a1
FIXUPS: 28de0 44 30 30 2c 20 20 20 29 2f 30 41 5b b 35 5c 13 46 c 10 fffff46b
FIXUPS: 285c3 46 c 10 13 4b 9 2c b 68 b a1 29 44 30 30 2c 20 20 20 29 2f
FIXUPS: 289b8 31 2f 30 41 5b b 35 5c fffff432 4a 9 2c b 50 9 2c b 6f b
FIXUPS: 281d4 30 30 2c 20 20 20 28 34 2c 51 2f 30 34 2c 51 2f 41 2c b 34
FIXUPS: 27a54 30 30 2c 20 20 20 28 34 2c 51 2f 30 34 2c 51 2f 41 2c b 34
FIXUPS: 27e30 13 46 c 10 13 3f 2c b 4d 2c fffff4b1 30 34 2c 51 2f 41 5b
FIXUPS: 2760f 35 5c 13 49 c 10 13 4c 2c b 4d 2c b 4a 9 2c b 50 9 2c b 6f
FIXUPS: 279c6 fffff50a 34 2c 13 46 c 10 13 4b 9 2c b 49 9 2c b 6f b a1
FIXUPS: 27210 44 30 30 2c 20 20 20 29 2f 30 31 2f fffff4d3 2c b 4a 9 2c
FIXUPS: 269bc 50 9 2c b 6f b 8e 30 30 2c 20 20 20 28 34 2c 51 2f 30 34
FIXUPS: 26dd8 51 2f 41 2c fffff406 b a1 29 44 30 30 2c 20 20 20 29 2f 30
FIXUPS: 26588 34 2c 51 2f 41 5b b 35 5c 13 49 c 10 13 4c 2c b fffff3d5
FIXUPS: 25ceb b a1 29 44 30 30 2c 20 20 20 29 2f 30 31 2f 30 41 5b b 35
FIXUPS: 26140 13 49 c 10 13 58 9 2c b fffff432 2c b 5f b a1 29 44 30 30
FIXUPS: 258d0 20 20 20 28 34 2c 51 2f 41 5b b 35 5c 13 46 c 10 13 4b 9
FIXUPS: 25c78 fffff43b 9 2c b 68 b a1 29 44 30 30 2c 20 20 20 29 2f 30
FIXUPS: 25419 2f 30 41 5b b 35 5c 13 49 c 10 13 51 fffff3bc 31 2f 30 31
FIXUPS: 24b38 30 30 34 2c 51 2f 30 34 2c 51 2f 30 34 2c 51 2f 41 5d b 33
FIXUPS: 24fd0 13 49 c 10 13 fffff3fd 10 13 55 9 2c b 6b b a1 29 44 30 30
FIXUPS: 24720 20 20 20 29 2f 30 31 2f 30 31 2f 30 31 2f 30 31 2f fffff378
FIXUPS: 23da3 46 c 10 13 37 141 13 46 c 10 13 37 141 13 46 c 10 13 42 2c
FIXUPS: 24291 68 2c b 34 5e b 23 13 49 fffff27c 51 2f 41 5b b 35 5c 13
FIXUPS: 238d9 c 10 13 3f 2c b 9b 2f 30 41 2c b 34 5e b 23 13 46 c 10 13
FIXUPS: 23c6f fffff451 20 20 28 34 2c 51 2f 41 5b b 35 5c 13 46 c 10 13
FIXUPS: 23405 2c b 5f b ae 30 30 2c 20 20 20 28 34 fffff38a ae 30 30 2c
FIXUPS: 22b80 20 20 28 34 2c 51 2f 41 5b b 35 5c 13 46 c 10 13 3d 2c b
FIXUPS: 22f5b b ae 30 30 2c fffff35c 5f b ae 30 30 2c 20 20 20 29 2f 30
FIXUPS: 226b8 34 2c 51 2f 41 56 b 2a 5c 13 46 c 10 13 3d 2c b 5f fffff3da
FIXUPS: 21e21 b 5f b ae 30 30 2c 20 20 20 29 2f 30 30 34 2c 51 2f 41 5e
FIXUPS: 22272 32 5c 13 46 c 10 13 3d 2c fffff412 46 c 10 13 3d 2c b 5f
FIXUPS: 21956 ae 30 30 2c 20 20 20 28 34 2c 51 2f 41 5b b 35 5c 13 46 c
FIXUPS: 21da5 13 fffff401 5b b 35 5c 13 46 c 10 13 3d 2c b 5f b ae 30 30
FIXUPS: 21550 20 20 20 28 34 2c 51 2f 41 5b b 35 5c fffff368 34 2c 51 2f
FIXUPS: 20c79 5b b 35 5c 13 46 c 10 13 3d 2c b 5f b ae 30 30 2c 20 20 20
FIXUPS: 21098 34 2c 51 2f fffff3ec 2c 20 20 20 28 34 2c 51 2f 41 5b b 35
FIXUPS: 20830 13 46 c 10 13 3d 2c b 5f b ae 30 30 2c 20 20 20 fffff37c
FIXUPS: 1ff0b b ae 30 30 2c 20 20 20 28 34 2c 51 2f 41 5b b 35 5c 13 46
FIXUPS: 20355 10 13 3d 2c b 5f b ae 30 fffff3a1 10 13 3d 2c b 5f b ae 30
FIXUPS: 1fae4 2c 20 20 20 28 34 2c 51 2f 41 5b b 35 5c 13 46 c 10 13 3d
FIXUPS: 1fea1 fffff473 30 2c 20 20 20 29 2f 30 41 5b b 35 5c 13 46 c 10
FIXUPS: 1f618 44 9 2c b 7d 4c b 34 9e b 23 13 46 fffff3de b 69 b 6a 64
FIXUPS: 1ee24 30 2c 20 20 20 29 2f 30 41 5b b 35 5c 13 46 c 10 13 3f 2c
FIXUPS: 1f19e 6d b 6a 64 fffff374 30 34 2c 51 2f 30 34 2c 51 2f 30 34 2c
FIXUPS: 1e959 2f 30 34 2c 51 2f 2c 5c 13 49 c 10 13 4c 2c b 4d fffff3bd
FIXUPS: 1e069 2f 30 31 2f 30 31 2f 30 31 2f 30 31 2f 30 31 2f 30 31 2f
FIXUPS: 1e428 31 2f 30 31 2f 30 30 34 2c 51 fffff483 50 9 2c b 50 9 2c
FIXUPS: 1dbcc 50 9 2c b 50 9 2c b 6f b 6a 64 30 30 2c 20 20 20 29 2f 30
FIXUPS: 1dfd9 2f fffff55c 30 30 2c 20 20 20 29 2f 30 41 5b b 35 5c 13 49
FIXUPS: 1d878 10 13 4c 2c b 4d 2c b 49 2c b 4a 9 2c fffff4f8 5c b 34 5c
FIXUPS: 1d0a3 46 c 10 13 47 2c b 2a 59 2c b 34 5e b 23 13 49 c 10 13 4c
FIXUPS: 1d413 b 6d b 6a fffff0b2 b 23 13 49 c 10 13 119 30 2e 20 20 20
FIXUPS: 1c866 30 30 30 2f 30 30 30 2d 1e 13 46 c 10 13 46b 30 30 fffff149
FIXUPS: 1c0a8 10 13 4e 2c b 34 5e b 23 13 49 c 10 13 4f 2c b 48 2c b 4e
FIXUPS: 1c41a b 48 2c b 45 2c b 34 fffff28b 44 40 40 40 40 3c 44 40 3c
FIXUPS: 1ba5f 40 44 40 3c 44 40 40 3c 44 ed 13 46 c 10 13 f1 75 b 2b 8c
FIXUPS: 1c053 ffffef90 3c 44 38 44 40 40 3c 44 40 44 3c 40 40 44 40 3c
FIXUPS: 1b41f 39 47 49 3b 3c 44 3c 40 40 44 40 3c 40 40 fffff000 44 3c
FIXUPS: 1a85b 44 44 40 44 4c 44 4c 44 4c 44 48 39 4b 40 3c 3c 40 40 40
FIXUPS: 1ad9b 44 44 3c 40 40 40 40 44 ffffef5c 24 38 2c 30 30 2c 34 2c
FIXUPS: 1a0d0 13 46 c 10 13 189 b 134 13 49 c 10 13 b8 38 40 40 44 44 3c
FIXUPS: 1a71f 44 fffff01d 13 46 c 10 13 2d 83 30 30 30 17e 2a 13 46 c 10
FIXUPS: 19b78 cf 30 30 30 30 30 40 30 2c 34 30 30 30 30 14ff3 d e 7 24
FIXUPS: 2ef13 5f b 38 15 29 d e 22 9 b 4c 13 7c c 9 b 51 13 8c f c 9 b
FIXUPS: 2f28c fffea267 26f 152f3 19 43 3f 18 10 24 19 b 37 f 28 17 f 26
FIXUPS: 2ec25 29 f 41 12 74 b 43 17 17 4f 7 65 f f e 21 fffff75b b 27 65
FIXUPS: 2e6aa 17 1d 4a 16 17 1b 1c 11 22 2c b 3c 45 1b 1d 19 b 40 12 1c
FIXUPS: 2e94c 58 12 a 2f 3e 17 fffff93f 22 c 2e 11 b 39 8 10 12 8 47 9
FIXUPS: 2e4c3 c d c 9 d d d d d c b 3c 12 f 12 e 28 c fffffa96 b 19 c f
FIXUPS: 2e0de 8 24 d 1b 6 36 a 24 22 75 e 6 e b 8 d 11 10 11 b d b 13 40
FIXUPS: 2e324 51 fffff773 b 19 5 1a 1a 1d 38 e 19 c 69 16 14a 15 d a 3a
FIXUPS: 2de42 a 39 46 a 39 46 a 39 46 a 39 46 25 1a09 c7 7 4e 13 5f b ffffdb85
FIXUPS: 2d7d0 13 46 c 10 13 6f 17 12 12 12 12 46 f f f f 9 b e7 f f f f
FIXUPS: 2f588 f f 105 7 f 13 13 13 17 1b e 13 25 c 1d0 17 1b 10 45 7 d
FIXUPS: 2f9f9 10 10 10 10 10 10 10 10 10 71f 16 43 a b 24 22 53 10 7 2c
FIXUPS: 302fa b 2b 13 ffffefab 107 b 29 15 15 15 15 17 17 17 17 17 17 17
FIXUPS: 2f570 9 f93 c b fffff75e 1c 2d b c8 12 15 5 33 9 b 49 8 7c 2a 9
FIXUPS: 2ff1b 22 c8 b 1b 19 11 3f 1c 4a 3f 1c 38 2507 45 17 23 38 2b 17
FIXUPS: 327c5 41 36 1e 31 2e 3c 2a 14 16 14 64 14 ffffd9d3 f 11 16 a 1b
FIXUPS: 3044a 20 23 1f 26 8 1bb3 5 1e 6a 25 2a 19 1b b 78 36 2f 10 c b
FIXUPS: 322d0 13 5f b 118 9 b 59 b 80 17 47 17 49 13 17 38 fffff752 1b
FIXUPS: 31df9 29 29 19 25 e f 1f 27 59 1c 28 12 15 a 5 8 1b 7 10 7 10 7
FIXUPS: 32030 7 e 10 1b 7 f fffff92c 24 24 24 24 24 24 24 24 24 24 24 24
FIXUPS: 31b86 24 1c 28 60 10 5 8 6f 8 7 10 7 14 7 16 7 1f 49 fffff84a 7
FIXUPS: 31605 7 16 7 1f 43 22 20 1a 11 a 11 a 35 42 35 1b 1a 27 12 2c 16
FIXUPS: 3189b 19 26 24 24 24 24 24 fffff9da 10 7 14 7 16 7 2c 5 8 20 5
FIXUPS: 3141d 20 5 8 24 1c 28 c 7 24 1c 28 e 2d 11 a 11 a 35 7 fffff98a
FIXUPS: 30f90 16 29 34 33 16 d 12 1f 16 16 22 8 28 1a 1f e 26 89 1c 28
FIXUPS: 3125b 1c 11 a 11 a 35 42 35 8 fffff8ee 7 d 9 19 25 1e 1a 29 10
FIXUPS: 30d69 3e 15 15 8 18 8 b 1c 7 10 7 14 7 16 7 19 1c 43 9 19 3a fffff9bf
FIXUPS: 30910 23 42 42 42 7b 15 21 14 e 5 11 e 1c 1d 5 24 17 2a 8 c d d
FIXUPS: 30bca f 27 7 10 7 14 7 22b4 48 c c 8e 91 ffffd55a 15 6f 15 2f 9
FIXUPS: 306a2 71 9 b 26 17 50 22 20 c 8 16 18 41 14 e 10 20 8 29 29f6 17
FIXUPS: 33320 17 50 e a f1 25 f2 a b 28 2c 13 72 9 b fffff372 1da 78 4b
FIXUPS: 32ce7 3b 55 32 3b 55 61 1c 16 15 113f 13 5f b fffff663 3a 22 3b
FIXUPS: 337f9 28 5f 14 f d f 13 28 e fffff7a6 15 12b 9 b 29 15 15 15 15
FIXUPS: 33296 17 17 17 7ad 70 24 7 a 1e 29 16 27 40 2e 21 28 13 b 28 f
FIXUPS: 33cd6 d 9 126 a1 20 37 2e 50 8 10 e 1e 20 7 1fc0 b 32 53 b 21 34
FIXUPS: 360ae 21 49 b 21 f 11 a 1c b 32 b 45 b 49 b ffffd6d8 36 b 29 15
FIXUPS: 33a1a 1a 19 1f 2097 2f 15 c c c c c b 22 fc 25 25 25 25 25 2b 13
FIXUPS: 35dd0 39 12 23 9 b 70 9 b 5c b 38 12 23 fffff819 12 22 11 19 14
FIXUPS: 35841 18 d 14 11 11 22 41 25 c c c b 47 1c 27 e 68 e b c 29 15
FIXUPS: 35ac9 24 b fffffa0c 11 11 11 11 11 13 13 13 13 13 13 20 15 15 15
FIXUPS: 3563f 15 15 11 13 13 13 13 13 14 52 24 e b c 29 fffff9b9 14 21
FIXUPS: 351b2 9 15 13 1b c 12 b6 7 1c 19 a9 10 13 13 15 11 b 11 10 13 1e
FIXUPS: 3547b 25 9 c b 22 11 fffff934 c c c c b 39 d 20 13 e 20 12 7 a
FIXUPS: 34f3a 9 7 19 b 2e d 42 c c 55 11 15 17 3f 40 b fffff704 45 11 19
FIXUPS: 348a6 c 18 109 36 1a 12 9e 7 15 1c 1c 15d 13 13 13 13 23 56 16
FIXUPS: 34d83 b b 39 25 c c c fffff644 e b c 29 1a 14 15 18 69 19 26 2c
FIXUPS: 345f5 26 2c 19 26 3f 40 11 16 24 b b 1d 1d 12 11 15 14 11 2422
FIXUPS: 36c2b 9 b fffff686 18 1c b 5e b 1a3 13 ffffdc23 15 6f 15 12 12
FIXUPS: 34232 f f 9 b 8b f f 9 b 26 50 22 82 23bf d 15 12 c b 6a 45 f 9
FIXUPS: 36917 26 17 17 91 17 1a 12 b 10 b 3c 12 b 2c b 3a f 19 b 2e 13
FIXUPS: 36eb0 22 27 1a 18 1e 15 15 1d 30 13 6f 9 b fffff50e 1c 2d b 78
FIXUPS: 36648 15 26 36 2c 3d 12 1a c f 10 16 31 116e 19 30 f8 19 54 7 33
FIXUPS: 37b34 2c 13 5f b fffff0b1 12 15 1f 9 b 25 22 15 c8 b 1a d b c 6
FIXUPS: 36e79 13 19 2a0 50 6a 12 bf 84 93 5f 19 2a 25 12 b5 34 30 28 f
FIXUPS: 3768c 11 5a 74 1c aa 21 28 19 12 b 28 13 8 21 319 1c b 5e b 3c
FIXUPS: 37d08 39 13 10 10 12 d 10 10 10 10 10 2b 4d f 10 13 10 2a 43 46
FIXUPS: 37f63 fffff13b 5e b 29 13bc 24 fffffaa8 2a 2b 2a 2b 2a 2b 2a 47
FIXUPS: 38134 1e b 2e 3f 17 c 27 9 b 2e 2b 48 2b 2a 2b 2a 2b 2f 2e fffff81a
FIXUPS: 389df 1f 2c 34 14 38 b c 10 14 a 19 23 11 9 6a 9 9 b 29 4b 13 5f
FIXUPS: 38cbd 55 b fffff824 d 1eb fffffd47 22 26 1113 f c 9 b fffff74a
FIXUPS: 38d70 2d b 6f 2c b 5e b 26 53 13 fffff841 1c 2d b 68 2c b 8e 25
FIXUPS: 3893b 11 1d 1f 1f 24 890 1b 1b 10 37 1e 2c 7 a b 17 f 3c 1b 12
FIXUPS: 393dd 3b b 27 1b 14 f f 1c e 16 13 9 8 25 13 99 fffff9c2 12 12
FIXUPS: 38fc4 12 20 22 f f c 9 b 29 15 17 53 c f f 1c e 16 13 9 1e e 13
FIXUPS: 391d1 20 f 37 e 501 8c 15 23 42 ad 26 16 16 c 22 7 8 b 28 7 60
FIXUPS: 39a3f 11 44 12 13 34 15 27 f 25 9 b 22 2d 13 352c b 3e 1b e 1e
FIXUPS: 3d19d 1c e 1c e 19 9 9 9 b 30 13 46 12 23 9 b ca ffffc279 12 2c
FIXUPS: 3968c b 5e 3d 9 3749 c c c c b 3d 1b e 1e e 1c e 1c e 19 9 9 9
FIXUPS: 3cfe4 3e 1b e 1e e 1c e 1c e 19 9 9 fffffa78 b c 2a 12 15 2a 17
FIXUPS: 3cc3b 17 24 17 88 e 1a 12 12 12 14 2a b b 22 2f c c c c c c c c
FIXUPS: 3c836 e 6e e b c 2a 3b 26 12 c 12 13 a c 1a 17 1a 17 1a 17 11 16
FIXUPS: 3ca88 21 1b 1b a 11 f b 4f fffff9d5 12 13 a c f b 17 f b 17 f b
FIXUPS: 3c606 1a 17 1a 17 1a 17 18 b 19 2f c b 52 32 e b c 27 fffffa55
FIXUPS: 3c24f b 17 1a 17 1a 17 1a 17 1a 17 1a 17 1a 17 1a 17 1a 17 1a 17
FIXUPS: 3c43b 18 b 19 13 13 3d c b 3b fffff95c 17 10 b 19 1e 1b 1b 10 d
FIXUPS: 3bf55 11 18 b 19 2f c b 3b f 14 12 64 9 30 1c 78 67 d c f 11 fffff9cd
FIXUPS: 3bc03 d c 1a 17 1a 17 1a 17 11 18 b 19 13 2f c b 3b c 12 b 12 13
FIXUPS: 3bde6 d d c 1a 17 1a 17 fffffaa8 1e 18 1e 18 1e 18 40 c 12 13 a
FIXUPS: 3ba3f 11 1a 17 1a 17 1a 17 18 b 19 2f c b 3b c 12 b 12 13 fffffa52
FIXUPS: 3b647 1b 21 18 1e 18 1e 18 1e 18 1e 18 10 12 9 9 9 b 25 d 1c 1d
FIXUPS: 3b82e 30 10 10 10 19 21 18 1e fffffa41 1c 2c 1c 1c 1c 12 19 b c
FIXUPS: 3b455 24 2c 2d 19 21 17 10 10 10 f e 18 e 18 e 18 e 1a 7 1a 7 fffff9ff
FIXUPS: 3b034 24 b b 36 f 24 d 11 24 d 11 24 d 11 39 8 1c c c c c c c c
FIXUPS: 3b235 77 b 16 30 32 fffff9cd 2d 14 24 b b 36 12 24 d 1a 24 d 14
FIXUPS: 3ae8f 8 1c c c c c c c b 47 2a e b c 27 1b 21 fffff9e8 12 27 f
FIXUPS: 3aa53 d 2d d 2d d 47 33 d 17 8 8 1c c c c c c c c b 47 2a e b c
FIXUPS: 3acbd 1e fffff996 7 b 25 66 19 d 20 12 34 d 15 13 5e c c c c b
FIXUPS: 3a8af 2a e b c 27 1b 21 24 11 24 b b fffff88f a 14 1b 1a 11 1d
FIXUPS: 3a2f0 20 3f 10 20 3f 10 20 7d 2a e b c 31 1e 21 2d 14 24 b b 3d
FIXUPS: 3a5f4 3c 20 fffff8e9 e 19 9 9 9 b 3e 1e e 47 15 b 33 1c 1c 1c 1c
FIXUPS: 3a116 1c 4b 8 c d b 16 a 9 9 a 18 2c 342a 74 1a 32 1a 19 9 9 b
FIXUPS: 3d794 14 38 13 ffffc404 46 56 5 31 3d b 37 46 b 5e b 9c 1b e 1e
FIXUPS: 39ef3 1c e 3921 cc b 29 19 19 19 19 1f 1f 1f 1f 50 a 23 20 8 19d
FIXUPS: 3dc73 5f b fffff7e8 12 11 14 25 b 48 1e b 77 25 11e4 1d 14 4d 74
FIXUPS: 3e170 29 83 fffffaf5 1c 2d b 68 22 1c b 23 98 b c0 22 35 56 1c
FIXUPS: 3e089 c e b 24 22 3c 13 f10 15 15 15 17 17 17 17 17 17 17 17 17
FIXUPS: 3f178 17 17 50 27 1b3 20 13 5f b fffff8c0 fffff891 11 91 38 38
FIXUPS: 3e708 38 ce f9e 1d f a 1c 3c c b 4a 4b b 35 38 25 2b 12 31 16 e
